---
triple:          'arm64-apple-darwin'
binary-path:     '/Users/lynnette/Development/tweak/Rigel-SubwaySuck/.theos/obj/arm64/SubwaySuck.dylib'
relocations:
  - { offset: 0x58, size: 0x8, addend: 0x0, symName: "__ZN6Config15修改昵称为E", symObjAddr: 0x3EC0, symBinAddr: 0xF73C0, symSize: 0x0 }
  - { offset: 0x76, size: 0x8, addend: 0x0, symName: "__ZN6Config24要发送的消息内容E", symObjAddr: 0x3EE0, symBinAddr: 0xF73E0, symSize: 0x0 }
  - { offset: 0x94, size: 0x8, addend: 0x0, symName: "__ZN6Config12修改金币E", symObjAddr: 0x40C0, symBinAddr: 0xF75C0, symSize: 0x0 }
  - { offset: 0xB2, size: 0x8, addend: 0x0, symName: "__ZN6Config21修改成多少金币E", symObjAddr: 0x40C4, symBinAddr: 0xF75C4, symSize: 0x0 }
  - { offset: 0xD0, size: 0x8, addend: 0x0, symName: "__ZN6Config18修改宝物钥匙E", symObjAddr: 0x40C8, symBinAddr: 0xF75C8, symSize: 0x0 }
  - { offset: 0xEE, size: 0x8, addend: 0x0, symName: "__ZN6Config27修改成多少宝物钥匙E", symObjAddr: 0x40CC, symBinAddr: 0xF75CC, symSize: 0x0 }
  - { offset: 0x10C, size: 0x8, addend: 0x0, symName: "__ZN6Config12修改钥匙E", symObjAddr: 0x40D0, symBinAddr: 0xF75D0, symSize: 0x0 }
  - { offset: 0x12A, size: 0x8, addend: 0x0, symName: "__ZN6Config12修改分数E", symObjAddr: 0x40D8, symBinAddr: 0xF75D8, symSize: 0x0 }
  - { offset: 0x148, size: 0x8, addend: 0x0, symName: "__ZN6Config18修改成多少分E", symObjAddr: 0x40DC, symBinAddr: 0xF75DC, symSize: 0x0 }
  - { offset: 0x166, size: 0x8, addend: 0x0, symName: "__ZN6Config12双倍充能E", symObjAddr: 0x40E0, symBinAddr: 0xF75E0, symSize: 0x0 }
  - { offset: 0x184, size: 0x8, addend: 0x0, symName: "__ZN6Config12上帝视角E", symObjAddr: 0x40E8, symBinAddr: 0xF75E8, symSize: 0x0 }
  - { offset: 0x1A2, size: 0x8, addend: 0x0, symName: "__ZN6Config21自定义消息内容E", symObjAddr: 0x40E9, symBinAddr: 0xF75E9, symSize: 0x0 }
  - { offset: 0x1C0, size: 0x8, addend: 0x0, symName: "__ZN6Config12修改重力E", symObjAddr: 0x4308, symBinAddr: 0xF7808, symSize: 0x0 }
  - { offset: 0x1DE, size: 0x8, addend: 0x0, symName: "__ZN6Config15重力修改为E", symObjAddr: 0x430C, symBinAddr: 0xF780C, symSize: 0x0 }
  - { offset: 0x1FC, size: 0x8, addend: 0x0, symName: "__ZN6Config12修改速度E", symObjAddr: 0x4310, symBinAddr: 0xF7810, symSize: 0x0 }
  - { offset: 0x21A, size: 0x8, addend: 0x0, symName: "__ZN6Config18防作弊合法化E", symObjAddr: 0x4318, symBinAddr: 0xF7818, symSize: 0x0 }
  - { offset: 0x238, size: 0x8, addend: 0x0, symName: "__ZN6Config12十倍举报E", symObjAddr: 0x4538, symBinAddr: 0xF7A38, symSize: 0x0 }
  - { offset: 0x256, size: 0x8, addend: 0x0, symName: "__ZN6Config12修改排名E", symObjAddr: 0x4539, symBinAddr: 0xF7A39, symSize: 0x0 }
  - { offset: 0x274, size: 0x8, addend: 0x0, symName: "__ZN6Config18始终拿好道具E", symObjAddr: 0x4540, symBinAddr: 0xF7A40, symSize: 0x0 }
  - { offset: 0x748D, size: 0x8, addend: 0x0, symName: __ZNSt3__119__allocate_at_leastB8nn200100INS_9allocatorIDsEEEENS_19__allocation_resultINS_16allocator_traitsIT_E7pointerEEERS5_m, symObjAddr: 0x3428, symBinAddr: 0xB384, symSize: 0x30 }
  - { offset: 0x7495, size: 0x8, addend: 0x0, symName: __ZNSt3__112basic_stringIDsNS_11char_traitsIDsEENS_9allocatorIDsEEE9__grow_byEmmmmmm, symObjAddr: 0x3458, symBinAddr: 0xB3B4, symSize: 0x118 }
  - { offset: 0x773B, size: 0x8, addend: 0x0, symName: __ZSt28__throw_bad_array_new_lengthB8nn200100v, symObjAddr: 0x2F3C, symBinAddr: 0xAE98, symSize: 0xC }
  - { offset: 0x7743, size: 0x8, addend: 0x0, symName: __ZN15System_String_o16set_utf8_to_thisENSt3__112basic_stringIcNS0_11char_traitsIcEENS0_9allocatorIcEEEE, symObjAddr: 0x2F48, symBinAddr: 0xAEA4, symSize: 0x90 }
  - { offset: 0x79AB, size: 0x8, addend: 0x0, symName: _result_string, symObjAddr: 0x3F00, symBinAddr: 0xF7400, symSize: 0x0 }
  - { offset: 0x7A4B, size: 0x8, addend: 0x0, symName: __ZN15FunctionAddress35HPowerupManager__IncEnergy_funcaddrE, symObjAddr: 0x3F80, symBinAddr: 0xF7480, symSize: 0x0 }
  - { offset: 0x7A69, size: 0x8, addend: 0x0, symName: __ZN15FunctionAddress38HPowerupManager__get_instance_funcaddrE, symObjAddr: 0x3F88, symBinAddr: 0xF7488, symSize: 0x0 }
  - { offset: 0x7A87, size: 0x8, addend: 0x0, symName: __ZN15FunctionAddress38HPowerupManager__CanReleaseEnergy_addrE, symObjAddr: 0x3F90, symBinAddr: 0xF7490, symSize: 0x0 }
  - { offset: 0x7AA5, size: 0x8, addend: 0x0, symName: __ZN15FunctionAddress35HPowerupManager__ReleaseEnergy_addrE, symObjAddr: 0x3F98, symBinAddr: 0xF7498, symSize: 0x0 }
  - { offset: 0x7AC3, size: 0x8, addend: 0x0, symName: __ZN15FunctionAddress39PlayerInfo__set_NewTreasureKey_funcaddrE, symObjAddr: 0x3FA0, symBinAddr: 0xF74A0, symSize: 0x0 }
  - { offset: 0x7AE1, size: 0x8, addend: 0x0, symName: __ZN15FunctionAddress51SYBO_Subway_Characters_Character__get_Instance_AddrE, symObjAddr: 0x3FA8, symBinAddr: 0xF74A8, symSize: 0x0 }
  - { offset: 0x7AFF, size: 0x8, addend: 0x0, symName: __ZN15FunctionAddress58SYBO_Subway_Characters_CharacterBase__get_runningTime_addrE, symObjAddr: 0x3FB0, symBinAddr: 0xF74B0, symSize: 0x0 }
  - { offset: 0x7B1D, size: 0x8, addend: 0x0, symName: __ZN15FunctionAddress37UnityEngine_Camera__get_main_funcaddrE, symObjAddr: 0x3FB8, symBinAddr: 0xF74B8, symSize: 0x0 }
  - { offset: 0x7B3B, size: 0x8, addend: 0x0, symName: __ZN15FunctionAddress43UnityEngine_Camera__WorldToScreenPoint_addrE, symObjAddr: 0x3FC0, symBinAddr: 0xF74C0, symSize: 0x0 }
  - { offset: 0x7B59, size: 0x8, addend: 0x0, symName: __ZN15FunctionAddress27DummyMgr__get_Instance_addrE, symObjAddr: 0x3FC8, symBinAddr: 0xF74C8, symSize: 0x0 }
  - { offset: 0x7B77, size: 0x8, addend: 0x0, symName: __ZN15FunctionAddress27DummyMgr__get_allDummy_addrE, symObjAddr: 0x3FD0, symBinAddr: 0xF74D0, symSize: 0x0 }
  - { offset: 0x7B95, size: 0x8, addend: 0x0, symName: __ZN15FunctionAddress36PhotonNetwork__get_otherPlayers_addrE, symObjAddr: 0x3FD8, symBinAddr: 0xF74D8, symSize: 0x0 }
  - { offset: 0x7BB3, size: 0x8, addend: 0x0, symName: __ZN15FunctionAddress25PhotonPlayer__get_ID_addrE, symObjAddr: 0x3FE0, symBinAddr: 0xF74E0, symSize: 0x0 }
  - { offset: 0x7BD1, size: 0x8, addend: 0x0, symName: __ZN15FunctionAddress29PhotonPlayer__get_UserId_addrE, symObjAddr: 0x3FE8, symBinAddr: 0xF74E8, symSize: 0x0 }
  - { offset: 0x7BEF, size: 0x8, addend: 0x0, symName: __ZN15FunctionAddress34NetDirector__PostRoom_EndGame_addrE, symObjAddr: 0x3FF0, symBinAddr: 0xF74F0, symSize: 0x0 }
  - { offset: 0x7C0D, size: 0x8, addend: 0x0, symName: __ZN15FunctionAddress28OnlineSettings__get_instanceE, symObjAddr: 0x3FF8, symBinAddr: 0xF74F8, symSize: 0x0 }
  - { offset: 0x7C2B, size: 0x8, addend: 0x0, symName: __ZN15FunctionAddress41OnlineSettings__get_RealPvpCheatTime_addrE, symObjAddr: 0x4000, symBinAddr: 0xF7500, symSize: 0x0 }
  - { offset: 0x7C49, size: 0x8, addend: 0x0, symName: __ZN15FunctionAddress31PVPModuleMgr__get_Instance_addrE, symObjAddr: 0x4008, symBinAddr: 0xF7508, symSize: 0x0 }
  - { offset: 0x7C67, size: 0x8, addend: 0x0, symName: __ZN15FunctionAddress36PVPModuleMgr__get_ROUTE_LEGNGTH_addrE, symObjAddr: 0x4010, symBinAddr: 0xF7510, symSize: 0x0 }
  - { offset: 0x7C85, size: 0x8, addend: 0x0, symName: __ZN15FunctionAddress36BindWeChatManager__get_Instance_addrE, symObjAddr: 0x4018, symBinAddr: 0xF7518, symSize: 0x0 }
  - { offset: 0x7CD5, size: 0x8, addend: 0x0, symName: __ZN12GameFunction29HPowerupManager__get_instanceE, symObjAddr: 0x4020, symBinAddr: 0xF7520, symSize: 0x0 }
  - { offset: 0x7CF3, size: 0x8, addend: 0x0, symName: __ZN12GameFunction26HPowerupManager__IncEnergyE, symObjAddr: 0x4028, symBinAddr: 0xF7528, symSize: 0x0 }
  - { offset: 0x7D11, size: 0x8, addend: 0x0, symName: __ZN12GameFunction33HPowerupManager__CanReleaseEnergyE, symObjAddr: 0x4030, symBinAddr: 0xF7530, symSize: 0x0 }
  - { offset: 0x7D2F, size: 0x8, addend: 0x0, symName: __ZN12GameFunction30HPowerupManager__ReleaseEnergyE, symObjAddr: 0x4038, symBinAddr: 0xF7538, symSize: 0x0 }
  - { offset: 0x7D4D, size: 0x8, addend: 0x0, symName: __ZN12GameFunction30PlayerInfo__set_NewTreasureKeyE, symObjAddr: 0x4040, symBinAddr: 0xF7540, symSize: 0x0 }
  - { offset: 0x7D6B, size: 0x8, addend: 0x0, symName: __ZN12GameFunction46SYBO_Subway_Characters_Character__get_InstanceE, symObjAddr: 0x4048, symBinAddr: 0xF7548, symSize: 0x0 }
  - { offset: 0x7D89, size: 0x8, addend: 0x0, symName: __ZN12GameFunction53SYBO_Subway_Characters_CharacterBase__get_runningTimeE, symObjAddr: 0x4050, symBinAddr: 0xF7550, symSize: 0x0 }
  - { offset: 0x7DA7, size: 0x8, addend: 0x0, symName: __ZN12GameFunction28UnityEngine_Camera__get_mainE, symObjAddr: 0x4058, symBinAddr: 0xF7558, symSize: 0x0 }
  - { offset: 0x7DC5, size: 0x8, addend: 0x0, symName: __ZN12GameFunction38UnityEngine_Camera__WorldToScreenPointE, symObjAddr: 0x4060, symBinAddr: 0xF7560, symSize: 0x0 }
  - { offset: 0x7DE3, size: 0x8, addend: 0x0, symName: __ZN12GameFunction22DummyMgr__get_InstanceE, symObjAddr: 0x4068, symBinAddr: 0xF7568, symSize: 0x0 }
  - { offset: 0x7E01, size: 0x8, addend: 0x0, symName: __ZN12GameFunction22DummyMgr__get_allDummyE, symObjAddr: 0x4070, symBinAddr: 0xF7570, symSize: 0x0 }
  - { offset: 0x7E1F, size: 0x8, addend: 0x0, symName: __ZN12GameFunction31PhotonNetwork__get_otherPlayersE, symObjAddr: 0x4078, symBinAddr: 0xF7578, symSize: 0x0 }
  - { offset: 0x7E3D, size: 0x8, addend: 0x0, symName: __ZN12GameFunction20PhotonPlayer__get_IDE, symObjAddr: 0x4080, symBinAddr: 0xF7580, symSize: 0x0 }
  - { offset: 0x7E5B, size: 0x8, addend: 0x0, symName: __ZN12GameFunction24PhotonPlayer__get_UserIdE, symObjAddr: 0x4088, symBinAddr: 0xF7588, symSize: 0x0 }
  - { offset: 0x7E79, size: 0x8, addend: 0x0, symName: __ZN12GameFunction29NetDirector__PostRoom_EndGameE, symObjAddr: 0x4090, symBinAddr: 0xF7590, symSize: 0x0 }
  - { offset: 0x7E97, size: 0x8, addend: 0x0, symName: __ZN12GameFunction28OnlineSettings__get_instanceE, symObjAddr: 0x4098, symBinAddr: 0xF7598, symSize: 0x0 }
  - { offset: 0x7EB5, size: 0x8, addend: 0x0, symName: __ZN12GameFunction36OnlineSettings__get_RealPvpCheatTimeE, symObjAddr: 0x40A0, symBinAddr: 0xF75A0, symSize: 0x0 }
  - { offset: 0x7ED3, size: 0x8, addend: 0x0, symName: __ZN12GameFunction26PVPModuleMgr__get_InstanceE, symObjAddr: 0x40A8, symBinAddr: 0xF75A8, symSize: 0x0 }
  - { offset: 0x7EF1, size: 0x8, addend: 0x0, symName: __ZN12GameFunction31PVPModuleMgr__get_ROUTE_LEGNGTHE, symObjAddr: 0x40B0, symBinAddr: 0xF75B0, symSize: 0x0 }
  - { offset: 0x7F0F, size: 0x8, addend: 0x0, symName: __ZN12GameFunction31BindWeChatManager__get_InstanceE, symObjAddr: 0x40B8, symBinAddr: 0xF75B8, symSize: 0x0 }
  - { offset: 0x87E6, size: 0x8, addend: 0x0, symName: __ZN5hooks33org_PlayerInfo__set_amountOfCoinsE, symObjAddr: 0x3F08, symBinAddr: 0xF7408, symSize: 0x0 }
  - { offset: 0x8805, size: 0x8, addend: 0x0, symName: __ZN5hooks32org_PlayerInfo__set_amountOfKeysE, symObjAddr: 0x3F10, symBinAddr: 0xF7410, symSize: 0x0 }
  - { offset: 0x8824, size: 0x8, addend: 0x0, symName: __ZN5hooks24org_GameStats__set_scoreE, symObjAddr: 0x3F18, symBinAddr: 0xF7418, symSize: 0x0 }
  - { offset: 0x8843, size: 0x8, addend: 0x0, symName: __ZN5hooks30org_HPowerupEnergy___TriggerInE, symObjAddr: 0x3F20, symBinAddr: 0xF7420, symSize: 0x0 }
  - { offset: 0x8862, size: 0x8, addend: 0x0, symName: __ZN5hooks28org_HCharSpeed___ChangeStateE, symObjAddr: 0x3F28, symBinAddr: 0xF7428, symSize: 0x0 }
  - { offset: 0x8881, size: 0x8, addend: 0x0, symName: __ZN5hooks28org_CharacterModel__GetScaleE, symObjAddr: 0x3F30, symBinAddr: 0xF7430, symSize: 0x0 }
  - { offset: 0x88A0, size: 0x8, addend: 0x0, symName: __ZN5hooks60org_SYBO_Subway_Cameras_CameraData__get_CameraPositionOffsetE, symObjAddr: 0x3F38, symBinAddr: 0xF7438, symSize: 0x0 }
  - { offset: 0x88BF, size: 0x8, addend: 0x0, symName: __ZN5hooks10newcontentE, symObjAddr: 0x40F0, symBinAddr: 0xF75F0, symSize: 0x0 }
  - { offset: 0x88DE, size: 0x8, addend: 0x0, symName: __ZN5hooks39org_HRealPVPRoomManager__CommitGameChatE, symObjAddr: 0x3F40, symBinAddr: 0xF7440, symSize: 0x0 }
  - { offset: 0x88FD, size: 0x8, addend: 0x0, symName: __ZN5hooks50org_SYBO_Subway_Characters_Character__ApplyGravityE, symObjAddr: 0x3F48, symBinAddr: 0xF7448, symSize: 0x0 }
  - { offset: 0x891C, size: 0x8, addend: 0x0, symName: __ZN5hooks25org_HCharSpeed__get_speedE, symObjAddr: 0x3F50, symBinAddr: 0xF7450, symSize: 0x0 }
  - { offset: 0x893B, size: 0x8, addend: 0x0, symName: __ZN5hooks11newNicknameE, symObjAddr: 0x4320, symBinAddr: 0xF7820, symSize: 0x0 }
  - { offset: 0x895A, size: 0x8, addend: 0x0, symName: __ZN5hooks34org_PlayerInfo__get_playerNickNameE, symObjAddr: 0x3F58, symBinAddr: 0xF7458, symSize: 0x0 }
  - { offset: 0x8979, size: 0x8, addend: 0x0, symName: __ZN5hooks37org_ReportPlayerManager__ReportPlayerE, symObjAddr: 0x3F60, symBinAddr: 0xF7460, symSize: 0x0 }
  - { offset: 0x8998, size: 0x8, addend: 0x0, symName: __ZN5hooks32org_PartyPvpManager__get_allRankE, symObjAddr: 0x3F68, symBinAddr: 0xF7468, symSize: 0x0 }
  - { offset: 0x89B7, size: 0x8, addend: 0x0, symName: __ZN5hooks31org_RealPVPManager__get_allRankE, symObjAddr: 0x3F70, symBinAddr: 0xF7470, symSize: 0x0 }
  - { offset: 0x89D6, size: 0x8, addend: 0x0, symName: __ZN5hooks37org_NetDirector__Rule_ReqItemByServerE, symObjAddr: 0x3F78, symBinAddr: 0xF7478, symSize: 0x0 }
  - { offset: 0x89E3, size: 0x8, addend: 0x0, symName: __ZN5hooks33new_PlayerInfo__set_amountOfCoinsEPviS0_, symObjAddr: 0x10A4, symBinAddr: 0x9000, symSize: 0x8C }
  - { offset: 0x89EB, size: 0x8, addend: 0x0, symName: __ZN5hooks32new_PlayerInfo__set_amountOfKeysEPviS0_, symObjAddr: 0x1130, symBinAddr: 0x908C, symSize: 0x30 }
  - { offset: 0x8A9B, size: 0x8, addend: 0x0, symName: __ZN5hooks32new_PlayerInfo__set_amountOfKeysEPviS0_, symObjAddr: 0x1130, symBinAddr: 0x908C, symSize: 0x30 }
  - { offset: 0x8AA3, size: 0x8, addend: 0x0, symName: __ZN5hooks24new_GameStats__set_scoreEPviS0_, symObjAddr: 0x1160, symBinAddr: 0x90BC, symSize: 0x30 }
  - { offset: 0x8AF1, size: 0x8, addend: 0x0, symName: __ZN5hooks24new_GameStats__set_scoreEPviS0_, symObjAddr: 0x1160, symBinAddr: 0x90BC, symSize: 0x30 }
  - { offset: 0x8AF9, size: 0x8, addend: 0x0, symName: __ZN5hooks30new_HPowerupEnergy___TriggerInEPvS0_, symObjAddr: 0x1190, symBinAddr: 0x90EC, symSize: 0x64 }
  - { offset: 0x8B47, size: 0x8, addend: 0x0, symName: __ZN5hooks30new_HPowerupEnergy___TriggerInEPvS0_, symObjAddr: 0x1190, symBinAddr: 0x90EC, symSize: 0x64 }
  - { offset: 0x8B4F, size: 0x8, addend: 0x0, symName: __ZN5hooks28new_HCharSpeed___ChangeStateEPvhfibS0_, symObjAddr: 0x11F4, symBinAddr: 0x9150, symSize: 0x4C }
  - { offset: 0x8BBA, size: 0x8, addend: 0x0, symName: __ZN5hooks28new_HCharSpeed___ChangeStateEPvhfibS0_, symObjAddr: 0x11F4, symBinAddr: 0x9150, symSize: 0x4C }
  - { offset: 0x8BC2, size: 0x8, addend: 0x0, symName: __ZN5hooks28new_CharacterModel__GetScaleEPviS0_, symObjAddr: 0x1240, symBinAddr: 0x919C, symSize: 0x54 }
  - { offset: 0x8C49, size: 0x8, addend: 0x0, symName: __ZN5hooks28new_CharacterModel__GetScaleEPviS0_, symObjAddr: 0x1240, symBinAddr: 0x919C, symSize: 0x54 }
  - { offset: 0x8C51, size: 0x8, addend: 0x0, symName: __ZN5hooks60new_SYBO_Subway_Cameras_CameraData__get_CameraPositionOffsetEP37SYBO_Subway_Cameras_CharacterCamera_oPv, symObjAddr: 0x1294, symBinAddr: 0x91F0, symSize: 0x3C }
  - { offset: 0x8CC1, size: 0x8, addend: 0x0, symName: __ZN5hooks60new_SYBO_Subway_Cameras_CameraData__get_CameraPositionOffsetEP37SYBO_Subway_Cameras_CharacterCamera_oPv, symObjAddr: 0x1294, symBinAddr: 0x91F0, symSize: 0x3C }
  - { offset: 0x8CC9, size: 0x8, addend: 0x0, symName: __ZN5hooks39new_HRealPVPRoomManager__CommitGameChatEPviiP15System_String_oS0_, symObjAddr: 0x12D0, symBinAddr: 0x922C, symSize: 0x108 }
  - { offset: 0x8D25, size: 0x8, addend: 0x0, symName: __ZN5hooks39new_HRealPVPRoomManager__CommitGameChatEPviiP15System_String_oS0_, symObjAddr: 0x12D0, symBinAddr: 0x922C, symSize: 0x108 }
  - { offset: 0x8D2D, size: 0x8, addend: 0x0, symName: __ZN5hooks50new_SYBO_Subway_Characters_Character__ApplyGravityEPvS0_, symObjAddr: 0x13D8, symBinAddr: 0x9334, symSize: 0x34 }
  - { offset: 0x9121, size: 0x8, addend: 0x0, symName: __ZN5hooks50new_SYBO_Subway_Characters_Character__ApplyGravityEPvS0_, symObjAddr: 0x13D8, symBinAddr: 0x9334, symSize: 0x34 }
  - { offset: 0x9129, size: 0x8, addend: 0x0, symName: __ZN5hooks25new_HCharSpeed__get_speedEPvS0_, symObjAddr: 0x140C, symBinAddr: 0x9368, symSize: 0x70 }
  - { offset: 0x9165, size: 0x8, addend: 0x0, symName: __ZN5hooks25new_HCharSpeed__get_speedEPvS0_, symObjAddr: 0x140C, symBinAddr: 0x9368, symSize: 0x70 }
  - { offset: 0x916D, size: 0x8, addend: 0x0, symName: __ZN5hooks34new_PlayerInfo__get_playerNickNameEPvS0_, symObjAddr: 0x147C, symBinAddr: 0x93D8, symSize: 0xD0 }
  - { offset: 0x91C9, size: 0x8, addend: 0x0, symName: __ZN5hooks34new_PlayerInfo__get_playerNickNameEPvS0_, symObjAddr: 0x147C, symBinAddr: 0x93D8, symSize: 0xD0 }
  - { offset: 0x91D1, size: 0x8, addend: 0x0, symName: __ZN5hooks37new_ReportPlayerManager__ReportPlayerEPvP15System_String_oS0_S2_iS0_, symObjAddr: 0x154C, symBinAddr: 0x94A8, symSize: 0xCC }
  - { offset: 0x95B9, size: 0x8, addend: 0x0, symName: __ZN5hooks37new_ReportPlayerManager__ReportPlayerEPvP15System_String_oS0_S2_iS0_, symObjAddr: 0x154C, symBinAddr: 0x94A8, symSize: 0xCC }
  - { offset: 0x95C1, size: 0x8, addend: 0x0, symName: __ZN5hooks32new_PartyPvpManager__get_allRankEPvS0_, symObjAddr: 0x1618, symBinAddr: 0x9574, symSize: 0x40 }
  - { offset: 0x9673, size: 0x8, addend: 0x0, symName: __ZN5hooks32new_PartyPvpManager__get_allRankEPvS0_, symObjAddr: 0x1618, symBinAddr: 0x9574, symSize: 0x40 }
  - { offset: 0x967B, size: 0x8, addend: 0x0, symName: __ZN5hooks31new_RealPVPManager__get_allRankEPvS0_, symObjAddr: 0x1658, symBinAddr: 0x95B4, symSize: 0x40 }
  - { offset: 0x96D7, size: 0x8, addend: 0x0, symName: __ZN5hooks31new_RealPVPManager__get_allRankEPvS0_, symObjAddr: 0x1658, symBinAddr: 0x95B4, symSize: 0x40 }
  - { offset: 0x96DF, size: 0x8, addend: 0x0, symName: __ZN5hooks37new_NetDirector__Rule_ReqItemByServerEPvP15System_String_oiiS0_, symObjAddr: 0x1698, symBinAddr: 0x95F4, symSize: 0x28 }
  - { offset: 0x973B, size: 0x8, addend: 0x0, symName: __ZN5hooks37new_NetDirector__Rule_ReqItemByServerEPvP15System_String_oiiS0_, symObjAddr: 0x1698, symBinAddr: 0x95F4, symSize: 0x28 }
  - { offset: 0x9743, size: 0x8, addend: 0x0, symName: __Z14patch_at_startv, symObjAddr: 0x16C0, symBinAddr: 0x961C, symSize: 0x1708 }
  - { offset: 0xAB05, size: 0x8, addend: 0x0, symName: ___cxx_global_var_init, symObjAddr: 0x3A98, symBinAddr: 0xB9F4, symSize: 0x94 }
  - { offset: 0xAB0D, size: 0x8, addend: 0x0, symName: ___cxx_global_var_init.1, symObjAddr: 0x3B2C, symBinAddr: 0xBA88, symSize: 0x94 }
  - { offset: 0xAB55, size: 0x8, addend: 0x0, symName: ___cxx_global_var_init.1, symObjAddr: 0x3B2C, symBinAddr: 0xBA88, symSize: 0x94 }
  - { offset: 0xAC70, size: 0x8, addend: 0x0, symName: __Z12InstallHooksv, symObjAddr: 0x0, symBinAddr: 0x7F5C, symSize: 0x10A4 }
  - { offset: 0xAC78, size: 0x8, addend: 0x0, symName: __ZN5hooks33new_PlayerInfo__set_amountOfCoinsEPviS0_, symObjAddr: 0x10A4, symBinAddr: 0x9000, symSize: 0x8C }
  - { offset: 0xC268, size: 0x8, addend: 0x0, symName: __Z14patch_at_startv, symObjAddr: 0x16C0, symBinAddr: 0x961C, symSize: 0x1708 }
  - { offset: 0xC270, size: 0x8, addend: 0x0, symName: __Z10Initializev, symObjAddr: 0x2DC8, symBinAddr: 0xAD24, symSize: 0x18 }
  - { offset: 0xE837, size: 0x8, addend: 0x0, symName: __Z10Initializev, symObjAddr: 0x2DC8, symBinAddr: 0xAD24, symSize: 0x18 }
  - { offset: 0xE83F, size: 0x8, addend: 0x0, symName: __Z5setupv, symObjAddr: 0x2DE0, symBinAddr: 0xAD3C, symSize: 0x4 }
  - { offset: 0xE852, size: 0x8, addend: 0x0, symName: __Z5setupv, symObjAddr: 0x2DE0, symBinAddr: 0xAD3C, symSize: 0x4 }
  - { offset: 0xE85A, size: 0x8, addend: 0x0, symName: __Z9setupMenuv, symObjAddr: 0x2DE4, symBinAddr: 0xAD40, symSize: 0xC }
  - { offset: 0xE870, size: 0x8, addend: 0x0, symName: __Z9setupMenuv, symObjAddr: 0x2DE4, symBinAddr: 0xAD40, symSize: 0xC }
  - { offset: 0xE878, size: 0x8, addend: 0x0, symName: __ZL24_logosLocalCtor_fa9210c8iPPcS0_, symObjAddr: 0x2DF0, symBinAddr: 0xAD4C, symSize: 0x34 }
  - { offset: 0xE88B, size: 0x8, addend: 0x0, symName: __ZL24_logosLocalCtor_fa9210c8iPPcS0_, symObjAddr: 0x2DF0, symBinAddr: 0xAD4C, symSize: 0x34 }
  - { offset: 0xE893, size: 0x8, addend: 0x0, symName: __ZL18didFinishLaunchingP22__CFNotificationCenterPvPK10__CFStringPKvPK14__CFDictionary, symObjAddr: 0x2E24, symBinAddr: 0xAD80, symSize: 0x68 }
  - { offset: 0xE8E3, size: 0x8, addend: 0x0, symName: __ZL18didFinishLaunchingP22__CFNotificationCenterPvPK10__CFStringPKvPK14__CFDictionary, symObjAddr: 0x2E24, symBinAddr: 0xAD80, symSize: 0x68 }
  - { offset: 0xE8EB, size: 0x8, addend: 0x0, symName: __ZNSt3__112basic_stringIcNS_11char_traitsIcEENS_9allocatorIcEEEC2B8nn200100ILi0EEEPKc, symObjAddr: 0x2E8C, symBinAddr: 0xADE8, symSize: 0xA4 }
  - { offset: 0xEB39, size: 0x8, addend: 0x0, symName: __ZNSt3__112basic_stringIcNS_11char_traitsIcEENS_9allocatorIcEEEC2B8nn200100ILi0EEEPKc, symObjAddr: 0x2E8C, symBinAddr: 0xADE8, symSize: 0xA4 }
  - { offset: 0xEB41, size: 0x8, addend: 0x0, symName: __ZNSt3__112basic_stringIcNS_11char_traitsIcEENS_9allocatorIcEEE20__throw_length_errorB8nn200100Ev, symObjAddr: 0x2F30, symBinAddr: 0xAE8C, symSize: 0xC }
  - { offset: 0xEE61, size: 0x8, addend: 0x0, symName: __ZNSt3__112basic_stringIcNS_11char_traitsIcEENS_9allocatorIcEEE20__throw_length_errorB8nn200100Ev, symObjAddr: 0x2F30, symBinAddr: 0xAE8C, symSize: 0xC }
  - { offset: 0xEE69, size: 0x8, addend: 0x0, symName: __ZSt28__throw_bad_array_new_lengthB8nn200100v, symObjAddr: 0x2F3C, symBinAddr: 0xAE98, symSize: 0xC }
  - { offset: 0xEE8C, size: 0x8, addend: 0x0, symName: __ZSt28__throw_bad_array_new_lengthB8nn200100v, symObjAddr: 0x2F3C, symBinAddr: 0xAE98, symSize: 0xC }
  - { offset: 0xEFB0, size: 0x8, addend: 0x0, symName: __ZN15System_String_o16set_utf8_to_thisENSt3__112basic_stringIcNS0_11char_traitsIcEENS0_9allocatorIcEEEE, symObjAddr: 0x2F48, symBinAddr: 0xAEA4, symSize: 0x90 }
  - { offset: 0xEFB8, size: 0x8, addend: 0x0, symName: __Z15utf8_to_utf16leRKNSt3__112basic_stringIcNS_11char_traitsIcEENS_9allocatorIcEEEEbPb, symObjAddr: 0x2FD8, symBinAddr: 0xAF34, symSize: 0x208 }
  - { offset: 0xF23B, size: 0x8, addend: 0x0, symName: __Z15utf8_to_utf16leRKNSt3__112basic_stringIcNS_11char_traitsIcEENS_9allocatorIcEEEEbPb, symObjAddr: 0x2FD8, symBinAddr: 0xAF34, symSize: 0x208 }
  - { offset: 0xF243, size: 0x8, addend: 0x0, symName: __ZNSt3__112basic_stringIDsNS_11char_traitsIDsEENS_9allocatorIDsEEE7reserveEm, symObjAddr: 0x31E0, symBinAddr: 0xB13C, symSize: 0x194 }
  - { offset: 0xF8AB, size: 0x8, addend: 0x0, symName: __ZNSt3__112basic_stringIDsNS_11char_traitsIDsEENS_9allocatorIDsEEE7reserveEm, symObjAddr: 0x31E0, symBinAddr: 0xB13C, symSize: 0x194 }
  - { offset: 0xF8B3, size: 0x8, addend: 0x0, symName: __ZNSt3__112basic_stringIDsNS_11char_traitsIDsEENS_9allocatorIDsEEE9push_backEDs, symObjAddr: 0x3374, symBinAddr: 0xB2D0, symSize: 0xA8 }
  - { offset: 0xFEE0, size: 0x8, addend: 0x0, symName: __ZNSt3__112basic_stringIDsNS_11char_traitsIDsEENS_9allocatorIDsEEE9push_backEDs, symObjAddr: 0x3374, symBinAddr: 0xB2D0, symSize: 0xA8 }
  - { offset: 0xFEE8, size: 0x8, addend: 0x0, symName: __ZNSt3__112basic_stringIDsNS_11char_traitsIDsEENS_9allocatorIDsEEE20__throw_length_errorB8nn200100Ev, symObjAddr: 0x341C, symBinAddr: 0xB378, symSize: 0xC }
  - { offset: 0x10118, size: 0x8, addend: 0x0, symName: __ZNSt3__112basic_stringIDsNS_11char_traitsIDsEENS_9allocatorIDsEEE20__throw_length_errorB8nn200100Ev, symObjAddr: 0x341C, symBinAddr: 0xB378, symSize: 0xC }
  - { offset: 0x10120, size: 0x8, addend: 0x0, symName: __ZNSt3__119__allocate_at_leastB8nn200100INS_9allocatorIDsEEEENS_19__allocation_resultINS_16allocator_traitsIT_E7pointerEEERS5_m, symObjAddr: 0x3428, symBinAddr: 0xB384, symSize: 0x30 }
  - { offset: 0x10143, size: 0x8, addend: 0x0, symName: __ZNSt3__119__allocate_at_leastB8nn200100INS_9allocatorIDsEEEENS_19__allocation_resultINS_16allocator_traitsIT_E7pointerEEERS5_m, symObjAddr: 0x3428, symBinAddr: 0xB384, symSize: 0x30 }
  - { offset: 0x1017D, size: 0x8, addend: 0x0, symName: __ZNSt3__112basic_stringIDsNS_11char_traitsIDsEENS_9allocatorIDsEEE9__grow_byEmmmmmm, symObjAddr: 0x3458, symBinAddr: 0xB3B4, symSize: 0x118 }
  - { offset: 0x10185, size: 0x8, addend: 0x0, symName: __ZNSt3__112basic_stringIcNS_11char_traitsIcEENS_9allocatorIcEEE25__init_copy_ctor_externalEPKcm, symObjAddr: 0x3570, symBinAddr: 0xB4CC, symSize: 0x80 }
  - { offset: 0x10572, size: 0x8, addend: 0x0, symName: __ZNSt3__112basic_stringIcNS_11char_traitsIcEENS_9allocatorIcEEE25__init_copy_ctor_externalEPKcm, symObjAddr: 0x3570, symBinAddr: 0xB4CC, symSize: 0x80 }
  - { offset: 0x1057A, size: 0x8, addend: 0x0, symName: ____ZL18didFinishLaunchingP22__CFNotificationCenterPvPK10__CFStringPKvPK14__CFDictionary_block_invoke, symObjAddr: 0x35F0, symBinAddr: 0xB54C, symSize: 0x2EC }
  - { offset: 0x1091F, size: 0x8, addend: 0x0, symName: ____ZL18didFinishLaunchingP22__CFNotificationCenterPvPK10__CFStringPKvPK14__CFDictionary_block_invoke, symObjAddr: 0x35F0, symBinAddr: 0xB54C, symSize: 0x2EC }
  - { offset: 0x10927, size: 0x8, addend: 0x0, symName: ____ZL18didFinishLaunchingP22__CFNotificationCenterPvPK10__CFStringPKvPK14__CFDictionary_block_invoke_2, symObjAddr: 0x38DC, symBinAddr: 0xB838, symSize: 0x174 }
  - { offset: 0x10B9C, size: 0x8, addend: 0x0, symName: ____ZL18didFinishLaunchingP22__CFNotificationCenterPvPK10__CFStringPKvPK14__CFDictionary_block_invoke_2, symObjAddr: 0x38DC, symBinAddr: 0xB838, symSize: 0x174 }
  - { offset: 0x10BA4, size: 0x8, addend: 0x0, symName: ____ZL18didFinishLaunchingP22__CFNotificationCenterPvPK10__CFStringPKvPK14__CFDictionary_block_invoke_3, symObjAddr: 0x3A50, symBinAddr: 0xB9AC, symSize: 0xC }
  - { offset: 0x10C62, size: 0x8, addend: 0x0, symName: ____ZL18didFinishLaunchingP22__CFNotificationCenterPvPK10__CFStringPKvPK14__CFDictionary_block_invoke_3, symObjAddr: 0x3A50, symBinAddr: 0xB9AC, symSize: 0xC }
  - { offset: 0x10C6A, size: 0x8, addend: 0x0, symName: ____ZL18didFinishLaunchingP22__CFNotificationCenterPvPK10__CFStringPKvPK14__CFDictionary_block_invoke_4, symObjAddr: 0x3A5C, symBinAddr: 0xB9B8, symSize: 0x30 }
  - { offset: 0x10C98, size: 0x8, addend: 0x0, symName: ____ZL18didFinishLaunchingP22__CFNotificationCenterPvPK10__CFStringPKvPK14__CFDictionary_block_invoke_3, symObjAddr: 0x3A50, symBinAddr: 0xB9AC, symSize: 0xC }
  - { offset: 0x10CA0, size: 0x8, addend: 0x0, symName: ____ZL18didFinishLaunchingP22__CFNotificationCenterPvPK10__CFStringPKvPK14__CFDictionary_block_invoke_4, symObjAddr: 0x3A5C, symBinAddr: 0xB9B8, symSize: 0x30 }
  - { offset: 0x10CAD, size: 0x8, addend: 0x0, symName: ____ZL18didFinishLaunchingP22__CFNotificationCenterPvPK10__CFStringPKvPK14__CFDictionary_block_invoke_4, symObjAddr: 0x3A5C, symBinAddr: 0xB9B8, symSize: 0x30 }
  - { offset: 0x10CB5, size: 0x8, addend: 0x0, symName: ____ZL18didFinishLaunchingP22__CFNotificationCenterPvPK10__CFStringPKvPK14__CFDictionary_block_invoke_5, symObjAddr: 0x3A8C, symBinAddr: 0xB9E8, symSize: 0xC }
  - { offset: 0x10CDC, size: 0x8, addend: 0x0, symName: ____ZL18didFinishLaunchingP22__CFNotificationCenterPvPK10__CFStringPKvPK14__CFDictionary_block_invoke_5, symObjAddr: 0x3A8C, symBinAddr: 0xB9E8, symSize: 0xC }
  - { offset: 0x10CE4, size: 0x8, addend: 0x0, symName: ___cxx_global_var_init, symObjAddr: 0x3A98, symBinAddr: 0xB9F4, symSize: 0x94 }
  - { offset: 0x10D12, size: 0x8, addend: 0x0, symName: ____ZL18didFinishLaunchingP22__CFNotificationCenterPvPK10__CFStringPKvPK14__CFDictionary_block_invoke_5, symObjAddr: 0x3A8C, symBinAddr: 0xB9E8, symSize: 0xC }
  - { offset: 0x10D1A, size: 0x8, addend: 0x0, symName: ___cxx_global_var_init, symObjAddr: 0x3A98, symBinAddr: 0xB9F4, symSize: 0x94 }
  - { offset: 0x156A2, size: 0x8, addend: 0x0, symName: "__ZN6Config18加载一次参数E", symObjAddr: 0x16DC, symBinAddr: 0xF7B54, symSize: 0x0 }
  - { offset: 0x22CED, size: 0x8, addend: 0x0, symName: __ZNSt3__112__destroy_atB8nn200100INS_4pairIKNS_12basic_stringIcNS_11char_traitsIcEENS_9allocatorIcEEEES7_EELi0EEEvPT_, symObjAddr: 0x1020, symBinAddr: 0xCA8C, symSize: 0x44 }
  - { offset: 0x22CF5, size: 0x8, addend: 0x0, symName: __ZNSt3__16__treeINS_12__value_typeINS_12basic_stringIcNS_11char_traitsIcEENS_9allocatorIcEEEEbEENS_19__map_value_compareIS7_S8_NS_4lessIS7_EELb1EEENS5_IS8_EEE7destroyEPNS_11__tree_nodeIS8_PvEE, symObjAddr: 0x1064, symBinAddr: 0xCAD0, symSize: 0x50 }
  - { offset: 0x22F4E, size: 0x8, addend: 0x0, symName: __ZNSt3__16__treeINS_12__value_typeINS_12basic_stringIcNS_11char_traitsIcEENS_9allocatorIcEEEEbEENS_19__map_value_compareIS7_S8_NS_4lessIS7_EELb1EEENS5_IS8_EEE7destroyEPNS_11__tree_nodeIS8_PvEE, symObjAddr: 0x1064, symBinAddr: 0xCAD0, symSize: 0x50 }
  - { offset: 0x22F76, size: 0x8, addend: 0x0, symName: __ZNSt3__16__treeINS_12__value_typeINS_12basic_stringIcNS_11char_traitsIcEENS_9allocatorIcEEEEbEENS_19__map_value_compareIS7_S8_NS_4lessIS7_EELb1EEENS5_IS8_EEE7destroyEPNS_11__tree_nodeIS8_PvEE, symObjAddr: 0x1064, symBinAddr: 0xCAD0, symSize: 0x50 }
  - { offset: 0x22F9E, size: 0x8, addend: 0x0, symName: __ZNSt3__16__treeINS_12__value_typeINS_12basic_stringIcNS_11char_traitsIcEENS_9allocatorIcEEEEbEENS_19__map_value_compareIS7_S8_NS_4lessIS7_EELb1EEENS5_IS8_EEE7destroyEPNS_11__tree_nodeIS8_PvEE, symObjAddr: 0x1064, symBinAddr: 0xCAD0, symSize: 0x50 }
  - { offset: 0x22FCF, size: 0x8, addend: 0x0, symName: __ZNSt3__16__treeINS_12__value_typeINS_12basic_stringIcNS_11char_traitsIcEENS_9allocatorIcEEEEbEENS_19__map_value_compareIS7_S8_NS_4lessIS7_EELb1EEENS5_IS8_EEE7destroyEPNS_11__tree_nodeIS8_PvEE, symObjAddr: 0x1064, symBinAddr: 0xCAD0, symSize: 0x50 }
  - { offset: 0x23413, size: 0x8, addend: 0x0, symName: _Entities, symObjAddr: 0x15D0, symBinAddr: 0xF7A48, symSize: 0x0 }
  - { offset: 0x2364F, size: 0x8, addend: 0x0, symName: _Patches, symObjAddr: 0x15F0, symBinAddr: 0xF7A68, symSize: 0x0 }
  - { offset: 0x23AA9, size: 0x8, addend: 0x0, symName: _enabledFeatures, symObjAddr: 0x1610, symBinAddr: 0xF7A88, symSize: 0x0 }
  - { offset: 0x23B9B, size: 0x8, addend: 0x0, symName: _Descriptions, symObjAddr: 0x1630, symBinAddr: 0xF7AA8, symSize: 0x0 }
  - { offset: 0x23FB7, size: 0x8, addend: 0x0, symName: _ChildColor, symObjAddr: 0x1650, symBinAddr: 0xF7AC8, symSize: 0x0 }
  - { offset: 0x23FE5, size: 0x8, addend: 0x0, symName: _BGColor, symObjAddr: 0x1660, symBinAddr: 0xF7AD8, symSize: 0x0 }
  - { offset: 0x23FFF, size: 0x8, addend: 0x0, symName: _IconChildColor, symObjAddr: 0x1670, symBinAddr: 0xF7AE8, symSize: 0x0 }
  - { offset: 0x24019, size: 0x8, addend: 0x0, symName: _InactiveTextColor, symObjAddr: 0x1680, symBinAddr: 0xF7AF8, symSize: 0x0 }
  - { offset: 0x24033, size: 0x8, addend: 0x0, symName: _ActiveTextColor, symObjAddr: 0x1690, symBinAddr: 0xF7B08, symSize: 0x0 }
  - { offset: 0x2404D, size: 0x8, addend: 0x0, symName: _GrabColor, symObjAddr: 0x16A0, symBinAddr: 0xF7B18, symSize: 0x0 }
  - { offset: 0x24067, size: 0x8, addend: 0x0, symName: _childVisibilityMap, symObjAddr: 0x466C0, symBinAddr: 0x37E450, symSize: 0x0 }
  - { offset: 0x243EA, size: 0x8, addend: 0x0, symName: _animation_text, symObjAddr: 0x16B0, symBinAddr: 0xF7B28, symSize: 0x0 }
  - { offset: 0x24404, size: 0x8, addend: 0x0, symName: _speed, symObjAddr: 0x16B4, symBinAddr: 0xF7B2C, symSize: 0x0 }
  - { offset: 0x2441E, size: 0x8, addend: 0x0, symName: _animationSpeed, symObjAddr: 0x16B8, symBinAddr: 0xF7B30, symSize: 0x0 }
  - { offset: 0x24438, size: 0x8, addend: 0x0, symName: _newChildVisible, symObjAddr: 0x466D8, symBinAddr: 0x37E468, symSize: 0x0 }
  - { offset: 0x24452, size: 0x8, addend: 0x0, symName: _ToggleAnimations, symObjAddr: 0x466D9, symBinAddr: 0x37E469, symSize: 0x0 }
  - { offset: 0x2446C, size: 0x8, addend: 0x0, symName: _baseimage, symObjAddr: 0x16C0, symBinAddr: 0xF7B38, symSize: 0x0 }
  - { offset: 0x24475, size: 0x8, addend: 0x0, symName: __Z8LoadMenuv, symObjAddr: 0x584, symBinAddr: 0xC0A0, symSize: 0x7BC }
  - { offset: 0x2447D, size: 0x8, addend: 0x0, symName: ____Z8LoadMenuv_block_invoke, symObjAddr: 0xD40, symBinAddr: 0xC85C, symSize: 0x68 }
  - { offset: 0x244A4, size: 0x8, addend: 0x0, symName: __ZZ8LoadMenuvE9onceToken, symObjAddr: 0x466E0, symBinAddr: 0x37E548, symSize: 0x0 }
  - { offset: 0x244BF, size: 0x8, addend: 0x0, symName: __ZZ8LoadMenuvE12currentWidth, symObjAddr: 0x466F8, symBinAddr: 0x37E560, symSize: 0x0 }
  - { offset: 0x24D91, size: 0x8, addend: 0x0, symName: __ZL12targetOffset, symObjAddr: 0x16C8, symBinAddr: 0xF7B40, symSize: 0x0 }
  - { offset: 0x24DAF, size: 0x8, addend: 0x0, symName: __ZL12columnOffset, symObjAddr: 0x16CC, symBinAddr: 0xF7B44, symSize: 0x0 }
  - { offset: 0x24DCD, size: 0x8, addend: 0x0, symName: __ZL11sidebarTab0, symObjAddr: 0x466E8, symBinAddr: 0x37E550, symSize: 0x0 }
  - { offset: 0x24DF2, size: 0x8, addend: 0x0, symName: __ZL10PageNumber, symObjAddr: 0x466EC, symBinAddr: 0x37E554, symSize: 0x0 }
  - { offset: 0x24E10, size: 0x8, addend: 0x0, symName: __ZL8position, symObjAddr: 0x16D0, symBinAddr: 0xF7B48, symSize: 0x0 }
  - { offset: 0x24E2E, size: 0x8, addend: 0x0, symName: __ZL11animationEx, symObjAddr: 0x466F0, symBinAddr: 0x37E558, symSize: 0x0 }
  - { offset: 0x24E52, size: 0x8, addend: 0x0, symName: __ZL11sidebarTab1, symObjAddr: 0x466F1, symBinAddr: 0x37E559, symSize: 0x0 }
  - { offset: 0x24E76, size: 0x8, addend: 0x0, symName: __ZL11sidebarTab2, symObjAddr: 0x466F2, symBinAddr: 0x37E55A, symSize: 0x0 }
  - { offset: 0x24E9A, size: 0x8, addend: 0x0, symName: __ZL11sidebarTab3, symObjAddr: 0x466F3, symBinAddr: 0x37E55B, symSize: 0x0 }
  - { offset: 0x24EBE, size: 0x8, addend: 0x0, symName: __ZL11sidebarTab4, symObjAddr: 0x466F4, symBinAddr: 0x37E55C, symSize: 0x0 }
  - { offset: 0x24EE2, size: 0x8, addend: 0x0, symName: __ZL17deepFadeAnimation, symObjAddr: 0x16D4, symBinAddr: 0xF7B4C, symSize: 0x0 }
  - { offset: 0x24F00, size: 0x8, addend: 0x0, symName: __ZL15animationButton, symObjAddr: 0x16D8, symBinAddr: 0xF7B50, symSize: 0x0 }
  - { offset: 0x24F79, size: 0x8, addend: 0x0, symName: ___cxx_global_var_init, symObjAddr: 0x10C8, symBinAddr: 0xCB20, symSize: 0x94 }
  - { offset: 0x24F81, size: 0x8, addend: 0x0, symName: ___cxx_global_var_init.1, symObjAddr: 0x115C, symBinAddr: 0xCBB4, symSize: 0x94 }
  - { offset: 0x24FC9, size: 0x8, addend: 0x0, symName: ___cxx_global_var_init.1, symObjAddr: 0x115C, symBinAddr: 0xCBB4, symSize: 0x94 }
  - { offset: 0x24FD1, size: 0x8, addend: 0x0, symName: ___cxx_global_var_init.2, symObjAddr: 0x11F0, symBinAddr: 0xCC48, symSize: 0x64 }
  - { offset: 0x25064, size: 0x8, addend: 0x0, symName: ___cxx_global_var_init.2, symObjAddr: 0x11F0, symBinAddr: 0xCC48, symSize: 0x64 }
  - { offset: 0x2506C, size: 0x8, addend: 0x0, symName: ___cxx_global_var_init.3, symObjAddr: 0x1254, symBinAddr: 0xCCAC, symSize: 0x64 }
  - { offset: 0x2520A, size: 0x8, addend: 0x0, symName: __ZNSt3__16vectorI6EntityNS_9allocatorIS1_EEED1B8nn200100Ev, symObjAddr: 0x0, symBinAddr: 0xBB1C, symSize: 0x30 }
  - { offset: 0x25212, size: 0x8, addend: 0x0, symName: __ZNSt3__16vectorI11MemoryPatchNS_9allocatorIS1_EEED1B8nn200100Ev, symObjAddr: 0x30, symBinAddr: 0xBB4C, symSize: 0x34 }
  - { offset: 0x253EF, size: 0x8, addend: 0x0, symName: ___cxx_global_var_init.3, symObjAddr: 0x1254, symBinAddr: 0xCCAC, symSize: 0x64 }
  - { offset: 0x253F7, size: 0x8, addend: 0x0, symName: ___cxx_global_var_init.4, symObjAddr: 0x12B8, symBinAddr: 0xCD10, symSize: 0x64 }
  - { offset: 0x254E6, size: 0x8, addend: 0x0, symName: __ZNSt3__16vectorI11MemoryPatchNS_9allocatorIS1_EEED1B8nn200100Ev, symObjAddr: 0x30, symBinAddr: 0xBB4C, symSize: 0x34 }
  - { offset: 0x254EE, size: 0x8, addend: 0x0, symName: __ZNSt3__16vectorINS_12basic_stringIcNS_11char_traitsIcEENS_9allocatorIcEEEENS4_IS6_EEED1B8nn200100Ev, symObjAddr: 0x64, symBinAddr: 0xBB80, symSize: 0x34 }
  - { offset: 0x255F3, size: 0x8, addend: 0x0, symName: ___cxx_global_var_init.4, symObjAddr: 0x12B8, symBinAddr: 0xCD10, symSize: 0x64 }
  - { offset: 0x255FB, size: 0x8, addend: 0x0, symName: ___cxx_global_var_init.5, symObjAddr: 0x131C, symBinAddr: 0xCD74, symSize: 0x6C }
  - { offset: 0x256EA, size: 0x8, addend: 0x0, symName: __ZNSt3__16vectorINS_12basic_stringIcNS_11char_traitsIcEENS_9allocatorIcEEEENS4_IS6_EEED1B8nn200100Ev, symObjAddr: 0x64, symBinAddr: 0xBB80, symSize: 0x34 }
  - { offset: 0x256F2, size: 0x8, addend: 0x0, symName: __ZNSt3__13mapINS_12basic_stringIcNS_11char_traitsIcEENS_9allocatorIcEEEES6_NS_4lessIS6_EENS4_INS_4pairIKS6_S6_EEEEED1B8nn200100Ev, symObjAddr: 0x98, symBinAddr: 0xBBB4, symSize: 0x28 }
  - { offset: 0x25868, size: 0x8, addend: 0x0, symName: ___cxx_global_var_init.5, symObjAddr: 0x131C, symBinAddr: 0xCD74, symSize: 0x6C }
  - { offset: 0x25870, size: 0x8, addend: 0x0, symName: __GLOBAL__sub_I_Menu.mm, symObjAddr: 0x1388, symBinAddr: 0xCDE0, symSize: 0x50 }
  - { offset: 0x259BB, size: 0x8, addend: 0x0, symName: __ZNSt3__13mapINS_12basic_stringIcNS_11char_traitsIcEENS_9allocatorIcEEEES6_NS_4lessIS6_EENS4_INS_4pairIKS6_S6_EEEEED1B8nn200100Ev, symObjAddr: 0x98, symBinAddr: 0xBBB4, symSize: 0x28 }
  - { offset: 0x259C3, size: 0x8, addend: 0x0, symName: __ZNSt3__13mapINS_12basic_stringIcNS_11char_traitsIcEENS_9allocatorIcEEEEbNS_4lessIS6_EENS4_INS_4pairIKS6_bEEEEED1B8nn200100Ev, symObjAddr: 0xC0, symBinAddr: 0xBBDC, symSize: 0x28 }
  - { offset: 0x25B36, size: 0x8, addend: 0x0, symName: __ZNSt3__13mapINS_12basic_stringIcNS_11char_traitsIcEENS_9allocatorIcEEEEbNS_4lessIS6_EENS4_INS_4pairIKS6_bEEEEED1B8nn200100Ev, symObjAddr: 0xC0, symBinAddr: 0xBBDC, symSize: 0x28 }
  - { offset: 0x25B3E, size: 0x8, addend: 0x0, symName: __Z9SetStylesv, symObjAddr: 0xE8, symBinAddr: 0xBC04, symSize: 0x360 }
  - { offset: 0x25F63, size: 0x8, addend: 0x0, symName: __Z9SetStylesv, symObjAddr: 0xE8, symBinAddr: 0xBC04, symSize: 0x360 }
  - { offset: 0x25F6B, size: 0x8, addend: 0x0, symName: __Z13SetRigelStylev, symObjAddr: 0x448, symBinAddr: 0xBF64, symSize: 0x13C }
  - { offset: 0x2609B, size: 0x8, addend: 0x0, symName: __Z13SetRigelStylev, symObjAddr: 0x448, symBinAddr: 0xBF64, symSize: 0x13C }
  - { offset: 0x260A3, size: 0x8, addend: 0x0, symName: __Z8LoadMenuv, symObjAddr: 0x584, symBinAddr: 0xC0A0, symSize: 0x7BC }
  - { offset: 0x2642C, size: 0x8, addend: 0x0, symName: ____Z8LoadMenuv_block_invoke, symObjAddr: 0xD40, symBinAddr: 0xC85C, symSize: 0x68 }
  - { offset: 0x26434, size: 0x8, addend: 0x0, symName: __ZN7Console6addLogERKNSt3__112basic_stringIcNS0_11char_traitsIcEENS0_9allocatorIcEEEEb, symObjAddr: 0xDA8, symBinAddr: 0xC8C4, symSize: 0x84 }
  - { offset: 0x26BF2, size: 0x8, addend: 0x0, symName: __ZN7Console6addLogERKNSt3__112basic_stringIcNS0_11char_traitsIcEENS0_9allocatorIcEEEEb, symObjAddr: 0xDA8, symBinAddr: 0xC8C4, symSize: 0x84 }
  - { offset: 0x26E6F, size: 0x8, addend: 0x0, symName: __ZNSt3__16vectorI11MemoryPatchNS_9allocatorIS1_EEE16__destroy_vectorclB8nn200100Ev, symObjAddr: 0xEDC, symBinAddr: 0xC948, symSize: 0x70 }
  - { offset: 0x26E77, size: 0x8, addend: 0x0, symName: __ZNSt3__16vectorINS_12basic_stringIcNS_11char_traitsIcEENS_9allocatorIcEEEENS4_IS6_EEE16__destroy_vectorclB8nn200100Ev, symObjAddr: 0xF4C, symBinAddr: 0xC9B8, symSize: 0x40 }
  - { offset: 0x270C5, size: 0x8, addend: 0x0, symName: __ZNSt3__16vectorINS_12basic_stringIcNS_11char_traitsIcEENS_9allocatorIcEEEENS4_IS6_EEE16__destroy_vectorclB8nn200100Ev, symObjAddr: 0xF4C, symBinAddr: 0xC9B8, symSize: 0x40 }
  - { offset: 0x270CD, size: 0x8, addend: 0x0, symName: __ZNSt3__16vectorINS_12basic_stringIcNS_11char_traitsIcEENS_9allocatorIcEEEENS4_IS6_EEE5clearB8nn200100Ev, symObjAddr: 0xF8C, symBinAddr: 0xC9F8, symSize: 0x4C }
  - { offset: 0x27273, size: 0x8, addend: 0x0, symName: __ZNSt3__16vectorINS_12basic_stringIcNS_11char_traitsIcEENS_9allocatorIcEEEENS4_IS6_EEE5clearB8nn200100Ev, symObjAddr: 0xF8C, symBinAddr: 0xC9F8, symSize: 0x4C }
  - { offset: 0x2727B, size: 0x8, addend: 0x0, symName: __ZNSt3__16__treeINS_12__value_typeINS_12basic_stringIcNS_11char_traitsIcEENS_9allocatorIcEEEES7_EENS_19__map_value_compareIS7_S8_NS_4lessIS7_EELb1EEENS5_IS8_EEE7destroyEPNS_11__tree_nodeIS8_PvEE, symObjAddr: 0xFD8, symBinAddr: 0xCA44, symSize: 0x48 }
  - { offset: 0x27595, size: 0x8, addend: 0x0, symName: __ZNSt3__16__treeINS_12__value_typeINS_12basic_stringIcNS_11char_traitsIcEENS_9allocatorIcEEEES7_EENS_19__map_value_compareIS7_S8_NS_4lessIS7_EELb1EEENS5_IS8_EEE7destroyEPNS_11__tree_nodeIS8_PvEE, symObjAddr: 0xFD8, symBinAddr: 0xCA44, symSize: 0x48 }
  - { offset: 0x2759D, size: 0x8, addend: 0x0, symName: __ZNSt3__112__destroy_atB8nn200100INS_4pairIKNS_12basic_stringIcNS_11char_traitsIcEENS_9allocatorIcEEEES7_EELi0EEEvPT_, symObjAddr: 0x1020, symBinAddr: 0xCA8C, symSize: 0x44 }
  - { offset: 0x2785F, size: 0x8, addend: 0x0, symName: __ZNSt3__16__treeINS_12__value_typeINS_12basic_stringIcNS_11char_traitsIcEENS_9allocatorIcEEEEbEENS_19__map_value_compareIS7_S8_NS_4lessIS7_EELb1EEENS5_IS8_EEE7destroyEPNS_11__tree_nodeIS8_PvEE, symObjAddr: 0x1064, symBinAddr: 0xCAD0, symSize: 0x50 }
  - { offset: 0x27867, size: 0x8, addend: 0x0, symName: __Z8LoadMenuv.cold.1, symObjAddr: 0x10B4, symBinAddr: 0x8E47C, symSize: 0x14 }
  - { offset: 0x27C4F, size: 0x8, addend: 0x0, symName: __GLOBAL__sub_I_Menu.mm, symObjAddr: 0x1388, symBinAddr: 0xCDE0, symSize: 0x50 }
  - { offset: 0x27D31, size: 0x8, addend: 0x0, symName: __Z8LoadMenuv.cold.1, symObjAddr: 0x10B4, symBinAddr: 0x8E47C, symSize: 0x14 }
  - { offset: 0x27D39, size: 0x8, addend: 0x0, symName: ___cxx_global_var_init, symObjAddr: 0x10C8, symBinAddr: 0xCB20, symSize: 0x94 }
  - { offset: 0x27D54, size: 0x8, addend: 0x0, symName: __Z8LoadMenuv.cold.1, symObjAddr: 0x10B4, symBinAddr: 0x8E47C, symSize: 0x14 }
  - { offset: 0x27D5C, size: 0x8, addend: 0x0, symName: ___cxx_global_var_init, symObjAddr: 0x10C8, symBinAddr: 0xCB20, symSize: 0x94 }
  - { offset: 0x2EF78, size: 0x8, addend: 0x0, symName: "__ZN6Config12重新登录E", symObjAddr: 0x6BD1, symBinAddr: 0xF7B59, symSize: 0x0 }
  - { offset: 0x2EF96, size: 0x8, addend: 0x0, symName: "__ZN6Config12实名认证E", symObjAddr: 0x6BD2, symBinAddr: 0xF7B5A, symSize: 0x0 }
  - { offset: 0x2EFB4, size: 0x8, addend: 0x0, symName: "__ZN6Config9炫跑卡E", symObjAddr: 0x6BD3, symBinAddr: 0xF7B5B, symSize: 0x0 }
  - { offset: 0x2EFD2, size: 0x8, addend: 0x0, symName: "__ZN6Config12广告奖励E", symObjAddr: 0x6BD4, symBinAddr: 0xF7B5C, symSize: 0x0 }
  - { offset: 0x2EFF0, size: 0x8, addend: 0x0, symName: "__ZN6Config12解锁角色E", symObjAddr: 0x6BD5, symBinAddr: 0xF7B5D, symSize: 0x0 }
  - { offset: 0x2F00E, size: 0x8, addend: 0x0, symName: "__ZN6Config12解锁滑板E", symObjAddr: 0x6BD6, symBinAddr: 0xF7B5E, symSize: 0x0 }
  - { offset: 0x2F02C, size: 0x8, addend: 0x0, symName: "__ZN6Config12解锁主题E", symObjAddr: 0x6BD7, symBinAddr: 0xF7B5F, symSize: 0x0 }
  - { offset: 0x2F04A, size: 0x8, addend: 0x0, symName: "__ZN6Config13解锁stickerE", symObjAddr: 0x6BD8, symBinAddr: 0xF7B60, symSize: 0x0 }
  - { offset: 0x2F068, size: 0x8, addend: 0x0, symName: "__ZN6Config12解锁背饰E", symObjAddr: 0x6BD9, symBinAddr: 0xF7B61, symSize: 0x0 }
  - { offset: 0x2F086, size: 0x8, addend: 0x0, symName: "__ZN6Config12无视碰撞E", symObjAddr: 0x6BDD, symBinAddr: 0xF7B65, symSize: 0x0 }
  - { offset: 0x2F0A4, size: 0x8, addend: 0x0, symName: "__ZN6Config18始终可以跳跃E", symObjAddr: 0x6BE0, symBinAddr: 0xF7B68, symSize: 0x0 }
  - { offset: 0x2F0C2, size: 0x8, addend: 0x0, symName: "__ZN6Config12合法提示E", symObjAddr: 0x6BE1, symBinAddr: 0xF7B69, symSize: 0x0 }
  - { offset: 0x2F0E0, size: 0x8, addend: 0x0, symName: "__ZN6Config12显示方框E", symObjAddr: 0x6BE3, symBinAddr: 0xF7B6B, symSize: 0x0 }
  - { offset: 0x2F0FE, size: 0x8, addend: 0x0, symName: "__ZN6Config18修改模型大小E", symObjAddr: 0x6BE4, symBinAddr: 0xF7B6C, symSize: 0x0 }
  - { offset: 0x2F11C, size: 0x8, addend: 0x0, symName: "__ZN6Config21显示已开启功能E", symObjAddr: 0x6BE5, symBinAddr: 0xF7B6D, symSize: 0x0 }
  - { offset: 0x2F13A, size: 0x8, addend: 0x0, symName: "__ZN6Config12始终举报E", symObjAddr: 0x6BE6, symBinAddr: 0xF7B6E, symSize: 0x0 }
  - { offset: 0x2F158, size: 0x8, addend: 0x0, symName: "__ZN6Config12修改昵称E", symObjAddr: 0x6BE8, symBinAddr: 0xF7B70, symSize: 0x0 }
  - { offset: 0x2F176, size: 0x8, addend: 0x0, symName: "__ZN6Config12无视道具E", symObjAddr: 0x6BEA, symBinAddr: 0xF7B72, symSize: 0x0 }
  - { offset: 0x2F194, size: 0x8, addend: 0x0, symName: "__ZN6Config18命中最近目标E", symObjAddr: 0x6BEB, symBinAddr: 0xF7B73, symSize: 0x0 }
  - { offset: 0x2F1B2, size: 0x8, addend: 0x0, symName: "__ZN6Config12自动充能E", symObjAddr: 0x6BEE, symBinAddr: 0xF7B76, symSize: 0x0 }
  - { offset: 0x2F1D0, size: 0x8, addend: 0x0, symName: "__ZN6Config18自动使用滑板E", symObjAddr: 0x6BEF, symBinAddr: 0xF7B77, symSize: 0x0 }
  - { offset: 0x2F1EE, size: 0x8, addend: 0x0, symName: "__ZN6Config12疯狂加速E", symObjAddr: 0x6BF0, symBinAddr: 0xF7B78, symSize: 0x0 }
  - { offset: 0x2F20C, size: 0x8, addend: 0x0, symName: "__ZN6Config21修改成多少钥匙E", symObjAddr: 0x6BF8, symBinAddr: 0xF7B80, symSize: 0x0 }
  - { offset: 0x2F22A, size: 0x8, addend: 0x0, symName: "__ZN6Config18模型大小倍率E", symObjAddr: 0x6C00, symBinAddr: 0xF7B88, symSize: 0x0 }
  - { offset: 0x2F248, size: 0x8, addend: 0x0, symName: "__ZN6Config15修改排名为E", symObjAddr: 0x6C08, symBinAddr: 0xF7B90, symSize: 0x0 }
  - { offset: 0x2F266, size: 0x8, addend: 0x0, symName: "__ZN6Config15速度修改为E", symObjAddr: 0x6C10, symBinAddr: 0xF7B98, symSize: 0x0 }
  - { offset: 0x2F284, size: 0x8, addend: 0x0, symName: "__ZN6Config18使用滑板距离E", symObjAddr: 0x6C14, symBinAddr: 0xF7B9C, symSize: 0x0 }
  - { offset: 0x2F2A2, size: 0x8, addend: 0x0, symName: "__ZN6Config21正在休眠防作弊E", symObjAddr: 0x6C48, symBinAddr: 0xF7BB0, symSize: 0x0 }
  - { offset: 0x3A3BF, size: 0x8, addend: 0x0, symName: __ZNSt3__1L19piecewise_constructE, symObjAddr: 0x7BF8, symBinAddr: 0xA7D10, symSize: 0x0 }
  - { offset: 0x40043, size: 0x8, addend: 0x0, symName: __ZNSt3__1eqB8nn200100IcNS_11char_traitsIcEENS_9allocatorIcEEEEbRKNS_12basic_stringIT_T0_T1_EEPKS6_, symObjAddr: 0xCB0, symBinAddr: 0xDA20, symSize: 0x78 }
  - { offset: 0x4004B, size: 0x8, addend: 0x0, symName: __ZNSt3__16vectorINS_12basic_stringIcNS_11char_traitsIcEENS_9allocatorIcEEEENS4_IS6_EEE6insertENS_11__wrap_iterIPKS6_EEOS6_, symObjAddr: 0xD28, symBinAddr: 0xDA98, symSize: 0x1C0 }
  - { offset: 0x42010, size: 0x8, addend: 0x0, symName: __ZNSt3__119__allocate_at_leastB8nn200100INS_9allocatorI6EntityEEEENS_19__allocation_resultINS_16allocator_traitsIT_E7pointerEEERS6_m, symObjAddr: 0x52B4, symBinAddr: 0x11EE4, symSize: 0x34 }
  - { offset: 0x42018, size: 0x8, addend: 0x0, symName: __ZNSt3__16vectorIyNS_9allocatorIyEEE9push_backB8nn200100EOy, symObjAddr: 0x52E8, symBinAddr: 0x11F18, symSize: 0xDC }
  - { offset: 0x42273, size: 0x8, addend: 0x0, symName: __ZNSt3__119__allocate_at_leastB8nn200100INS_9allocatorIyEEEENS_19__allocation_resultINS_16allocator_traitsIT_E7pointerEEERS5_m, symObjAddr: 0x53D0, symBinAddr: 0x12000, symSize: 0x34 }
  - { offset: 0x4265B, size: 0x8, addend: 0x0, symName: __ZNSt3__127__tree_balance_after_insertB8nn200100IPNS_16__tree_node_baseIPvEEEEvT_S5_, symObjAddr: 0x577C, symBinAddr: 0x12224, symSize: 0x19C }
  - { offset: 0x42663, size: 0x8, addend: 0x0, symName: __ZNSt3__110unique_ptrINS_11__tree_nodeINS_12__value_typeINS_12basic_stringIcNS_11char_traitsIcEENS_9allocatorIcEEEES8_EEPvEENS_22__tree_node_destructorINS6_ISB_EEEEE5resetB8nn200100EPSB_, symObjAddr: 0x5918, symBinAddr: 0x123C0, symSize: 0x48 }
  - { offset: 0x42BC4, size: 0x8, addend: 0x0, symName: __ZNSt3__119__allocate_at_leastB8nn200100INS_9allocatorINS_12basic_stringIcNS_11char_traitsIcEENS1_IcEEEEEEEENS_19__allocation_resultINS_16allocator_traitsIT_E7pointerEEERSA_m, symObjAddr: 0x5AF0, symBinAddr: 0x12598, symSize: 0x44 }
  - { offset: 0x42BCC, size: 0x8, addend: 0x0, symName: __ZNSt3__114__split_bufferINS_12basic_stringIcNS_11char_traitsIcEENS_9allocatorIcEEEERNS4_IS6_EEED2Ev, symObjAddr: 0x5B34, symBinAddr: 0x125DC, symSize: 0x34 }
  - { offset: 0x432C7, size: 0x8, addend: 0x0, symName: __ZNSt3__130__uninitialized_allocator_copyB8nn200100INS_9allocatorINS_12basic_stringIcNS_11char_traitsIcEENS1_IcEEEEEEPKS6_S9_PS6_EET2_RT_T0_T1_SB_, symObjAddr: 0x5FB0, symBinAddr: 0x12A58, symSize: 0x70 }
  - { offset: 0x444A4, size: 0x8, addend: 0x0, symName: _showLogs, symObjAddr: 0x8EE3D, symBinAddr: 0x37E46A, symSize: 0x0 }
  - { offset: 0x444BE, size: 0x8, addend: 0x0, symName: _lightTheme, symObjAddr: 0x6BD0, symBinAddr: 0xF7B58, symSize: 0x0 }
  - { offset: 0x444C7, size: 0x8, addend: 0x0, symName: __Z9ChildViewRKNSt3__13mapINS_12basic_stringIcNS_11char_traitsIcEENS_9allocatorIcEEEEbNS_4lessIS6_EENS4_INS_4pairIKS6_bEEEEEEb, symObjAddr: 0x34CC, symBinAddr: 0x1023C, symSize: 0xBD8 }
  - { offset: 0x444CF, size: 0x8, addend: 0x0, symName: __Z3ESPv, symObjAddr: 0x40A4, symBinAddr: 0x10E14, symSize: 0xBB4 }
  - { offset: 0x444F8, size: 0x8, addend: 0x0, symName: __ZZ9ChildViewRKNSt3__13mapINS_12basic_stringIcNS_11char_traitsIcEENS_9allocatorIcEEEEbNS_4lessIS6_EENS4_INS_4pairIKS6_bEEEEEEbE9scoreText, symObjAddr: 0x8EE40, symBinAddr: 0x37E568, symSize: 0x0 }
  - { offset: 0x462CC, size: 0x8, addend: 0x0, symName: __Z3ESPv, symObjAddr: 0x40A4, symBinAddr: 0x10E14, symSize: 0xBB4 }
  - { offset: 0x462D4, size: 0x8, addend: 0x0, symName: __Z12mainFunctionv, symObjAddr: 0x4C58, symBinAddr: 0x119C8, symSize: 0x240 }
  - { offset: 0x462FD, size: 0x8, addend: 0x0, symName: __ZZ3ESPvE9onceToken, symObjAddr: 0x8EE60, symBinAddr: 0x37E588, symSize: 0x0 }
  - { offset: 0x46318, size: 0x8, addend: 0x0, symName: __ZZ3ESPvE9loopTimer, symObjAddr: 0x8EE68, symBinAddr: 0x37E590, symSize: 0x0 }
  - { offset: 0x46333, size: 0x8, addend: 0x0, symName: __ZZ3ESPvE16legalTime_buffer, symObjAddr: 0x8EE78, symBinAddr: 0x37E5A0, symSize: 0x0 }
  - { offset: 0x4634E, size: 0x8, addend: 0x0, symName: __ZZ3ESPvE18runningTime_buffer, symObjAddr: 0x8EEF8, symBinAddr: 0x37E620, symSize: 0x0 }
  - { offset: 0x46369, size: 0x8, addend: 0x0, symName: __ZZ3ESPvE17compeleted_buffer, symObjAddr: 0x8EF78, symBinAddr: 0x37E6A0, symSize: 0x0 }
  - { offset: 0x46384, size: 0x8, addend: 0x0, symName: __ZZ3ESPvE21predict_finish_buffer, symObjAddr: 0x8EFF8, symBinAddr: 0x37E720, symSize: 0x0 }
  - { offset: 0x4639F, size: 0x8, addend: 0x0, symName: __ZZ3ESPvE21closest_player_buffer, symObjAddr: 0x8F078, symBinAddr: 0x37E7A0, symSize: 0x0 }
  - { offset: 0x474CB, size: 0x8, addend: 0x0, symName: _local_entity_address, symObjAddr: 0x6C18, symBinAddr: 0xF7BA0, symSize: 0x0 }
  - { offset: 0x474E5, size: 0x8, addend: 0x0, symName: _local_entity_field_address, symObjAddr: 0x6C20, symBinAddr: 0xF7BA8, symSize: 0x0 }
  - { offset: 0x47CE3, size: 0x8, addend: 0x0, symName: ___cxx_global_var_init, symObjAddr: 0x6254, symBinAddr: 0x12C68, symSize: 0x94 }
  - { offset: 0x47CEB, size: 0x8, addend: 0x0, symName: ___cxx_global_var_init.1, symObjAddr: 0x62E8, symBinAddr: 0x12CFC, symSize: 0x94 }
  - { offset: 0x47D33, size: 0x8, addend: 0x0, symName: ___cxx_global_var_init.1, symObjAddr: 0x62E8, symBinAddr: 0x12CFC, symSize: 0x94 }
  - { offset: 0x47D3B, size: 0x8, addend: 0x0, symName: ___cxx_global_var_init.2, symObjAddr: 0x637C, symBinAddr: 0x12D90, symSize: 0x64 }
  - { offset: 0x47DCE, size: 0x8, addend: 0x0, symName: ___cxx_global_var_init.2, symObjAddr: 0x637C, symBinAddr: 0x12D90, symSize: 0x64 }
  - { offset: 0x47DD6, size: 0x8, addend: 0x0, symName: ___cxx_global_var_init.3, symObjAddr: 0x63E0, symBinAddr: 0x12DF4, symSize: 0x64 }
  - { offset: 0x47F78, size: 0x8, addend: 0x0, symName: ___cxx_global_var_init.3, symObjAddr: 0x63E0, symBinAddr: 0x12DF4, symSize: 0x64 }
  - { offset: 0x47F80, size: 0x8, addend: 0x0, symName: ___cxx_global_var_init.4, symObjAddr: 0x6444, symBinAddr: 0x12E58, symSize: 0x64 }
  - { offset: 0x48030, size: 0x8, addend: 0x0, symName: ___cxx_global_var_init.4, symObjAddr: 0x6444, symBinAddr: 0x12E58, symSize: 0x64 }
  - { offset: 0x48038, size: 0x8, addend: 0x0, symName: ___cxx_global_var_init.5, symObjAddr: 0x64A8, symBinAddr: 0x12EBC, symSize: 0x6C }
  - { offset: 0x481E3, size: 0x8, addend: 0x0, symName: ___cxx_global_var_init.5, symObjAddr: 0x64A8, symBinAddr: 0x12EBC, symSize: 0x6C }
  - { offset: 0x488DD, size: 0x8, addend: 0x0, symName: __Z22ToggleButtonWithOffsetRNSt3__13mapINS_12basic_stringIcNS_11char_traitsIcEENS_9allocatorIcEEEEbNS_4lessIS6_EENS4_INS_4pairIKS6_bEEEEEEPKcSG_PbNS_6vectorIyNS4_IyEEEENSI_IS6_NS4_IS6_EEEEbS6_b, symObjAddr: 0xC0, symBinAddr: 0xCE30, symSize: 0x5C0 }
  - { offset: 0x488E5, size: 0x8, addend: 0x0, symName: __ZNSt3__16vectorINS_12basic_stringIcNS_11char_traitsIcEENS_9allocatorIcEEEENS4_IS6_EEE9push_backB8nn200100EOS6_, symObjAddr: 0x680, symBinAddr: 0xD3F0, symSize: 0x12C }
  - { offset: 0x4A34A, size: 0x8, addend: 0x0, symName: __ZNSt3__16vectorINS_12basic_stringIcNS_11char_traitsIcEENS_9allocatorIcEEEENS4_IS6_EEE9push_backB8nn200100EOS6_, symObjAddr: 0x680, symBinAddr: 0xD3F0, symSize: 0x12C }
  - { offset: 0x4A352, size: 0x8, addend: 0x0, symName: __Z18SimpleToggleButtonRNSt3__13mapINS_12basic_stringIcNS_11char_traitsIcEENS_9allocatorIcEEEEbNS_4lessIS6_EENS4_INS_4pairIKS6_bEEEEEEPKcSG_PbbS6_b, symObjAddr: 0x7AC, symBinAddr: 0xD51C, symSize: 0x504 }
  - { offset: 0x4A85E, size: 0x8, addend: 0x0, symName: __Z18SimpleToggleButtonRNSt3__13mapINS_12basic_stringIcNS_11char_traitsIcEENS_9allocatorIcEEEEbNS_4lessIS6_EENS4_INS_4pairIKS6_bEEEEEEPKcSG_PbbS6_b, symObjAddr: 0x7AC, symBinAddr: 0xD51C, symSize: 0x504 }
  - { offset: 0x4A866, size: 0x8, addend: 0x0, symName: __ZNSt3__1eqB8nn200100IcNS_11char_traitsIcEENS_9allocatorIcEEEEbRKNS_12basic_stringIT_T0_T1_EEPKS6_, symObjAddr: 0xCB0, symBinAddr: 0xDA20, symSize: 0x78 }
  - { offset: 0x4BE41, size: 0x8, addend: 0x0, symName: __ZNSt3__16vectorINS_12basic_stringIcNS_11char_traitsIcEENS_9allocatorIcEEEENS4_IS6_EEE6insertENS_11__wrap_iterIPKS6_EEOS6_, symObjAddr: 0xD28, symBinAddr: 0xDA98, symSize: 0x1C0 }
  - { offset: 0x4BE49, size: 0x8, addend: 0x0, symName: __Z17Submenu0_PersonalRNSt3__13mapINS_12basic_stringIcNS_11char_traitsIcEENS_9allocatorIcEEEEbNS_4lessIS6_EENS4_INS_4pairIKS6_bEEEEEEbb, symObjAddr: 0xEE8, symBinAddr: 0xDC58, symSize: 0x1008 }
  - { offset: 0x4C4B9, size: 0x8, addend: 0x0, symName: __Z17Submenu0_PersonalRNSt3__13mapINS_12basic_stringIcNS_11char_traitsIcEENS_9allocatorIcEEEEbNS_4lessIS6_EENS4_INS_4pairIKS6_bEEEEEEbb, symObjAddr: 0xEE8, symBinAddr: 0xDC58, symSize: 0x1008 }
  - { offset: 0x4C9F5, size: 0x8, addend: 0x0, symName: __Z17Submenu0_PersonalRNSt3__13mapINS_12basic_stringIcNS_11char_traitsIcEENS_9allocatorIcEEEEbNS_4lessIS6_EENS4_INS_4pairIKS6_bEEEEEEbb, symObjAddr: 0xEE8, symBinAddr: 0xDC58, symSize: 0x1008 }
  - { offset: 0x4C9FD, size: 0x8, addend: 0x0, symName: __Z12Submenu1_AimRNSt3__13mapINS_12basic_stringIcNS_11char_traitsIcEENS_9allocatorIcEEEEbNS_4lessIS6_EENS4_INS_4pairIKS6_bEEEEEEbb, symObjAddr: 0x1EF0, symBinAddr: 0xEC60, symSize: 0x588 }
  - { offset: 0x533E6, size: 0x8, addend: 0x0, symName: __Z12Submenu1_AimRNSt3__13mapINS_12basic_stringIcNS_11char_traitsIcEENS_9allocatorIcEEEEbNS_4lessIS6_EENS4_INS_4pairIKS6_bEEEEEEbb, symObjAddr: 0x1EF0, symBinAddr: 0xEC60, symSize: 0x588 }
  - { offset: 0x533EE, size: 0x8, addend: 0x0, symName: __Z15Submenu2_VisualRNSt3__13mapINS_12basic_stringIcNS_11char_traitsIcEENS_9allocatorIcEEEEbNS_4lessIS6_EENS4_INS_4pairIKS6_bEEEEEEbb, symObjAddr: 0x2478, symBinAddr: 0xF1E8, symSize: 0x230 }
  - { offset: 0x5539A, size: 0x8, addend: 0x0, symName: __Z15Submenu2_VisualRNSt3__13mapINS_12basic_stringIcNS_11char_traitsIcEENS_9allocatorIcEEEEbNS_4lessIS6_EENS4_INS_4pairIKS6_bEEEEEEbb, symObjAddr: 0x2478, symBinAddr: 0xF1E8, symSize: 0x230 }
  - { offset: 0x553A2, size: 0x8, addend: 0x0, symName: __Z15Submenu3_ServerRNSt3__13mapINS_12basic_stringIcNS_11char_traitsIcEENS_9allocatorIcEEEEbNS_4lessIS6_EENS4_INS_4pairIKS6_bEEEEEEbb, symObjAddr: 0x26A8, symBinAddr: 0xF418, symSize: 0xC2C }
  - { offset: 0x55ECA, size: 0x8, addend: 0x0, symName: __Z15Submenu3_ServerRNSt3__13mapINS_12basic_stringIcNS_11char_traitsIcEENS_9allocatorIcEEEEbNS_4lessIS6_EENS4_INS_4pairIKS6_bEEEEEEbb, symObjAddr: 0x26A8, symBinAddr: 0xF418, symSize: 0xC2C }
  - { offset: 0x55ED2, size: 0x8, addend: 0x0, symName: __Z17Submenu4_SettingsRNSt3__13mapINS_12basic_stringIcNS_11char_traitsIcEENS_9allocatorIcEEEEbNS_4lessIS6_EENS4_INS_4pairIKS6_bEEEEEEbb, symObjAddr: 0x32D4, symBinAddr: 0x10044, symSize: 0x190 }
  - { offset: 0x5A767, size: 0x8, addend: 0x0, symName: __Z17Submenu4_SettingsRNSt3__13mapINS_12basic_stringIcNS_11char_traitsIcEENS_9allocatorIcEEEEbNS_4lessIS6_EENS4_INS_4pairIKS6_bEEEEEEbb, symObjAddr: 0x32D4, symBinAddr: 0x10044, symSize: 0x190 }
  - { offset: 0x5A76F, size: 0x8, addend: 0x0, symName: __ZN7Console6renderEv, symObjAddr: 0x3464, symBinAddr: 0x101D4, symSize: 0x68 }
  - { offset: 0x5B322, size: 0x8, addend: 0x0, symName: __ZN7Console6renderEv, symObjAddr: 0x3464, symBinAddr: 0x101D4, symSize: 0x68 }
  - { offset: 0x5B32A, size: 0x8, addend: 0x0, symName: __Z9ChildViewRKNSt3__13mapINS_12basic_stringIcNS_11char_traitsIcEENS_9allocatorIcEEEEbNS_4lessIS6_EENS4_INS_4pairIKS6_bEEEEEEb, symObjAddr: 0x34CC, symBinAddr: 0x1023C, symSize: 0xBD8 }
  - { offset: 0x5B9C5, size: 0x8, addend: 0x0, symName: __Z12mainFunctionv, symObjAddr: 0x4C58, symBinAddr: 0x119C8, symSize: 0x240 }
  - { offset: 0x5B9CD, size: 0x8, addend: 0x0, symName: ____Z3ESPv_block_invoke, symObjAddr: 0x4E98, symBinAddr: 0x11C08, symSize: 0x68 }
  - { offset: 0x5BEB3, size: 0x8, addend: 0x0, symName: ____Z3ESPv_block_invoke, symObjAddr: 0x4E98, symBinAddr: 0x11C08, symSize: 0x68 }
  - { offset: 0x5C611, size: 0x8, addend: 0x0, symName: __ZNSt3__16vectorI6EntityNS_9allocatorIS1_EEE9push_backB8nn200100ERKS1_, symObjAddr: 0x5040, symBinAddr: 0x11C70, symSize: 0xE4 }
  - { offset: 0x5C619, size: 0x8, addend: 0x0, symName: __ZNSt3__16vectorI6EntityNS_9allocatorIS1_EEE18__assign_with_sizeB8nn200100IPKS1_S7_EEvT_T0_l, symObjAddr: 0x5124, symBinAddr: 0x11D54, symSize: 0x14C }
  - { offset: 0x5CD6A, size: 0x8, addend: 0x0, symName: __ZNSt3__16vectorI6EntityNS_9allocatorIS1_EEE18__assign_with_sizeB8nn200100IPKS1_S7_EEvT_T0_l, symObjAddr: 0x5124, symBinAddr: 0x11D54, symSize: 0x14C }
  - { offset: 0x5CD72, size: 0x8, addend: 0x0, symName: __ZNSt3__16vectorI6EntityNS_9allocatorIS1_EEE11__vallocateB8nn200100Em, symObjAddr: 0x5270, symBinAddr: 0x11EA0, symSize: 0x38 }
  - { offset: 0x5D790, size: 0x8, addend: 0x0, symName: __ZNSt3__16vectorI6EntityNS_9allocatorIS1_EEE11__vallocateB8nn200100Em, symObjAddr: 0x5270, symBinAddr: 0x11EA0, symSize: 0x38 }
  - { offset: 0x5D798, size: 0x8, addend: 0x0, symName: __ZNSt3__16vectorI6EntityNS_9allocatorIS1_EEE20__throw_length_errorB8nn200100Ev, symObjAddr: 0x52A8, symBinAddr: 0x11ED8, symSize: 0xC }
  - { offset: 0x5D7EA, size: 0x8, addend: 0x0, symName: __ZNSt3__16vectorI6EntityNS_9allocatorIS1_EEE20__throw_length_errorB8nn200100Ev, symObjAddr: 0x52A8, symBinAddr: 0x11ED8, symSize: 0xC }
  - { offset: 0x5D7F2, size: 0x8, addend: 0x0, symName: __ZNSt3__119__allocate_at_leastB8nn200100INS_9allocatorI6EntityEEEENS_19__allocation_resultINS_16allocator_traitsIT_E7pointerEEERS6_m, symObjAddr: 0x52B4, symBinAddr: 0x11EE4, symSize: 0x34 }
  - { offset: 0x5D815, size: 0x8, addend: 0x0, symName: __ZNSt3__119__allocate_at_leastB8nn200100INS_9allocatorI6EntityEEEENS_19__allocation_resultINS_16allocator_traitsIT_E7pointerEEERS6_m, symObjAddr: 0x52B4, symBinAddr: 0x11EE4, symSize: 0x34 }
  - { offset: 0x5DBDC, size: 0x8, addend: 0x0, symName: __ZNSt3__16vectorIyNS_9allocatorIyEEE9push_backB8nn200100EOy, symObjAddr: 0x52E8, symBinAddr: 0x11F18, symSize: 0xDC }
  - { offset: 0x5DBE4, size: 0x8, addend: 0x0, symName: __ZNSt3__16vectorIyNS_9allocatorIyEEE20__throw_length_errorB8nn200100Ev, symObjAddr: 0x53C4, symBinAddr: 0x11FF4, symSize: 0xC }
  - { offset: 0x5E090, size: 0x8, addend: 0x0, symName: __ZNSt3__16vectorIyNS_9allocatorIyEEE20__throw_length_errorB8nn200100Ev, symObjAddr: 0x53C4, symBinAddr: 0x11FF4, symSize: 0xC }
  - { offset: 0x5E098, size: 0x8, addend: 0x0, symName: __ZNSt3__119__allocate_at_leastB8nn200100INS_9allocatorIyEEEENS_19__allocation_resultINS_16allocator_traitsIT_E7pointerEEERS5_m, symObjAddr: 0x53D0, symBinAddr: 0x12000, symSize: 0x34 }
  - { offset: 0x5E0BB, size: 0x8, addend: 0x0, symName: __ZNSt3__119__allocate_at_leastB8nn200100INS_9allocatorIyEEEENS_19__allocation_resultINS_16allocator_traitsIT_E7pointerEEERS5_m, symObjAddr: 0x53D0, symBinAddr: 0x12000, symSize: 0x34 }
  - { offset: 0x5E62D, size: 0x8, addend: 0x0, symName: __ZNSt3__16__treeINS_12__value_typeINS_12basic_stringIcNS_11char_traitsIcEENS_9allocatorIcEEEES7_EENS_19__map_value_compareIS7_S8_NS_4lessIS7_EELb1EEENS5_IS8_EEE25__emplace_unique_key_argsIS7_JRKNS_21piecewise_construct_tENS_5tupleIJOS7_EEENSJ_IJEEEEEENS_4pairINS_15__tree_iteratorIS8_PNS_11__tree_nodeIS8_PvEElEEbEERKT_DpOT0_, symObjAddr: 0x558C, symBinAddr: 0x12034, symSize: 0x9C }
  - { offset: 0x5E635, size: 0x8, addend: 0x0, symName: __ZNSt3__16__treeINS_12__value_typeINS_12basic_stringIcNS_11char_traitsIcEENS_9allocatorIcEEEES7_EENS_19__map_value_compareIS7_S8_NS_4lessIS7_EELb1EEENS5_IS8_EEE12__find_equalIS7_EERPNS_16__tree_node_baseIPvEERPNS_15__tree_end_nodeISJ_EERKT_, symObjAddr: 0x5628, symBinAddr: 0x120D0, symSize: 0x98 }
  - { offset: 0x5EA94, size: 0x8, addend: 0x0, symName: __ZNSt3__16__treeINS_12__value_typeINS_12basic_stringIcNS_11char_traitsIcEENS_9allocatorIcEEEES7_EENS_19__map_value_compareIS7_S8_NS_4lessIS7_EELb1EEENS5_IS8_EEE12__find_equalIS7_EERPNS_16__tree_node_baseIPvEERPNS_15__tree_end_nodeISJ_EERKT_, symObjAddr: 0x5628, symBinAddr: 0x120D0, symSize: 0x98 }
  - { offset: 0x5EA9C, size: 0x8, addend: 0x0, symName: __ZNSt3__16__treeINS_12__value_typeINS_12basic_stringIcNS_11char_traitsIcEENS_9allocatorIcEEEES7_EENS_19__map_value_compareIS7_S8_NS_4lessIS7_EELb1EEENS5_IS8_EEE16__insert_node_atEPNS_15__tree_end_nodeIPNS_16__tree_node_baseIPvEEEERSJ_SJ_, symObjAddr: 0x56C0, symBinAddr: 0x12168, symSize: 0x54 }
  - { offset: 0x5EBB5, size: 0x8, addend: 0x0, symName: __ZNSt3__16__treeINS_12__value_typeINS_12basic_stringIcNS_11char_traitsIcEENS_9allocatorIcEEEES7_EENS_19__map_value_compareIS7_S8_NS_4lessIS7_EELb1EEENS5_IS8_EEE16__insert_node_atEPNS_15__tree_end_nodeIPNS_16__tree_node_baseIPvEEEERSJ_SJ_, symObjAddr: 0x56C0, symBinAddr: 0x12168, symSize: 0x54 }
  - { offset: 0x5EBBD, size: 0x8, addend: 0x0, symName: __ZNKSt3__14lessINS_12basic_stringIcNS_11char_traitsIcEENS_9allocatorIcEEEEEclB8nn200100ERKS6_S9_, symObjAddr: 0x5714, symBinAddr: 0x121BC, symSize: 0x68 }
  - { offset: 0x5ECF6, size: 0x8, addend: 0x0, symName: __ZNKSt3__14lessINS_12basic_stringIcNS_11char_traitsIcEENS_9allocatorIcEEEEEclB8nn200100ERKS6_S9_, symObjAddr: 0x5714, symBinAddr: 0x121BC, symSize: 0x68 }
  - { offset: 0x5ECFE, size: 0x8, addend: 0x0, symName: __ZNSt3__127__tree_balance_after_insertB8nn200100IPNS_16__tree_node_baseIPvEEEEvT_S5_, symObjAddr: 0x577C, symBinAddr: 0x12224, symSize: 0x19C }
  - { offset: 0x5EF93, size: 0x8, addend: 0x0, symName: __ZNSt3__110unique_ptrINS_11__tree_nodeINS_12__value_typeINS_12basic_stringIcNS_11char_traitsIcEENS_9allocatorIcEEEES8_EEPvEENS_22__tree_node_destructorINS6_ISB_EEEEE5resetB8nn200100EPSB_, symObjAddr: 0x5918, symBinAddr: 0x123C0, symSize: 0x48 }
  - { offset: 0x5EF9B, size: 0x8, addend: 0x0, symName: __ZNSt3__16__treeINS_12__value_typeINS_12basic_stringIcNS_11char_traitsIcEENS_9allocatorIcEEEEbEENS_19__map_value_compareIS7_S8_NS_4lessIS7_EELb1EEENS5_IS8_EEE25__emplace_unique_key_argsIS7_JRKNS_21piecewise_construct_tENS_5tupleIJOS7_EEENSJ_IJEEEEEENS_4pairINS_15__tree_iteratorIS8_PNS_11__tree_nodeIS8_PvEElEEbEERKT_DpOT0_, symObjAddr: 0x5960, symBinAddr: 0x12408, symSize: 0x98 }
  - { offset: 0x5F4BA, size: 0x8, addend: 0x0, symName: __ZNSt3__16__treeINS_12__value_typeINS_12basic_stringIcNS_11char_traitsIcEENS_9allocatorIcEEEEbEENS_19__map_value_compareIS7_S8_NS_4lessIS7_EELb1EEENS5_IS8_EEE25__emplace_unique_key_argsIS7_JRKNS_21piecewise_construct_tENS_5tupleIJOS7_EEENSJ_IJEEEEEENS_4pairINS_15__tree_iteratorIS8_PNS_11__tree_nodeIS8_PvEElEEbEERKT_DpOT0_, symObjAddr: 0x5960, symBinAddr: 0x12408, symSize: 0x98 }
  - { offset: 0x5F4C2, size: 0x8, addend: 0x0, symName: __ZNSt3__16__treeINS_12__value_typeINS_12basic_stringIcNS_11char_traitsIcEENS_9allocatorIcEEEEbEENS_19__map_value_compareIS7_S8_NS_4lessIS7_EELb1EEENS5_IS8_EEE12__find_equalIS7_EERPNS_16__tree_node_baseIPvEERPNS_15__tree_end_nodeISJ_EERKT_, symObjAddr: 0x59F8, symBinAddr: 0x124A0, symSize: 0x98 }
  - { offset: 0x5F8F0, size: 0x8, addend: 0x0, symName: __ZNSt3__16__treeINS_12__value_typeINS_12basic_stringIcNS_11char_traitsIcEENS_9allocatorIcEEEEbEENS_19__map_value_compareIS7_S8_NS_4lessIS7_EELb1EEENS5_IS8_EEE12__find_equalIS7_EERPNS_16__tree_node_baseIPvEERPNS_15__tree_end_nodeISJ_EERKT_, symObjAddr: 0x59F8, symBinAddr: 0x124A0, symSize: 0x98 }
  - { offset: 0x5F8F8, size: 0x8, addend: 0x0, symName: __ZNSt3__16__treeINS_12__value_typeINS_12basic_stringIcNS_11char_traitsIcEENS_9allocatorIcEEEEbEENS_19__map_value_compareIS7_S8_NS_4lessIS7_EELb1EEENS5_IS8_EEE16__insert_node_atEPNS_15__tree_end_nodeIPNS_16__tree_node_baseIPvEEEERSJ_SJ_, symObjAddr: 0x5A90, symBinAddr: 0x12538, symSize: 0x54 }
  - { offset: 0x5FA11, size: 0x8, addend: 0x0, symName: __ZNSt3__16__treeINS_12__value_typeINS_12basic_stringIcNS_11char_traitsIcEENS_9allocatorIcEEEEbEENS_19__map_value_compareIS7_S8_NS_4lessIS7_EELb1EEENS5_IS8_EEE16__insert_node_atEPNS_15__tree_end_nodeIPNS_16__tree_node_baseIPvEEEERSJ_SJ_, symObjAddr: 0x5A90, symBinAddr: 0x12538, symSize: 0x54 }
  - { offset: 0x5FA19, size: 0x8, addend: 0x0, symName: __ZNSt3__16vectorINS_12basic_stringIcNS_11char_traitsIcEENS_9allocatorIcEEEENS4_IS6_EEE20__throw_length_errorB8nn200100Ev, symObjAddr: 0x5AE4, symBinAddr: 0x1258C, symSize: 0xC }
  - { offset: 0x5FA81, size: 0x8, addend: 0x0, symName: __ZNSt3__16vectorINS_12basic_stringIcNS_11char_traitsIcEENS_9allocatorIcEEEENS4_IS6_EEE20__throw_length_errorB8nn200100Ev, symObjAddr: 0x5AE4, symBinAddr: 0x1258C, symSize: 0xC }
  - { offset: 0x5FA89, size: 0x8, addend: 0x0, symName: __ZNSt3__119__allocate_at_leastB8nn200100INS_9allocatorINS_12basic_stringIcNS_11char_traitsIcEENS1_IcEEEEEEEENS_19__allocation_resultINS_16allocator_traitsIT_E7pointerEEERSA_m, symObjAddr: 0x5AF0, symBinAddr: 0x12598, symSize: 0x44 }
  - { offset: 0x5FAAC, size: 0x8, addend: 0x0, symName: __ZNSt3__119__allocate_at_leastB8nn200100INS_9allocatorINS_12basic_stringIcNS_11char_traitsIcEENS1_IcEEEEEEEENS_19__allocation_resultINS_16allocator_traitsIT_E7pointerEEERSA_m, symObjAddr: 0x5AF0, symBinAddr: 0x12598, symSize: 0x44 }
  - { offset: 0x5FB04, size: 0x8, addend: 0x0, symName: __ZNSt3__114__split_bufferINS_12basic_stringIcNS_11char_traitsIcEENS_9allocatorIcEEEERNS4_IS6_EEED2Ev, symObjAddr: 0x5B34, symBinAddr: 0x125DC, symSize: 0x34 }
  - { offset: 0x5FB0C, size: 0x8, addend: 0x0, symName: __ZNSt3__114__split_bufferINS_12basic_stringIcNS_11char_traitsIcEENS_9allocatorIcEEEERNS4_IS6_EEE17__destruct_at_endB8nn200100EPS6_, symObjAddr: 0x5B68, symBinAddr: 0x12610, symSize: 0x54 }
  - { offset: 0x5FC4C, size: 0x8, addend: 0x0, symName: __ZNSt3__114__split_bufferINS_12basic_stringIcNS_11char_traitsIcEENS_9allocatorIcEEEERNS4_IS6_EEE17__destruct_at_endB8nn200100EPS6_, symObjAddr: 0x5B68, symBinAddr: 0x12610, symSize: 0x54 }
  - { offset: 0x5FC54, size: 0x8, addend: 0x0, symName: __ZNKSt3__111__move_implINS_17_ClassicAlgPolicyEEclB8nn200100IPNS_12basic_stringIcNS_11char_traitsIcEENS_9allocatorIcEEEESA_SA_EENS_4pairIT_T1_EESC_T0_SD_, symObjAddr: 0x5BBC, symBinAddr: 0x12664, symSize: 0x70 }
  - { offset: 0x5FC98, size: 0x8, addend: 0x0, symName: __ZNSt3__114__split_bufferINS_12basic_stringIcNS_11char_traitsIcEENS_9allocatorIcEEEERNS4_IS6_EEE17__destruct_at_endB8nn200100EPS6_, symObjAddr: 0x5B68, symBinAddr: 0x12610, symSize: 0x54 }
  - { offset: 0x5FE43, size: 0x8, addend: 0x0, symName: __ZNKSt3__111__move_implINS_17_ClassicAlgPolicyEEclB8nn200100IPNS_12basic_stringIcNS_11char_traitsIcEENS_9allocatorIcEEEESA_SA_EENS_4pairIT_T1_EESC_T0_SD_, symObjAddr: 0x5BBC, symBinAddr: 0x12664, symSize: 0x70 }
  - { offset: 0x5FE4B, size: 0x8, addend: 0x0, symName: __ZNSt3__112basic_stringIcNS_11char_traitsIcEENS_9allocatorIcEEE20__throw_out_of_rangeB8nn200100Ev, symObjAddr: 0x5C2C, symBinAddr: 0x126D4, symSize: 0xC }
  - { offset: 0x600B0, size: 0x8, addend: 0x0, symName: __ZNSt3__112basic_stringIcNS_11char_traitsIcEENS_9allocatorIcEEE20__throw_out_of_rangeB8nn200100Ev, symObjAddr: 0x5C2C, symBinAddr: 0x126D4, symSize: 0xC }
  - { offset: 0x600B8, size: 0x8, addend: 0x0, symName: __ZNSt3__16vectorINS_12basic_stringIcNS_11char_traitsIcEENS_9allocatorIcEEEENS4_IS6_EEE12__move_rangeEPS6_S9_S9_, symObjAddr: 0x5C38, symBinAddr: 0x126E0, symSize: 0x6C }
  - { offset: 0x600DB, size: 0x8, addend: 0x0, symName: __ZNSt3__16vectorINS_12basic_stringIcNS_11char_traitsIcEENS_9allocatorIcEEEENS4_IS6_EEE12__move_rangeEPS6_S9_S9_, symObjAddr: 0x5C38, symBinAddr: 0x126E0, symSize: 0x6C }
  - { offset: 0x600EA, size: 0x8, addend: 0x0, symName: __ZNSt3__16vectorINS_12basic_stringIcNS_11char_traitsIcEENS_9allocatorIcEEEENS4_IS6_EEE12__move_rangeEPS6_S9_S9_, symObjAddr: 0x5C38, symBinAddr: 0x126E0, symSize: 0x6C }
  - { offset: 0x600F2, size: 0x8, addend: 0x0, symName: __ZNSt3__114__split_bufferINS_12basic_stringIcNS_11char_traitsIcEENS_9allocatorIcEEEERNS4_IS6_EEE12emplace_backIJS6_EEEvDpOT_, symObjAddr: 0x5CA4, symBinAddr: 0x1274C, symSize: 0x150 }
  - { offset: 0x6049C, size: 0x8, addend: 0x0, symName: __ZNSt3__114__split_bufferINS_12basic_stringIcNS_11char_traitsIcEENS_9allocatorIcEEEERNS4_IS6_EEE12emplace_backIJS6_EEEvDpOT_, symObjAddr: 0x5CA4, symBinAddr: 0x1274C, symSize: 0x150 }
  - { offset: 0x604A4, size: 0x8, addend: 0x0, symName: __ZNKSt3__120__move_backward_implINS_17_ClassicAlgPolicyEEclB8nn200100IPNS_12basic_stringIcNS_11char_traitsIcEENS_9allocatorIcEEEESA_SA_EENS_4pairIT_T1_EESC_T0_SD_, symObjAddr: 0x5DF4, symBinAddr: 0x1289C, symSize: 0x7C }
  - { offset: 0x60A3A, size: 0x8, addend: 0x0, symName: __ZNKSt3__120__move_backward_implINS_17_ClassicAlgPolicyEEclB8nn200100IPNS_12basic_stringIcNS_11char_traitsIcEENS_9allocatorIcEEEESA_SA_EENS_4pairIT_T1_EESC_T0_SD_, symObjAddr: 0x5DF4, symBinAddr: 0x1289C, symSize: 0x7C }
  - { offset: 0x60A42, size: 0x8, addend: 0x0, symName: __ZNSt3__16vectorIyNS_9allocatorIyEEEC2B8nn200100ESt16initializer_listIyE, symObjAddr: 0x5E70, symBinAddr: 0x12918, symSize: 0x64 }
  - { offset: 0x60F51, size: 0x8, addend: 0x0, symName: __ZNSt3__16vectorIyNS_9allocatorIyEEEC2B8nn200100ESt16initializer_listIyE, symObjAddr: 0x5E70, symBinAddr: 0x12918, symSize: 0x64 }
  - { offset: 0x60F59, size: 0x8, addend: 0x0, symName: __ZNSt3__16vectorIyNS_9allocatorIyEEE11__vallocateB8nn200100Em, symObjAddr: 0x5ED4, symBinAddr: 0x1297C, symSize: 0x38 }
  - { offset: 0x611C8, size: 0x8, addend: 0x0, symName: __ZNSt3__16vectorIyNS_9allocatorIyEEE11__vallocateB8nn200100Em, symObjAddr: 0x5ED4, symBinAddr: 0x1297C, symSize: 0x38 }
  - { offset: 0x611D0, size: 0x8, addend: 0x0, symName: __ZNSt3__16vectorINS_12basic_stringIcNS_11char_traitsIcEENS_9allocatorIcEEEENS4_IS6_EEE16__init_with_sizeB8nn200100IPKS6_SB_EEvT_T0_m, symObjAddr: 0x5F0C, symBinAddr: 0x129B4, symSize: 0x5C }
  - { offset: 0x6131B, size: 0x8, addend: 0x0, symName: __ZNSt3__16vectorINS_12basic_stringIcNS_11char_traitsIcEENS_9allocatorIcEEEENS4_IS6_EEE16__init_with_sizeB8nn200100IPKS6_SB_EEvT_T0_m, symObjAddr: 0x5F0C, symBinAddr: 0x129B4, symSize: 0x5C }
  - { offset: 0x61323, size: 0x8, addend: 0x0, symName: __ZNSt3__16vectorINS_12basic_stringIcNS_11char_traitsIcEENS_9allocatorIcEEEENS4_IS6_EEE11__vallocateB8nn200100Em, symObjAddr: 0x5F68, symBinAddr: 0x12A10, symSize: 0x48 }
  - { offset: 0x6147E, size: 0x8, addend: 0x0, symName: __ZNSt3__16vectorINS_12basic_stringIcNS_11char_traitsIcEENS_9allocatorIcEEEENS4_IS6_EEE11__vallocateB8nn200100Em, symObjAddr: 0x5F68, symBinAddr: 0x12A10, symSize: 0x48 }
  - { offset: 0x6149B, size: 0x8, addend: 0x0, symName: __ZNSt3__16vectorINS_12basic_stringIcNS_11char_traitsIcEENS_9allocatorIcEEEENS4_IS6_EEE11__vallocateB8nn200100Em, symObjAddr: 0x5F68, symBinAddr: 0x12A10, symSize: 0x48 }
  - { offset: 0x614C5, size: 0x8, addend: 0x0, symName: __ZNSt3__16vectorINS_12basic_stringIcNS_11char_traitsIcEENS_9allocatorIcEEEENS4_IS6_EEE11__vallocateB8nn200100Em, symObjAddr: 0x5F68, symBinAddr: 0x12A10, symSize: 0x48 }
  - { offset: 0x614CD, size: 0x8, addend: 0x0, symName: __ZNSt3__130__uninitialized_allocator_copyB8nn200100INS_9allocatorINS_12basic_stringIcNS_11char_traitsIcEENS1_IcEEEEEEPKS6_S9_PS6_EET2_RT_T0_T1_SB_, symObjAddr: 0x5FB0, symBinAddr: 0x12A58, symSize: 0x70 }
  - { offset: 0x61664, size: 0x8, addend: 0x0, symName: __ZNSt3__112basic_stringIcNS_11char_traitsIcEENS_9allocatorIcEEEC2B8nn200100ENS_24__uninitialized_size_tagEmRKS4_, symObjAddr: 0x60A0, symBinAddr: 0x12AC8, symSize: 0x78 }
  - { offset: 0x6166C, size: 0x8, addend: 0x0, symName: __ZNSt3__16__treeINS_12__value_typeINS_12basic_stringIcNS_11char_traitsIcEENS_9allocatorIcEEEES7_EENS_19__map_value_compareIS7_S8_NS_4lessIS7_EELb1EEENS5_IS8_EEE25__emplace_unique_key_argsIS7_JRKNS_21piecewise_construct_tENS_5tupleIJRKS7_EEENSJ_IJEEEEEENS_4pairINS_15__tree_iteratorIS8_PNS_11__tree_nodeIS8_PvEElEEbEERKT_DpOT0_, symObjAddr: 0x6118, symBinAddr: 0x12B40, symSize: 0x94 }
  - { offset: 0x618F7, size: 0x8, addend: 0x0, symName: __ZNSt3__16__treeINS_12__value_typeINS_12basic_stringIcNS_11char_traitsIcEENS_9allocatorIcEEEES7_EENS_19__map_value_compareIS7_S8_NS_4lessIS7_EELb1EEENS5_IS8_EEE25__emplace_unique_key_argsIS7_JRKNS_21piecewise_construct_tENS_5tupleIJRKS7_EEENSJ_IJEEEEEENS_4pairINS_15__tree_iteratorIS8_PNS_11__tree_nodeIS8_PvEElEEbEERKT_DpOT0_, symObjAddr: 0x6118, symBinAddr: 0x12B40, symSize: 0x94 }
  - { offset: 0x618FF, size: 0x8, addend: 0x0, symName: __ZNSt3__16__treeINS_12__value_typeINS_12basic_stringIcNS_11char_traitsIcEENS_9allocatorIcEEEES7_EENS_19__map_value_compareIS7_S8_NS_4lessIS7_EELb1EEENS5_IS8_EEE16__construct_nodeIJRKNS_21piecewise_construct_tENS_5tupleIJRKS7_EEENSJ_IJEEEEEENS_10unique_ptrINS_11__tree_nodeIS8_PvEENS_22__tree_node_destructorINS5_ISR_EEEEEEDpOT_, symObjAddr: 0x61AC, symBinAddr: 0x12BD4, symSize: 0x94 }
  - { offset: 0x61E63, size: 0x8, addend: 0x0, symName: __ZNSt3__16__treeINS_12__value_typeINS_12basic_stringIcNS_11char_traitsIcEENS_9allocatorIcEEEES7_EENS_19__map_value_compareIS7_S8_NS_4lessIS7_EELb1EEENS5_IS8_EEE16__construct_nodeIJRKNS_21piecewise_construct_tENS_5tupleIJRKS7_EEENSJ_IJEEEEEENS_10unique_ptrINS_11__tree_nodeIS8_PvEENS_22__tree_node_destructorINS5_ISR_EEEEEEDpOT_, symObjAddr: 0x61AC, symBinAddr: 0x12BD4, symSize: 0x94 }
  - { offset: 0x61E6B, size: 0x8, addend: 0x0, symName: __Z3ESPv.cold.1, symObjAddr: 0x6240, symBinAddr: 0x8E490, symSize: 0x14 }
  - { offset: 0x621DD, size: 0x8, addend: 0x0, symName: __Z3ESPv.cold.1, symObjAddr: 0x6240, symBinAddr: 0x8E490, symSize: 0x14 }
  - { offset: 0x62205, size: 0x8, addend: 0x0, symName: __Z3ESPv.cold.1, symObjAddr: 0x6240, symBinAddr: 0x8E490, symSize: 0x14 }
  - { offset: 0x62242, size: 0x8, addend: 0x0, symName: __Z3ESPv.cold.1, symObjAddr: 0x6240, symBinAddr: 0x8E490, symSize: 0x14 }
  - { offset: 0x6224A, size: 0x8, addend: 0x0, symName: ___cxx_global_var_init, symObjAddr: 0x6254, symBinAddr: 0x12C68, symSize: 0x94 }
  - { offset: 0x62265, size: 0x8, addend: 0x0, symName: __Z3ESPv.cold.1, symObjAddr: 0x6240, symBinAddr: 0x8E490, symSize: 0x14 }
  - { offset: 0x6226D, size: 0x8, addend: 0x0, symName: ___cxx_global_var_init, symObjAddr: 0x6254, symBinAddr: 0x12C68, symSize: 0x94 }
  - { offset: 0x623BF, size: 0x8, addend: 0x0, symName: __ZN10KittyArm648bit_fromEji, symObjAddr: 0x0, symBinAddr: 0x12F28, symSize: 0xC }
  - { offset: 0x623DC, size: 0x8, addend: 0x0, symName: __ZN10KittyArm648bit_fromEji, symObjAddr: 0x0, symBinAddr: 0x12F28, symSize: 0xC }
  - { offset: 0x623E4, size: 0x8, addend: 0x0, symName: __ZN10KittyArm649bits_fromEjii, symObjAddr: 0xC, symBinAddr: 0x12F34, symSize: 0x14 }
  - { offset: 0x62429, size: 0x8, addend: 0x0, symName: __ZN10KittyArm649bits_fromEjii, symObjAddr: 0xC, symBinAddr: 0x12F34, symSize: 0x14 }
  - { offset: 0x62431, size: 0x8, addend: 0x0, symName: __ZN10KittyArm6411is_insn_adrEj, symObjAddr: 0x20, symBinAddr: 0x12F48, symSize: 0x18 }
  - { offset: 0x62469, size: 0x8, addend: 0x0, symName: __ZN10KittyArm6411is_insn_adrEj, symObjAddr: 0x20, symBinAddr: 0x12F48, symSize: 0x18 }
  - { offset: 0x62471, size: 0x8, addend: 0x0, symName: __ZN10KittyArm6412is_insn_adrpEj, symObjAddr: 0x38, symBinAddr: 0x12F60, symSize: 0x18 }
  - { offset: 0x62492, size: 0x8, addend: 0x0, symName: __ZN10KittyArm6412is_insn_adrpEj, symObjAddr: 0x38, symBinAddr: 0x12F60, symSize: 0x18 }
  - { offset: 0x6249A, size: 0x8, addend: 0x0, symName: __ZN10KittyArm6414decode_adr_immEjPx, symObjAddr: 0x50, symBinAddr: 0x12F78, symSize: 0x58 }
  - { offset: 0x624F1, size: 0x8, addend: 0x0, symName: __ZN10KittyArm6414decode_adr_immEjPx, symObjAddr: 0x50, symBinAddr: 0x12F78, symSize: 0x58 }
  - { offset: 0x624F9, size: 0x8, addend: 0x0, symName: __ZN10KittyArm6417decode_addsub_immEj, symObjAddr: 0xA8, symBinAddr: 0x12FD0, symSize: 0x14 }
  - { offset: 0x625EE, size: 0x8, addend: 0x0, symName: __ZN10KittyArm6417decode_addsub_immEj, symObjAddr: 0xA8, symBinAddr: 0x12FD0, symSize: 0x14 }
  - { offset: 0x625F6, size: 0x8, addend: 0x0, symName: __ZN10KittyArm6410is_insn_ldEj, symObjAddr: 0xBC, symBinAddr: 0x12FE4, symSize: 0x8 }
  - { offset: 0x62651, size: 0x8, addend: 0x0, symName: __ZN10KittyArm6417decode_addsub_immEj, symObjAddr: 0xA8, symBinAddr: 0x12FD0, symSize: 0x14 }
  - { offset: 0x62688, size: 0x8, addend: 0x0, symName: __ZN10KittyArm6410is_insn_ldEj, symObjAddr: 0xBC, symBinAddr: 0x12FE4, symSize: 0x8 }
  - { offset: 0x62690, size: 0x8, addend: 0x0, symName: __ZN10KittyArm6412is_insn_ldstEj, symObjAddr: 0xC4, symBinAddr: 0x12FEC, symSize: 0x18 }
  - { offset: 0x626C2, size: 0x8, addend: 0x0, symName: __ZN10KittyArm6412is_insn_ldstEj, symObjAddr: 0xC4, symBinAddr: 0x12FEC, symSize: 0x18 }
  - { offset: 0x626CA, size: 0x8, addend: 0x0, symName: __ZN10KittyArm6417is_insn_ldst_uimmEj, symObjAddr: 0xDC, symBinAddr: 0x13004, symSize: 0x18 }
  - { offset: 0x626FD, size: 0x8, addend: 0x0, symName: __ZN10KittyArm6417is_insn_ldst_uimmEj, symObjAddr: 0xDC, symBinAddr: 0x13004, symSize: 0x18 }
  - { offset: 0x62705, size: 0x8, addend: 0x0, symName: __ZN10KittyArm6418decode_ldrstr_uimmEjPi, symObjAddr: 0xF4, symBinAddr: 0x1301C, symSize: 0x30 }
  - { offset: 0x6274B, size: 0x8, addend: 0x0, symName: __ZN10KittyArm6418decode_ldrstr_uimmEjPi, symObjAddr: 0xF4, symBinAddr: 0x1301C, symSize: 0x30 }
  - { offset: 0x6287F, size: 0x8, addend: 0x0, symName: __ZN11KittyMemory20setAddressProtectionEPvmi, symObjAddr: 0x0, symBinAddr: 0x1304C, symSize: 0x88 }
  - { offset: 0x628A7, size: 0x8, addend: 0x0, symName: __Z16findMSHookMemoryPvPKvm, symObjAddr: 0x31C, symBinAddr: 0x13368, symSize: 0x8C }
  - { offset: 0x628AF, size: 0x8, addend: 0x0, symName: __ZN11KittyMemory7memReadEPvPKvm, symObjAddr: 0x3A8, symBinAddr: 0x133F4, symSize: 0x4C }
  - { offset: 0x628DE, size: 0x8, addend: 0x0, symName: __ZZ16findMSHookMemoryPvPKvmE7checked, symObjAddr: 0xFF20, symBinAddr: 0x37E820, symSize: 0x0 }
  - { offset: 0x628FE, size: 0x8, addend: 0x0, symName: __ZZ16findMSHookMemoryPvPKvmE5fnPtr, symObjAddr: 0xFF28, symBinAddr: 0x37E828, symSize: 0x0 }
  - { offset: 0x65989, size: 0x8, addend: 0x0, symName: __ZN11KittyMemory20setAddressProtectionEPvmi, symObjAddr: 0x0, symBinAddr: 0x1304C, symSize: 0x88 }
  - { offset: 0x65991, size: 0x8, addend: 0x0, symName: __ZN11KittyMemory11getPageInfoEPvP30vm_region_submap_short_info_64, symObjAddr: 0x88, symBinAddr: 0x130D4, symSize: 0x4C }
  - { offset: 0x65A08, size: 0x8, addend: 0x0, symName: __ZN11KittyMemory11getPageInfoEPvP30vm_region_submap_short_info_64, symObjAddr: 0x88, symBinAddr: 0x130D4, symSize: 0x4C }
  - { offset: 0x65A10, size: 0x8, addend: 0x0, symName: __ZN11KittyMemory8memWriteEPvPKvm, symObjAddr: 0xD4, symBinAddr: 0x13120, symSize: 0x248 }
  - { offset: 0x65ADE, size: 0x8, addend: 0x0, symName: __ZN11KittyMemory8memWriteEPvPKvm, symObjAddr: 0xD4, symBinAddr: 0x13120, symSize: 0x248 }
  - { offset: 0x65AE6, size: 0x8, addend: 0x0, symName: __Z16findMSHookMemoryPvPKvm, symObjAddr: 0x31C, symBinAddr: 0x13368, symSize: 0x8C }
  - { offset: 0x65C61, size: 0x8, addend: 0x0, symName: __ZN11KittyMemory7memReadEPvPKvm, symObjAddr: 0x3A8, symBinAddr: 0x133F4, symSize: 0x4C }
  - { offset: 0x65C69, size: 0x8, addend: 0x0, symName: __ZN11KittyMemory11read2HexStrEPKvm, symObjAddr: 0x3F4, symBinAddr: 0x13440, symSize: 0x114 }
  - { offset: 0x65CE7, size: 0x8, addend: 0x0, symName: __ZN11KittyMemory11read2HexStrEPKvm, symObjAddr: 0x3F4, symBinAddr: 0x13440, symSize: 0x114 }
  - { offset: 0x65CEF, size: 0x8, addend: 0x0, symName: __ZN11KittyMemory11getBaseInfoEv, symObjAddr: 0x508, symBinAddr: 0x13554, symSize: 0x148 }
  - { offset: 0x660CB, size: 0x8, addend: 0x0, symName: __ZN11KittyMemory11getBaseInfoEv, symObjAddr: 0x508, symBinAddr: 0x13554, symSize: 0x148 }
  - { offset: 0x660D3, size: 0x8, addend: 0x0, symName: __ZN11KittyMemory17getMemoryFileInfoERKNSt3__112basic_stringIcNS0_11char_traitsIcEENS0_9allocatorIcEEEE, symObjAddr: 0x650, symBinAddr: 0x1369C, symSize: 0x15C }
  - { offset: 0x665FF, size: 0x8, addend: 0x0, symName: __ZN11KittyMemory17getMemoryFileInfoERKNSt3__112basic_stringIcNS0_11char_traitsIcEENS0_9allocatorIcEEEE, symObjAddr: 0x650, symBinAddr: 0x1369C, symSize: 0x15C }
  - { offset: 0x66607, size: 0x8, addend: 0x0, symName: __ZN11KittyMemory18getAbsoluteAddressEPKcm, symObjAddr: 0x7AC, symBinAddr: 0x137F8, symSize: 0x70 }
  - { offset: 0x66C42, size: 0x8, addend: 0x0, symName: __ZN11KittyMemory18getAbsoluteAddressEPKcm, symObjAddr: 0x7AC, symBinAddr: 0x137F8, symSize: 0x70 }
  - { offset: 0x677E6, size: 0x8, addend: 0x0, symName: __ZNSt3__112basic_stringIcNS_11char_traitsIcEENS_9allocatorIcEEEC2B8nn200100Emc, symObjAddr: 0x8CC, symBinAddr: 0x13868, symSize: 0x9C }
  - { offset: 0x67B83, size: 0x8, addend: 0x0, symName: __ZN12KittyScanner7compareEPKcS1_S1_, symObjAddr: 0x0, symBinAddr: 0x13904, symSize: 0x44 }
  - { offset: 0x6D8ED, size: 0x8, addend: 0x0, symName: __ZNSt3__119__allocate_at_leastB8nn200100INS_9allocatorImEEEENS_19__allocation_resultINS_16allocator_traitsIT_E7pointerEEERS5_m, symObjAddr: 0x630, symBinAddr: 0x13F34, symSize: 0x34 }
  - { offset: 0x6DF15, size: 0x8, addend: 0x0, symName: __ZN12KittyScanner7compareEPKcS1_S1_, symObjAddr: 0x0, symBinAddr: 0x13904, symSize: 0x44 }
  - { offset: 0x6DF1D, size: 0x8, addend: 0x0, symName: __ZN12KittyScanner11findInRangeEmmPKcS1_, symObjAddr: 0x44, symBinAddr: 0x13948, symSize: 0xC0 }
  - { offset: 0x6DF99, size: 0x8, addend: 0x0, symName: __ZN12KittyScanner11findInRangeEmmPKcS1_, symObjAddr: 0x44, symBinAddr: 0x13948, symSize: 0xC0 }
  - { offset: 0x6DFA1, size: 0x8, addend: 0x0, symName: __ZN12KittyScanner12findBytesAllEPK11mach_headerPKcS4_S4_, symObjAddr: 0x104, symBinAddr: 0x13A08, symSize: 0xCC }
  - { offset: 0x6E0B4, size: 0x8, addend: 0x0, symName: __ZN12KittyScanner12findBytesAllEPK11mach_headerPKcS4_S4_, symObjAddr: 0x104, symBinAddr: 0x13A08, symSize: 0xCC }
  - { offset: 0x6E0BC, size: 0x8, addend: 0x0, symName: __ZNSt3__16vectorImNS_9allocatorImEEE9push_backB8nn200100ERKm, symObjAddr: 0x1D0, symBinAddr: 0x13AD4, symSize: 0xDC }
  - { offset: 0x6E1A0, size: 0x8, addend: 0x0, symName: __ZN12KittyScanner12findBytesAllEPK11mach_headerPKcS4_S4_, symObjAddr: 0x104, symBinAddr: 0x13A08, symSize: 0xCC }
  - { offset: 0x6E1C7, size: 0x8, addend: 0x0, symName: __ZN12KittyScanner12findBytesAllEPK11mach_headerPKcS4_S4_, symObjAddr: 0x104, symBinAddr: 0x13A08, symSize: 0xCC }
  - { offset: 0x6E22A, size: 0x8, addend: 0x0, symName: __ZN12KittyScanner14findBytesFirstEPK11mach_headerPKcS4_S4_, symObjAddr: 0x2AC, symBinAddr: 0x13BB0, symSize: 0x78 }
  - { offset: 0x6E232, size: 0x8, addend: 0x0, symName: __ZN12KittyScanner10findHexAllEPK11mach_headerPKcNSt3__112basic_stringIcNS5_11char_traitsIcEENS5_9allocatorIcEEEES4_, symObjAddr: 0x324, symBinAddr: 0x13C28, symSize: 0xEC }
  - { offset: 0x6E2D6, size: 0x8, addend: 0x0, symName: __ZN12KittyScanner10findHexAllEPK11mach_headerPKcNSt3__112basic_stringIcNS5_11char_traitsIcEENS5_9allocatorIcEEEES4_, symObjAddr: 0x324, symBinAddr: 0x13C28, symSize: 0xEC }
  - { offset: 0x6E2DE, size: 0x8, addend: 0x0, symName: __ZN12KittyScanner12findHexFirstEPK11mach_headerPKcNSt3__112basic_stringIcNS5_11char_traitsIcEENS5_9allocatorIcEEEES4_, symObjAddr: 0x410, symBinAddr: 0x13D14, symSize: 0xD0 }
  - { offset: 0x6E389, size: 0x8, addend: 0x0, symName: __ZN12KittyScanner10findHexAllEPK11mach_headerPKcNSt3__112basic_stringIcNS5_11char_traitsIcEENS5_9allocatorIcEEEES4_, symObjAddr: 0x324, symBinAddr: 0x13C28, symSize: 0xEC }
  - { offset: 0x6E3B0, size: 0x8, addend: 0x0, symName: __ZN12KittyScanner10findHexAllEPK11mach_headerPKcNSt3__112basic_stringIcNS5_11char_traitsIcEENS5_9allocatorIcEEEES4_, symObjAddr: 0x324, symBinAddr: 0x13C28, symSize: 0xEC }
  - { offset: 0x6E7C3, size: 0x8, addend: 0x0, symName: __ZN12KittyScanner12findHexFirstEPK11mach_headerPKcNSt3__112basic_stringIcNS5_11char_traitsIcEENS5_9allocatorIcEEEES4_, symObjAddr: 0x410, symBinAddr: 0x13D14, symSize: 0xD0 }
  - { offset: 0x6E7CB, size: 0x8, addend: 0x0, symName: __ZN12KittyScanner11findDataAllEPK11mach_headerPKcPKvm, symObjAddr: 0x4E0, symBinAddr: 0x13DE4, symSize: 0xB0 }
  - { offset: 0x6EAF1, size: 0x8, addend: 0x0, symName: __ZN12KittyScanner11findDataAllEPK11mach_headerPKcPKvm, symObjAddr: 0x4E0, symBinAddr: 0x13DE4, symSize: 0xB0 }
  - { offset: 0x6EB0D, size: 0x8, addend: 0x0, symName: __ZN12KittyScanner11findDataAllEPK11mach_headerPKcPKvm, symObjAddr: 0x4E0, symBinAddr: 0x13DE4, symSize: 0xB0 }
  - { offset: 0x6EB2A, size: 0x8, addend: 0x0, symName: __ZN12KittyScanner11findDataAllEPK11mach_headerPKcPKvm, symObjAddr: 0x4E0, symBinAddr: 0x13DE4, symSize: 0xB0 }
  - { offset: 0x6EB47, size: 0x8, addend: 0x0, symName: __ZN12KittyScanner11findDataAllEPK11mach_headerPKcPKvm, symObjAddr: 0x4E0, symBinAddr: 0x13DE4, symSize: 0xB0 }
  - { offset: 0x6EB6E, size: 0x8, addend: 0x0, symName: __ZN12KittyScanner11findDataAllEPK11mach_headerPKcPKvm, symObjAddr: 0x4E0, symBinAddr: 0x13DE4, symSize: 0xB0 }
  - { offset: 0x6EB96, size: 0x8, addend: 0x0, symName: __ZN12KittyScanner11findDataAllEPK11mach_headerPKcPKvm, symObjAddr: 0x4E0, symBinAddr: 0x13DE4, symSize: 0xB0 }
  - { offset: 0x6EBC7, size: 0x8, addend: 0x0, symName: __ZN12KittyScanner11findDataAllEPK11mach_headerPKcPKvm, symObjAddr: 0x4E0, symBinAddr: 0x13DE4, symSize: 0xB0 }
  - { offset: 0x6EBE6, size: 0x8, addend: 0x0, symName: __ZN12KittyScanner11findDataAllEPK11mach_headerPKcPKvm, symObjAddr: 0x4E0, symBinAddr: 0x13DE4, symSize: 0xB0 }
  - { offset: 0x6EBEE, size: 0x8, addend: 0x0, symName: __ZN12KittyScanner13findDataFirstEPK11mach_headerPKcPKvm, symObjAddr: 0x590, symBinAddr: 0x13E94, symSize: 0x94 }
  - { offset: 0x6EC86, size: 0x8, addend: 0x0, symName: __ZN12KittyScanner11findDataAllEPK11mach_headerPKcPKvm, symObjAddr: 0x4E0, symBinAddr: 0x13DE4, symSize: 0xB0 }
  - { offset: 0x6ECAD, size: 0x8, addend: 0x0, symName: __ZN12KittyScanner11findDataAllEPK11mach_headerPKcPKvm, symObjAddr: 0x4E0, symBinAddr: 0x13DE4, symSize: 0xB0 }
  - { offset: 0x6EF45, size: 0x8, addend: 0x0, symName: __ZN12KittyScanner13findDataFirstEPK11mach_headerPKcPKvm, symObjAddr: 0x590, symBinAddr: 0x13E94, symSize: 0x94 }
  - { offset: 0x6EF4D, size: 0x8, addend: 0x0, symName: __ZNSt3__16vectorImNS_9allocatorImEEE20__throw_length_errorB8nn200100Ev, symObjAddr: 0x624, symBinAddr: 0x13F28, symSize: 0xC }
  - { offset: 0x6F6A0, size: 0x8, addend: 0x0, symName: __ZNSt3__16vectorImNS_9allocatorImEEE9push_backB8nn200100ERKm, symObjAddr: 0x1D0, symBinAddr: 0x13AD4, symSize: 0xDC }
  - { offset: 0x6F6A8, size: 0x8, addend: 0x0, symName: __ZN12KittyScanner14findBytesFirstEPK11mach_headerPKcS4_S4_, symObjAddr: 0x2AC, symBinAddr: 0x13BB0, symSize: 0x78 }
  - { offset: 0x7002D, size: 0x8, addend: 0x0, symName: __ZNSt3__16vectorImNS_9allocatorImEEE20__throw_length_errorB8nn200100Ev, symObjAddr: 0x624, symBinAddr: 0x13F28, symSize: 0xC }
  - { offset: 0x70035, size: 0x8, addend: 0x0, symName: __ZNSt3__119__allocate_at_leastB8nn200100INS_9allocatorImEEEENS_19__allocation_resultINS_16allocator_traitsIT_E7pointerEEERS5_m, symObjAddr: 0x630, symBinAddr: 0x13F34, symSize: 0x34 }
  - { offset: 0x70058, size: 0x8, addend: 0x0, symName: __ZNSt3__119__allocate_at_leastB8nn200100INS_9allocatorImEEEENS_19__allocation_resultINS_16allocator_traitsIT_E7pointerEEERS5_m, symObjAddr: 0x630, symBinAddr: 0x13F34, symSize: 0x34 }
  - { offset: 0x700DE, size: 0x8, addend: 0x0, symName: __ZN10KittyUtils11trim_stringERNSt3__112basic_stringIcNS0_11char_traitsIcEENS0_9allocatorIcEEEE, symObjAddr: 0x0, symBinAddr: 0x13F68, symSize: 0xE0 }
  - { offset: 0x7734F, size: 0x8, addend: 0x0, symName: __ZNSt3__1lsB8nn200100INS_11char_traitsIcEEEERNS_13basic_ostreamIcT_EES6_RKNS_8__iom_t4IcEE, symObjAddr: 0x3F4, symBinAddr: 0x1435C, symSize: 0x84 }
  - { offset: 0x77357, size: 0x8, addend: 0x0, symName: __ZNSt3__118basic_stringstreamIcNS_11char_traitsIcEENS_9allocatorIcEEED1Ev, symObjAddr: 0x478, symBinAddr: 0x143E0, symSize: 0x94 }
  - { offset: 0x77CAE, size: 0x8, addend: 0x0, symName: __ZN10KittyUtils11trim_stringERNSt3__112basic_stringIcNS0_11char_traitsIcEENS0_9allocatorIcEEEE, symObjAddr: 0x0, symBinAddr: 0x13F68, symSize: 0xE0 }
  - { offset: 0x77CB6, size: 0x8, addend: 0x0, symName: __ZN10KittyUtils17validateHexStringERNSt3__112basic_stringIcNS0_11char_traitsIcEENS0_9allocatorIcEEEE, symObjAddr: 0xE0, symBinAddr: 0x14048, symSize: 0xEC }
  - { offset: 0x77D13, size: 0x8, addend: 0x0, symName: __ZN10KittyUtils11trim_stringERNSt3__112basic_stringIcNS0_11char_traitsIcEENS0_9allocatorIcEEEE, symObjAddr: 0x0, symBinAddr: 0x13F68, symSize: 0xE0 }
  - { offset: 0x77D3A, size: 0x8, addend: 0x0, symName: __ZN10KittyUtils11trim_stringERNSt3__112basic_stringIcNS0_11char_traitsIcEENS0_9allocatorIcEEEE, symObjAddr: 0x0, symBinAddr: 0x13F68, symSize: 0xE0 }
  - { offset: 0x77D62, size: 0x8, addend: 0x0, symName: __ZN10KittyUtils11trim_stringERNSt3__112basic_stringIcNS0_11char_traitsIcEENS0_9allocatorIcEEEE, symObjAddr: 0x0, symBinAddr: 0x13F68, symSize: 0xE0 }
  - { offset: 0x77F1F, size: 0x8, addend: 0x0, symName: __ZN10KittyUtils17validateHexStringERNSt3__112basic_stringIcNS0_11char_traitsIcEENS0_9allocatorIcEEEE, symObjAddr: 0xE0, symBinAddr: 0x14048, symSize: 0xEC }
  - { offset: 0x77F7F, size: 0x8, addend: 0x0, symName: __ZN10KittyUtils17validateHexStringERNSt3__112basic_stringIcNS0_11char_traitsIcEENS0_9allocatorIcEEEE, symObjAddr: 0xE0, symBinAddr: 0x14048, symSize: 0xEC }
  - { offset: 0x77F87, size: 0x8, addend: 0x0, symName: __ZN10KittyUtils5toHexEPvmRNSt3__112basic_stringIcNS1_11char_traitsIcEENS1_9allocatorIcEEEE, symObjAddr: 0x1CC, symBinAddr: 0x14134, symSize: 0x158 }
  - { offset: 0x77FC0, size: 0x8, addend: 0x0, symName: __ZN10KittyUtils17validateHexStringERNSt3__112basic_stringIcNS0_11char_traitsIcEENS0_9allocatorIcEEEE, symObjAddr: 0xE0, symBinAddr: 0x14048, symSize: 0xEC }
  - { offset: 0x77FE7, size: 0x8, addend: 0x0, symName: __ZN10KittyUtils17validateHexStringERNSt3__112basic_stringIcNS0_11char_traitsIcEENS0_9allocatorIcEEEE, symObjAddr: 0xE0, symBinAddr: 0x14048, symSize: 0xEC }
  - { offset: 0x7800F, size: 0x8, addend: 0x0, symName: __ZN10KittyUtils17validateHexStringERNSt3__112basic_stringIcNS0_11char_traitsIcEENS0_9allocatorIcEEEE, symObjAddr: 0xE0, symBinAddr: 0x14048, symSize: 0xEC }
  - { offset: 0x7813C, size: 0x8, addend: 0x0, symName: __ZN10KittyUtils5toHexEPvmRNSt3__112basic_stringIcNS1_11char_traitsIcEENS1_9allocatorIcEEEE, symObjAddr: 0x1CC, symBinAddr: 0x14134, symSize: 0x158 }
  - { offset: 0x78144, size: 0x8, addend: 0x0, symName: __ZNSt3__118basic_stringstreamIcNS_11char_traitsIcEENS_9allocatorIcEEEC1B8nn200100Ev, symObjAddr: 0x324, symBinAddr: 0x1428C, symSize: 0xD0 }
  - { offset: 0x7867C, size: 0x8, addend: 0x0, symName: __ZN10KittyUtils7fromHexERKNSt3__112basic_stringIcNS0_11char_traitsIcEENS0_9allocatorIcEEEEPv, symObjAddr: 0x50C, symBinAddr: 0x14474, symSize: 0x188 }
  - { offset: 0x78684, size: 0x8, addend: 0x0, symName: __ZThn16_NSt3__118basic_stringstreamIcNS_11char_traitsIcEENS_9allocatorIcEEED1Ev, symObjAddr: 0x694, symBinAddr: 0x145FC, symSize: 0x98 }
  - { offset: 0x795F2, size: 0x8, addend: 0x0, symName: __ZNSt3__118basic_stringstreamIcNS_11char_traitsIcEENS_9allocatorIcEEEC1B8nn200100Ev, symObjAddr: 0x324, symBinAddr: 0x1428C, symSize: 0xD0 }
  - { offset: 0x795FA, size: 0x8, addend: 0x0, symName: __ZNSt3__1lsB8nn200100INS_11char_traitsIcEEEERNS_13basic_ostreamIcT_EES6_RKNS_8__iom_t4IcEE, symObjAddr: 0x3F4, symBinAddr: 0x1435C, symSize: 0x84 }
  - { offset: 0x798A2, size: 0x8, addend: 0x0, symName: __ZNSt3__118basic_stringstreamIcNS_11char_traitsIcEENS_9allocatorIcEEED1Ev, symObjAddr: 0x478, symBinAddr: 0x143E0, symSize: 0x94 }
  - { offset: 0x798AA, size: 0x8, addend: 0x0, symName: __ZN10KittyUtils7fromHexERKNSt3__112basic_stringIcNS0_11char_traitsIcEENS0_9allocatorIcEEEEPv, symObjAddr: 0x50C, symBinAddr: 0x14474, symSize: 0x188 }
  - { offset: 0x79BC6, size: 0x8, addend: 0x0, symName: __ZThn16_NSt3__118basic_stringstreamIcNS_11char_traitsIcEENS_9allocatorIcEEED1Ev, symObjAddr: 0x694, symBinAddr: 0x145FC, symSize: 0x98 }
  - { offset: 0x79BCE, size: 0x8, addend: 0x0, symName: __ZTv0_n24_NSt3__118basic_stringstreamIcNS_11char_traitsIcEENS_9allocatorIcEEED1Ev, symObjAddr: 0x72C, symBinAddr: 0x14694, symSize: 0x94 }
  - { offset: 0x79BF2, size: 0x8, addend: 0x0, symName: __ZTv0_n24_NSt3__118basic_stringstreamIcNS_11char_traitsIcEENS_9allocatorIcEEED1Ev, symObjAddr: 0x72C, symBinAddr: 0x14694, symSize: 0x94 }
  - { offset: 0x79DEA, size: 0x8, addend: 0x0, symName: __ZTv0_n24_NSt3__118basic_stringstreamIcNS_11char_traitsIcEENS_9allocatorIcEEED1Ev, symObjAddr: 0x72C, symBinAddr: 0x14694, symSize: 0x94 }
  - { offset: 0x79DF2, size: 0x8, addend: 0x0, symName: __ZNSt3__118basic_stringstreamIcNS_11char_traitsIcEENS_9allocatorIcEEED0Ev, symObjAddr: 0x7C0, symBinAddr: 0x14728, symSize: 0x94 }
  - { offset: 0x79E16, size: 0x8, addend: 0x0, symName: __ZNSt3__118basic_stringstreamIcNS_11char_traitsIcEENS_9allocatorIcEEED0Ev, symObjAddr: 0x7C0, symBinAddr: 0x14728, symSize: 0x94 }
  - { offset: 0x7A00C, size: 0x8, addend: 0x0, symName: __ZNSt3__118basic_stringstreamIcNS_11char_traitsIcEENS_9allocatorIcEEED0Ev, symObjAddr: 0x7C0, symBinAddr: 0x14728, symSize: 0x94 }
  - { offset: 0x7A014, size: 0x8, addend: 0x0, symName: __ZThn16_NSt3__118basic_stringstreamIcNS_11char_traitsIcEENS_9allocatorIcEEED0Ev, symObjAddr: 0x854, symBinAddr: 0x147BC, symSize: 0xA0 }
  - { offset: 0x7A261, size: 0x8, addend: 0x0, symName: __ZThn16_NSt3__118basic_stringstreamIcNS_11char_traitsIcEENS_9allocatorIcEEED0Ev, symObjAddr: 0x854, symBinAddr: 0x147BC, symSize: 0xA0 }
  - { offset: 0x7A269, size: 0x8, addend: 0x0, symName: __ZTv0_n24_NSt3__118basic_stringstreamIcNS_11char_traitsIcEENS_9allocatorIcEEED0Ev, symObjAddr: 0x8F4, symBinAddr: 0x1485C, symSize: 0x9C }
  - { offset: 0x7A28D, size: 0x8, addend: 0x0, symName: __ZTv0_n24_NSt3__118basic_stringstreamIcNS_11char_traitsIcEENS_9allocatorIcEEED0Ev, symObjAddr: 0x8F4, symBinAddr: 0x1485C, symSize: 0x9C }
  - { offset: 0x7A4AF, size: 0x8, addend: 0x0, symName: __ZTv0_n24_NSt3__118basic_stringstreamIcNS_11char_traitsIcEENS_9allocatorIcEEED0Ev, symObjAddr: 0x8F4, symBinAddr: 0x1485C, symSize: 0x9C }
  - { offset: 0x7A4B7, size: 0x8, addend: 0x0, symName: __ZNSt3__115basic_stringbufIcNS_11char_traitsIcEENS_9allocatorIcEEED1Ev, symObjAddr: 0x990, symBinAddr: 0x148F8, symSize: 0x58 }
  - { offset: 0x7A4DB, size: 0x8, addend: 0x0, symName: __ZNSt3__115basic_stringbufIcNS_11char_traitsIcEENS_9allocatorIcEEED1Ev, symObjAddr: 0x990, symBinAddr: 0x148F8, symSize: 0x58 }
  - { offset: 0x7A6F9, size: 0x8, addend: 0x0, symName: __ZNSt3__115basic_stringbufIcNS_11char_traitsIcEENS_9allocatorIcEEED1Ev, symObjAddr: 0x990, symBinAddr: 0x148F8, symSize: 0x58 }
  - { offset: 0x7A701, size: 0x8, addend: 0x0, symName: __ZNSt3__115basic_stringbufIcNS_11char_traitsIcEENS_9allocatorIcEEED0Ev, symObjAddr: 0x9E8, symBinAddr: 0x14950, symSize: 0x58 }
  - { offset: 0x7A8D0, size: 0x8, addend: 0x0, symName: __ZNSt3__115basic_stringbufIcNS_11char_traitsIcEENS_9allocatorIcEEED0Ev, symObjAddr: 0x9E8, symBinAddr: 0x14950, symSize: 0x58 }
  - { offset: 0x7A8D8, size: 0x8, addend: 0x0, symName: __ZNSt3__115basic_stringbufIcNS_11char_traitsIcEENS_9allocatorIcEEE7seekoffExNS_8ios_base7seekdirEj, symObjAddr: 0xA40, symBinAddr: 0x149A8, symSize: 0x100 }
  - { offset: 0x7AC91, size: 0x8, addend: 0x0, symName: __ZNSt3__115basic_stringbufIcNS_11char_traitsIcEENS_9allocatorIcEEE7seekoffExNS_8ios_base7seekdirEj, symObjAddr: 0xA40, symBinAddr: 0x149A8, symSize: 0x100 }
  - { offset: 0x7AC99, size: 0x8, addend: 0x0, symName: __ZNSt3__115basic_stringbufIcNS_11char_traitsIcEENS_9allocatorIcEEE7seekposENS_4fposI11__mbstate_tEEj, symObjAddr: 0xB40, symBinAddr: 0x14AA8, symSize: 0x18 }
  - { offset: 0x7AF8E, size: 0x8, addend: 0x0, symName: __ZNSt3__115basic_stringbufIcNS_11char_traitsIcEENS_9allocatorIcEEE7seekposENS_4fposI11__mbstate_tEEj, symObjAddr: 0xB40, symBinAddr: 0x14AA8, symSize: 0x18 }
  - { offset: 0x7AF96, size: 0x8, addend: 0x0, symName: __ZNSt3__115basic_stringbufIcNS_11char_traitsIcEENS_9allocatorIcEEE9underflowEv, symObjAddr: 0xB58, symBinAddr: 0x14AC0, symSize: 0x50 }
  - { offset: 0x7B02E, size: 0x8, addend: 0x0, symName: __ZNSt3__115basic_stringbufIcNS_11char_traitsIcEENS_9allocatorIcEEE9underflowEv, symObjAddr: 0xB58, symBinAddr: 0x14AC0, symSize: 0x50 }
  - { offset: 0x7B036, size: 0x8, addend: 0x0, symName: __ZNSt3__115basic_stringbufIcNS_11char_traitsIcEENS_9allocatorIcEEE9pbackfailEi, symObjAddr: 0xBA8, symBinAddr: 0x14B10, symSize: 0x6C }
  - { offset: 0x7B112, size: 0x8, addend: 0x0, symName: __ZNSt3__115basic_stringbufIcNS_11char_traitsIcEENS_9allocatorIcEEE9pbackfailEi, symObjAddr: 0xBA8, symBinAddr: 0x14B10, symSize: 0x6C }
  - { offset: 0x7B11A, size: 0x8, addend: 0x0, symName: __ZNSt3__115basic_stringbufIcNS_11char_traitsIcEENS_9allocatorIcEEE8overflowEi, symObjAddr: 0xC14, symBinAddr: 0x14B7C, symSize: 0x14C }
  - { offset: 0x7B398, size: 0x8, addend: 0x0, symName: __ZNSt3__115basic_stringbufIcNS_11char_traitsIcEENS_9allocatorIcEEE8overflowEi, symObjAddr: 0xC14, symBinAddr: 0x14B7C, symSize: 0x14C }
  - { offset: 0x7B9BD, size: 0x8, addend: 0x0, symName: __ZNSt3__115basic_stringbufIcNS_11char_traitsIcEENS_9allocatorIcEEE15__init_buf_ptrsB8nn200100Ev, symObjAddr: 0xE10, symBinAddr: 0x14CC8, symSize: 0x104 }
  - { offset: 0x7B9C5, size: 0x8, addend: 0x0, symName: __ZNKSt3__115basic_stringbufIcNS_11char_traitsIcEENS_9allocatorIcEEE3strEv, symObjAddr: 0xF14, symBinAddr: 0x14DCC, symSize: 0x4C }
  - { offset: 0x7BE25, size: 0x8, addend: 0x0, symName: __ZNKSt3__115basic_stringbufIcNS_11char_traitsIcEENS_9allocatorIcEEE3strEv, symObjAddr: 0xF14, symBinAddr: 0x14DCC, symSize: 0x4C }
  - { offset: 0x7BE2D, size: 0x8, addend: 0x0, symName: __ZNSt3__112basic_stringIcNS_11char_traitsIcEENS_9allocatorIcEEE16__init_with_sizeB8nn200100IPcS7_EEvT_T0_m, symObjAddr: 0xF60, symBinAddr: 0x14E18, symSize: 0x9C }
  - { offset: 0x7BF0D, size: 0x8, addend: 0x0, symName: __ZNSt3__112basic_stringIcNS_11char_traitsIcEENS_9allocatorIcEEE16__init_with_sizeB8nn200100IPcS7_EEvT_T0_m, symObjAddr: 0xF60, symBinAddr: 0x14E18, symSize: 0x9C }
  - { offset: 0x7BF28, size: 0x8, addend: 0x0, symName: __ZNSt3__112basic_stringIcNS_11char_traitsIcEENS_9allocatorIcEEE16__init_with_sizeB8nn200100IPcS7_EEvT_T0_m, symObjAddr: 0xF60, symBinAddr: 0x14E18, symSize: 0x9C }
  - { offset: 0x7BF45, size: 0x8, addend: 0x0, symName: __ZNSt3__112basic_stringIcNS_11char_traitsIcEENS_9allocatorIcEEE16__init_with_sizeB8nn200100IPcS7_EEvT_T0_m, symObjAddr: 0xF60, symBinAddr: 0x14E18, symSize: 0x9C }
  - { offset: 0x7C037, size: 0x8, addend: 0x0, symName: __ZNSt3__112basic_stringIcNS_11char_traitsIcEENS_9allocatorIcEEE16__init_with_sizeB8nn200100IPcS7_EEvT_T0_m, symObjAddr: 0xF60, symBinAddr: 0x14E18, symSize: 0x9C }
  - { offset: 0x7C3DD, size: 0x8, addend: 0x0, symName: __ZN12MemoryBackupC2Ev, symObjAddr: 0x0, symBinAddr: 0x14EB4, symSize: 0x10 }
  - { offset: 0x81125, size: 0x8, addend: 0x0, symName: __ZN12MemoryBackupC2Ev, symObjAddr: 0x0, symBinAddr: 0x14EB4, symSize: 0x10 }
  - { offset: 0x8112D, size: 0x8, addend: 0x0, symName: __ZN12MemoryBackupC1Ev, symObjAddr: 0x10, symBinAddr: 0x14EC4, symSize: 0x10 }
  - { offset: 0x8117E, size: 0x8, addend: 0x0, symName: __ZN12MemoryBackupC1Ev, symObjAddr: 0x10, symBinAddr: 0x14EC4, symSize: 0x10 }
  - { offset: 0x81186, size: 0x8, addend: 0x0, symName: __ZN12MemoryBackupD2Ev, symObjAddr: 0x20, symBinAddr: 0x14ED4, symSize: 0x30 }
  - { offset: 0x811BC, size: 0x8, addend: 0x0, symName: __ZN12MemoryBackupC1Ev, symObjAddr: 0x10, symBinAddr: 0x14EC4, symSize: 0x10 }
  - { offset: 0x81367, size: 0x8, addend: 0x0, symName: __ZN12MemoryBackupD2Ev, symObjAddr: 0x20, symBinAddr: 0x14ED4, symSize: 0x30 }
  - { offset: 0x8136F, size: 0x8, addend: 0x0, symName: __ZN12MemoryBackupD1Ev, symObjAddr: 0x50, symBinAddr: 0x14F04, symSize: 0x30 }
  - { offset: 0x81560, size: 0x8, addend: 0x0, symName: __ZN12MemoryBackupD1Ev, symObjAddr: 0x50, symBinAddr: 0x14F04, symSize: 0x30 }
  - { offset: 0x81568, size: 0x8, addend: 0x0, symName: __ZN12MemoryBackupC2EPKcmm, symObjAddr: 0x80, symBinAddr: 0x14F34, symSize: 0xA0 }
  - { offset: 0x81812, size: 0x8, addend: 0x0, symName: __ZN12MemoryBackupC2EPKcmm, symObjAddr: 0x80, symBinAddr: 0x14F34, symSize: 0xA0 }
  - { offset: 0x8181A, size: 0x8, addend: 0x0, symName: __ZN12MemoryBackupC1EPKcmm, symObjAddr: 0x120, symBinAddr: 0x14FD4, symSize: 0x4 }
  - { offset: 0x8194F, size: 0x8, addend: 0x0, symName: __ZN12MemoryBackupC1EPKcmm, symObjAddr: 0x120, symBinAddr: 0x14FD4, symSize: 0x4 }
  - { offset: 0x81957, size: 0x8, addend: 0x0, symName: __ZN12MemoryBackupC2Emm, symObjAddr: 0x124, symBinAddr: 0x14FD8, symSize: 0x58 }
  - { offset: 0x819BD, size: 0x8, addend: 0x0, symName: __ZN12MemoryBackupC2Emm, symObjAddr: 0x124, symBinAddr: 0x14FD8, symSize: 0x58 }
  - { offset: 0x819C5, size: 0x8, addend: 0x0, symName: __ZN12MemoryBackupC1Emm, symObjAddr: 0x17C, symBinAddr: 0x15030, symSize: 0x4 }
  - { offset: 0x81A76, size: 0x8, addend: 0x0, symName: __ZN12MemoryBackupC1Emm, symObjAddr: 0x17C, symBinAddr: 0x15030, symSize: 0x4 }
  - { offset: 0x81A7E, size: 0x8, addend: 0x0, symName: __ZNK12MemoryBackup7isValidEv, symObjAddr: 0x180, symBinAddr: 0x15034, symSize: 0x2C }
  - { offset: 0x81AD2, size: 0x8, addend: 0x0, symName: __ZNK12MemoryBackup7isValidEv, symObjAddr: 0x180, symBinAddr: 0x15034, symSize: 0x2C }
  - { offset: 0x81ADA, size: 0x8, addend: 0x0, symName: __ZNK12MemoryBackup14get_BackupSizeEv, symObjAddr: 0x1AC, symBinAddr: 0x15060, symSize: 0x8 }
  - { offset: 0x81B26, size: 0x8, addend: 0x0, symName: __ZNK12MemoryBackup14get_BackupSizeEv, symObjAddr: 0x1AC, symBinAddr: 0x15060, symSize: 0x8 }
  - { offset: 0x81B2E, size: 0x8, addend: 0x0, symName: __ZNK12MemoryBackup17get_TargetAddressEv, symObjAddr: 0x1B4, symBinAddr: 0x15068, symSize: 0x8 }
  - { offset: 0x81B5B, size: 0x8, addend: 0x0, symName: __ZNK12MemoryBackup17get_TargetAddressEv, symObjAddr: 0x1B4, symBinAddr: 0x15068, symSize: 0x8 }
  - { offset: 0x81B63, size: 0x8, addend: 0x0, symName: __ZN12MemoryBackup7RestoreEv, symObjAddr: 0x1BC, symBinAddr: 0x15070, symSize: 0x48 }
  - { offset: 0x81BB9, size: 0x8, addend: 0x0, symName: __ZN12MemoryBackup7RestoreEv, symObjAddr: 0x1BC, symBinAddr: 0x15070, symSize: 0x48 }
  - { offset: 0x81BC1, size: 0x8, addend: 0x0, symName: __ZNK12MemoryBackup13get_CurrBytesEv, symObjAddr: 0x204, symBinAddr: 0x150B8, symSize: 0x38 }
  - { offset: 0x81C80, size: 0x8, addend: 0x0, symName: __ZNK12MemoryBackup13get_CurrBytesEv, symObjAddr: 0x204, symBinAddr: 0x150B8, symSize: 0x38 }
  - { offset: 0x81C88, size: 0x8, addend: 0x0, symName: __ZNK12MemoryBackup13get_OrigBytesEv, symObjAddr: 0x23C, symBinAddr: 0x150F0, symSize: 0x34 }
  - { offset: 0x81D13, size: 0x8, addend: 0x0, symName: __ZNK12MemoryBackup13get_OrigBytesEv, symObjAddr: 0x23C, symBinAddr: 0x150F0, symSize: 0x34 }
  - { offset: 0x81D3A, size: 0x8, addend: 0x0, symName: __ZNK12MemoryBackup13get_OrigBytesEv, symObjAddr: 0x23C, symBinAddr: 0x150F0, symSize: 0x34 }
  - { offset: 0x81D75, size: 0x8, addend: 0x0, symName: __ZNK12MemoryBackup13get_OrigBytesEv, symObjAddr: 0x23C, symBinAddr: 0x150F0, symSize: 0x34 }
  - { offset: 0x822A6, size: 0x8, addend: 0x0, symName: __ZNSt3__16vectorIhNS_9allocatorIhEEE8__appendEm, symObjAddr: 0x320, symBinAddr: 0x15124, symSize: 0xFC }
  - { offset: 0x822AE, size: 0x8, addend: 0x0, symName: __ZNSt3__16vectorIhNS_9allocatorIhEEE20__throw_length_errorB8nn200100Ev, symObjAddr: 0x41C, symBinAddr: 0x15220, symSize: 0xC }
  - { offset: 0x828D5, size: 0x8, addend: 0x0, symName: __ZNSt3__16vectorIhNS_9allocatorIhEEE20__throw_length_errorB8nn200100Ev, symObjAddr: 0x41C, symBinAddr: 0x15220, symSize: 0xC }
  - { offset: 0x8292D, size: 0x8, addend: 0x0, symName: __ZN11MemoryPatchC2Ev, symObjAddr: 0x0, symBinAddr: 0x1522C, symSize: 0x10 }
  - { offset: 0x86C00, size: 0x8, addend: 0x0, symName: __ZN11MemoryPatchC2Ev, symObjAddr: 0x0, symBinAddr: 0x1522C, symSize: 0x10 }
  - { offset: 0x86C08, size: 0x8, addend: 0x0, symName: __ZN11MemoryPatchC1Ev, symObjAddr: 0x10, symBinAddr: 0x1523C, symSize: 0x10 }
  - { offset: 0x86C59, size: 0x8, addend: 0x0, symName: __ZN11MemoryPatchC1Ev, symObjAddr: 0x10, symBinAddr: 0x1523C, symSize: 0x10 }
  - { offset: 0x86C61, size: 0x8, addend: 0x0, symName: __ZN11MemoryPatchD2Ev, symObjAddr: 0x20, symBinAddr: 0x1524C, symSize: 0x4C }
  - { offset: 0x86C8B, size: 0x8, addend: 0x0, symName: __ZN11MemoryPatchC1Ev, symObjAddr: 0x10, symBinAddr: 0x1523C, symSize: 0x10 }
  - { offset: 0x86E36, size: 0x8, addend: 0x0, symName: __ZN11MemoryPatchD2Ev, symObjAddr: 0x20, symBinAddr: 0x1524C, symSize: 0x4C }
  - { offset: 0x86E3E, size: 0x8, addend: 0x0, symName: __ZN11MemoryPatchD1Ev, symObjAddr: 0x6C, symBinAddr: 0x15298, symSize: 0x4 }
  - { offset: 0x87215, size: 0x8, addend: 0x0, symName: __ZN11MemoryPatchD1Ev, symObjAddr: 0x6C, symBinAddr: 0x15298, symSize: 0x4 }
  - { offset: 0x8721D, size: 0x8, addend: 0x0, symName: __ZN11MemoryPatchC2EmPKvm, symObjAddr: 0x70, symBinAddr: 0x1529C, symSize: 0xA0 }
  - { offset: 0x872F7, size: 0x8, addend: 0x0, symName: __ZN11MemoryPatchC2EmPKvm, symObjAddr: 0x70, symBinAddr: 0x1529C, symSize: 0xA0 }
  - { offset: 0x872FF, size: 0x8, addend: 0x0, symName: __ZN11MemoryPatchC1EmPKvm, symObjAddr: 0x110, symBinAddr: 0x1533C, symSize: 0x4 }
  - { offset: 0x87482, size: 0x8, addend: 0x0, symName: __ZN11MemoryPatchC1EmPKvm, symObjAddr: 0x110, symBinAddr: 0x1533C, symSize: 0x4 }
  - { offset: 0x8748A, size: 0x8, addend: 0x0, symName: __ZN11MemoryPatchC2EPKcmPKvm, symObjAddr: 0x114, symBinAddr: 0x15340, symSize: 0xD8 }
  - { offset: 0x874F0, size: 0x8, addend: 0x0, symName: __ZN11MemoryPatchC2EPKcmPKvm, symObjAddr: 0x114, symBinAddr: 0x15340, symSize: 0xD8 }
  - { offset: 0x874F8, size: 0x8, addend: 0x0, symName: __ZN11MemoryPatchC1EPKcmPKvm, symObjAddr: 0x1EC, symBinAddr: 0x15418, symSize: 0x4 }
  - { offset: 0x8770B, size: 0x8, addend: 0x0, symName: __ZN11MemoryPatchC1EPKcmPKvm, symObjAddr: 0x1EC, symBinAddr: 0x15418, symSize: 0x4 }
  - { offset: 0x87713, size: 0x8, addend: 0x0, symName: __ZN11MemoryPatch13createWithHexEPKcmNSt3__112basic_stringIcNS2_11char_traitsIcEENS2_9allocatorIcEEEE, symObjAddr: 0x1F0, symBinAddr: 0x1541C, symSize: 0xE4 }
  - { offset: 0x8782C, size: 0x8, addend: 0x0, symName: __ZN11MemoryPatch13createWithHexEPKcmNSt3__112basic_stringIcNS2_11char_traitsIcEENS2_9allocatorIcEEEE, symObjAddr: 0x1F0, symBinAddr: 0x1541C, symSize: 0xE4 }
  - { offset: 0x87834, size: 0x8, addend: 0x0, symName: __ZN11MemoryPatch13createWithHexEmNSt3__112basic_stringIcNS0_11char_traitsIcEENS0_9allocatorIcEEEE, symObjAddr: 0x2D4, symBinAddr: 0x15500, symSize: 0xD0 }
  - { offset: 0x87A90, size: 0x8, addend: 0x0, symName: __ZN11MemoryPatch13createWithHexEmNSt3__112basic_stringIcNS0_11char_traitsIcEENS0_9allocatorIcEEEE, symObjAddr: 0x2D4, symBinAddr: 0x15500, symSize: 0xD0 }
  - { offset: 0x87A98, size: 0x8, addend: 0x0, symName: __ZNK11MemoryPatch7isValidEv, symObjAddr: 0x3A4, symBinAddr: 0x155D0, symSize: 0x3C }
  - { offset: 0x87CE1, size: 0x8, addend: 0x0, symName: __ZNK11MemoryPatch7isValidEv, symObjAddr: 0x3A4, symBinAddr: 0x155D0, symSize: 0x3C }
  - { offset: 0x87CE9, size: 0x8, addend: 0x0, symName: __ZNK11MemoryPatch13get_PatchSizeEv, symObjAddr: 0x3E0, symBinAddr: 0x1560C, symSize: 0x8 }
  - { offset: 0x87D5B, size: 0x8, addend: 0x0, symName: __ZNK11MemoryPatch13get_PatchSizeEv, symObjAddr: 0x3E0, symBinAddr: 0x1560C, symSize: 0x8 }
  - { offset: 0x87D63, size: 0x8, addend: 0x0, symName: __ZNK11MemoryPatch17get_TargetAddressEv, symObjAddr: 0x3E8, symBinAddr: 0x15614, symSize: 0x8 }
  - { offset: 0x87D90, size: 0x8, addend: 0x0, symName: __ZNK11MemoryPatch17get_TargetAddressEv, symObjAddr: 0x3E8, symBinAddr: 0x15614, symSize: 0x8 }
  - { offset: 0x87D98, size: 0x8, addend: 0x0, symName: __ZN11MemoryPatch7RestoreEv, symObjAddr: 0x3F0, symBinAddr: 0x1561C, symSize: 0x58 }
  - { offset: 0x87DEE, size: 0x8, addend: 0x0, symName: __ZN11MemoryPatch7RestoreEv, symObjAddr: 0x3F0, symBinAddr: 0x1561C, symSize: 0x58 }
  - { offset: 0x87DF6, size: 0x8, addend: 0x0, symName: __ZN11MemoryPatch6ModifyEv, symObjAddr: 0x448, symBinAddr: 0x15674, symSize: 0x58 }
  - { offset: 0x87E99, size: 0x8, addend: 0x0, symName: __ZN11MemoryPatch6ModifyEv, symObjAddr: 0x448, symBinAddr: 0x15674, symSize: 0x58 }
  - { offset: 0x87EA1, size: 0x8, addend: 0x0, symName: __ZNK11MemoryPatch13get_CurrBytesEv, symObjAddr: 0x4A0, symBinAddr: 0x156CC, symSize: 0x48 }
  - { offset: 0x87F86, size: 0x8, addend: 0x0, symName: __ZNK11MemoryPatch13get_CurrBytesEv, symObjAddr: 0x4A0, symBinAddr: 0x156CC, symSize: 0x48 }
  - { offset: 0x87F8E, size: 0x8, addend: 0x0, symName: __ZNK11MemoryPatch13get_OrigBytesEv, symObjAddr: 0x4E8, symBinAddr: 0x15714, symSize: 0x48 }
  - { offset: 0x8803F, size: 0x8, addend: 0x0, symName: __ZNK11MemoryPatch13get_OrigBytesEv, symObjAddr: 0x4E8, symBinAddr: 0x15714, symSize: 0x48 }
  - { offset: 0x88066, size: 0x8, addend: 0x0, symName: __ZNK11MemoryPatch13get_OrigBytesEv, symObjAddr: 0x4E8, symBinAddr: 0x15714, symSize: 0x48 }
  - { offset: 0x8806E, size: 0x8, addend: 0x0, symName: __ZNK11MemoryPatch14get_PatchBytesEv, symObjAddr: 0x530, symBinAddr: 0x1575C, symSize: 0x44 }
  - { offset: 0x880A1, size: 0x8, addend: 0x0, symName: __ZNK11MemoryPatch13get_OrigBytesEv, symObjAddr: 0x4E8, symBinAddr: 0x15714, symSize: 0x48 }
  - { offset: 0x8811D, size: 0x8, addend: 0x0, symName: __ZNK11MemoryPatch14get_PatchBytesEv, symObjAddr: 0x530, symBinAddr: 0x1575C, symSize: 0x44 }
  - { offset: 0x88144, size: 0x8, addend: 0x0, symName: __ZNK11MemoryPatch14get_PatchBytesEv, symObjAddr: 0x530, symBinAddr: 0x1575C, symSize: 0x44 }
  - { offset: 0x8817F, size: 0x8, addend: 0x0, symName: __ZNK11MemoryPatch14get_PatchBytesEv, symObjAddr: 0x530, symBinAddr: 0x1575C, symSize: 0x44 }
  - { offset: 0x8826F, size: 0x8, addend: 0x0, symName: __Z10writeData8PKcmh, symObjAddr: 0x0, symBinAddr: 0x157A0, symSize: 0x58 }
  - { offset: 0x88296, size: 0x8, addend: 0x0, symName: __Z10writeData8PKcmh, symObjAddr: 0x0, symBinAddr: 0x157A0, symSize: 0x58 }
  - { offset: 0x8829E, size: 0x8, addend: 0x0, symName: __Z11writeData16PKcmt, symObjAddr: 0x58, symBinAddr: 0x157F8, symSize: 0x5C }
  - { offset: 0x8831B, size: 0x8, addend: 0x0, symName: __Z11writeData16PKcmt, symObjAddr: 0x58, symBinAddr: 0x157F8, symSize: 0x5C }
  - { offset: 0x88323, size: 0x8, addend: 0x0, symName: __Z11writeData32PKcmj, symObjAddr: 0xB4, symBinAddr: 0x15854, symSize: 0x5C }
  - { offset: 0x883DE, size: 0x8, addend: 0x0, symName: __Z11writeData32PKcmj, symObjAddr: 0xB4, symBinAddr: 0x15854, symSize: 0x5C }
  - { offset: 0x883E6, size: 0x8, addend: 0x0, symName: __Z11writeData64PKcmy, symObjAddr: 0x110, symBinAddr: 0x158B0, symSize: 0x5C }
  - { offset: 0x884A3, size: 0x8, addend: 0x0, symName: __Z11writeData64PKcmy, symObjAddr: 0x110, symBinAddr: 0x158B0, symSize: 0x5C }
  - { offset: 0x88578, size: 0x8, addend: 0x0, symName: '-[SCLAlertView initWithCoder:]', symObjAddr: 0x0, symBinAddr: 0x1590C, symSize: 0x44 }
  - { offset: 0x885C6, size: 0x8, addend: 0x0, symName: _kCircleHeight, symBinAddr: 0x37E4E8, symSize: 0x0 }
  - { offset: 0x885F0, size: 0x8, addend: 0x0, symName: _kCircleTopPosition, symBinAddr: 0x37E4F8, symSize: 0x0 }
  - { offset: 0x88607, size: 0x8, addend: 0x0, symName: _kCircleBackgroundTopPosition, symBinAddr: 0x37E4E0, symSize: 0x0 }
  - { offset: 0x8861E, size: 0x8, addend: 0x0, symName: _kCircleHeightBackground, symBinAddr: 0x37E4F0, symSize: 0x0 }
  - { offset: 0x88635, size: 0x8, addend: 0x0, symName: _kActivityIndicatorHeight, symBinAddr: 0x37E4D8, symSize: 0x0 }
  - { offset: 0x8864C, size: 0x8, addend: 0x0, symName: _kTitleTop, symBinAddr: 0x37E500, symSize: 0x0 }
  - { offset: 0x88663, size: 0x8, addend: 0x0, symName: _durationTimer, symBinAddr: 0x37E4D0, symSize: 0x0 }
  - { offset: 0x88778, size: 0x8, addend: 0x0, symName: _buttonTimer, symBinAddr: 0x37E4C8, symSize: 0x0 }
  - { offset: 0x90821, size: 0x8, addend: 0x0, symName: '-[SCLAlertView initWithCoder:]', symObjAddr: 0x0, symBinAddr: 0x1590C, symSize: 0x44 }
  - { offset: 0x90829, size: 0x8, addend: 0x0, symName: '-[SCLAlertView init]', symObjAddr: 0x44, symBinAddr: 0x15950, symSize: 0x58 }
  - { offset: 0x9086B, size: 0x8, addend: 0x0, symName: '-[SCLAlertView init]', symObjAddr: 0x44, symBinAddr: 0x15950, symSize: 0x58 }
  - { offset: 0x90873, size: 0x8, addend: 0x0, symName: '-[SCLAlertView initWithWindowWidth:]', symObjAddr: 0x9C, symBinAddr: 0x159A8, symSize: 0x60 }
  - { offset: 0x908A9, size: 0x8, addend: 0x0, symName: '-[SCLAlertView initWithWindowWidth:]', symObjAddr: 0x9C, symBinAddr: 0x159A8, symSize: 0x60 }
  - { offset: 0x908B1, size: 0x8, addend: 0x0, symName: '-[SCLAlertView initWithNewWindow]', symObjAddr: 0xFC, symBinAddr: 0x15A08, symSize: 0x38 }
  - { offset: 0x908F7, size: 0x8, addend: 0x0, symName: '-[SCLAlertView initWithNewWindow]', symObjAddr: 0xFC, symBinAddr: 0x15A08, symSize: 0x38 }
  - { offset: 0x908FF, size: 0x8, addend: 0x0, symName: '-[SCLAlertView initWithNewWindowWidth:]', symObjAddr: 0x134, symBinAddr: 0x15A40, symSize: 0x30 }
  - { offset: 0x90935, size: 0x8, addend: 0x0, symName: '-[SCLAlertView initWithNewWindowWidth:]', symObjAddr: 0x134, symBinAddr: 0x15A40, symSize: 0x30 }
  - { offset: 0x9093D, size: 0x8, addend: 0x0, symName: '-[SCLAlertView dealloc]', symObjAddr: 0x164, symBinAddr: 0x15A70, symSize: 0x4C }
  - { offset: 0x90983, size: 0x8, addend: 0x0, symName: '-[SCLAlertView dealloc]', symObjAddr: 0x164, symBinAddr: 0x15A70, symSize: 0x4C }
  - { offset: 0x9098B, size: 0x8, addend: 0x0, symName: '-[SCLAlertView addObservers]', symObjAddr: 0x1B0, symBinAddr: 0x15ABC, symSize: 0xB8 }
  - { offset: 0x909BD, size: 0x8, addend: 0x0, symName: '-[SCLAlertView addObservers]', symObjAddr: 0x1B0, symBinAddr: 0x15ABC, symSize: 0xB8 }
  - { offset: 0x909C5, size: 0x8, addend: 0x0, symName: '-[SCLAlertView removeObservers]', symObjAddr: 0x268, symBinAddr: 0x15B74, symSize: 0x8C }
  - { offset: 0x909F7, size: 0x8, addend: 0x0, symName: '-[SCLAlertView removeObservers]', symObjAddr: 0x268, symBinAddr: 0x15B74, symSize: 0x8C }
  - { offset: 0x909FF, size: 0x8, addend: 0x0, symName: '-[SCLAlertView setupViewWindowWidth:]', symObjAddr: 0x2F4, symBinAddr: 0x15C00, symSize: 0x810 }
  - { offset: 0x90A31, size: 0x8, addend: 0x0, symName: '-[SCLAlertView setupViewWindowWidth:]', symObjAddr: 0x2F4, symBinAddr: 0x15C00, symSize: 0x810 }
  - { offset: 0x90A39, size: 0x8, addend: 0x0, symName: '-[SCLAlertView setupNewWindow]', symObjAddr: 0xB04, symBinAddr: 0x16410, symSize: 0x114 }
  - { offset: 0x90A8B, size: 0x8, addend: 0x0, symName: '-[SCLAlertView setupNewWindow]', symObjAddr: 0xB04, symBinAddr: 0x16410, symSize: 0x114 }
  - { offset: 0x90A93, size: 0x8, addend: 0x0, symName: '-[SCLAlertView isModal]', symObjAddr: 0xC18, symBinAddr: 0x16524, symSize: 0x7C }
  - { offset: 0x90AD6, size: 0x8, addend: 0x0, symName: '-[SCLAlertView isModal]', symObjAddr: 0xC18, symBinAddr: 0x16524, symSize: 0x7C }
  - { offset: 0x90ADE, size: 0x8, addend: 0x0, symName: '-[SCLAlertView viewWillLayoutSubviews]', symObjAddr: 0xC94, symBinAddr: 0x165A0, symSize: 0x7FC }
  - { offset: 0x90B15, size: 0x8, addend: 0x0, symName: '-[SCLAlertView viewWillLayoutSubviews]', symObjAddr: 0xC94, symBinAddr: 0x165A0, symSize: 0x7FC }
  - { offset: 0x90B1D, size: 0x8, addend: 0x0, symName: '-[SCLAlertView prefersStatusBarHidden]', symObjAddr: 0x1490, symBinAddr: 0x16D9C, symSize: 0x4 }
  - { offset: 0x90C0D, size: 0x8, addend: 0x0, symName: '-[SCLAlertView prefersStatusBarHidden]', symObjAddr: 0x1490, symBinAddr: 0x16D9C, symSize: 0x4 }
  - { offset: 0x90C15, size: 0x8, addend: 0x0, symName: '-[SCLAlertView preferredStatusBarStyle]', symObjAddr: 0x1494, symBinAddr: 0x16DA0, symSize: 0x4 }
  - { offset: 0x90C4A, size: 0x8, addend: 0x0, symName: '-[SCLAlertView preferredStatusBarStyle]', symObjAddr: 0x1494, symBinAddr: 0x16DA0, symSize: 0x4 }
  - { offset: 0x90C52, size: 0x8, addend: 0x0, symName: '-[SCLAlertView handleTap:]', symObjAddr: 0x1498, symBinAddr: 0x16DA4, symSize: 0x144 }
  - { offset: 0x90C87, size: 0x8, addend: 0x0, symName: '-[SCLAlertView handleTap:]', symObjAddr: 0x1498, symBinAddr: 0x16DA4, symSize: 0x144 }
  - { offset: 0x90C8F, size: 0x8, addend: 0x0, symName: '-[SCLAlertView setShouldDismissOnTapOutside:]', symObjAddr: 0x15DC, symBinAddr: 0x16EE8, symSize: 0x7C }
  - { offset: 0x90D09, size: 0x8, addend: 0x0, symName: '-[SCLAlertView setShouldDismissOnTapOutside:]', symObjAddr: 0x15DC, symBinAddr: 0x16EE8, symSize: 0x7C }
  - { offset: 0x90D11, size: 0x8, addend: 0x0, symName: '-[SCLAlertView disableInteractivePopGesture]', symObjAddr: 0x1658, symBinAddr: 0x16F64, symSize: 0x160 }
  - { offset: 0x90D51, size: 0x8, addend: 0x0, symName: '-[SCLAlertView disableInteractivePopGesture]', symObjAddr: 0x1658, symBinAddr: 0x16F64, symSize: 0x160 }
  - { offset: 0x90D59, size: 0x8, addend: 0x0, symName: '-[SCLAlertView restoreInteractivePopGesture]', symObjAddr: 0x17B8, symBinAddr: 0x170C4, symSize: 0x114 }
  - { offset: 0x90D9D, size: 0x8, addend: 0x0, symName: '-[SCLAlertView restoreInteractivePopGesture]', symObjAddr: 0x17B8, symBinAddr: 0x170C4, symSize: 0x114 }
  - { offset: 0x90DA5, size: 0x8, addend: 0x0, symName: '-[SCLAlertView setTitleFontFamily:withSize:]', symObjAddr: 0x18CC, symBinAddr: 0x171D8, symSize: 0x90 }
  - { offset: 0x90DE9, size: 0x8, addend: 0x0, symName: '-[SCLAlertView setTitleFontFamily:withSize:]', symObjAddr: 0x18CC, symBinAddr: 0x171D8, symSize: 0x90 }
  - { offset: 0x90DF1, size: 0x8, addend: 0x0, symName: '-[SCLAlertView setBodyTextFontFamily:withSize:]', symObjAddr: 0x195C, symBinAddr: 0x17268, symSize: 0x90 }
  - { offset: 0x90E46, size: 0x8, addend: 0x0, symName: '-[SCLAlertView setBodyTextFontFamily:withSize:]', symObjAddr: 0x195C, symBinAddr: 0x17268, symSize: 0x90 }
  - { offset: 0x90E4E, size: 0x8, addend: 0x0, symName: '-[SCLAlertView setButtonsTextFontFamily:withSize:]', symObjAddr: 0x19EC, symBinAddr: 0x172F8, symSize: 0x34 }
  - { offset: 0x90EA3, size: 0x8, addend: 0x0, symName: '-[SCLAlertView setButtonsTextFontFamily:withSize:]', symObjAddr: 0x19EC, symBinAddr: 0x172F8, symSize: 0x34 }
  - { offset: 0x90EAB, size: 0x8, addend: 0x0, symName: '-[SCLAlertView setBackgroundViewColor:]', symObjAddr: 0x1A20, symBinAddr: 0x1732C, symSize: 0x88 }
  - { offset: 0x90F00, size: 0x8, addend: 0x0, symName: '-[SCLAlertView setBackgroundViewColor:]', symObjAddr: 0x1A20, symBinAddr: 0x1732C, symSize: 0x88 }
  - { offset: 0x90F08, size: 0x8, addend: 0x0, symName: '-[SCLAlertView setSoundURL:]', symObjAddr: 0x1AA8, symBinAddr: 0x173B4, symSize: 0x70 }
  - { offset: 0x90F4C, size: 0x8, addend: 0x0, symName: '-[SCLAlertView setSoundURL:]', symObjAddr: 0x1AA8, symBinAddr: 0x173B4, symSize: 0x70 }
  - { offset: 0x90F54, size: 0x8, addend: 0x0, symName: '-[SCLAlertView setSubTitleHeight:]', symObjAddr: 0x1B18, symBinAddr: 0x17424, symSize: 0x10 }
  - { offset: 0x90F98, size: 0x8, addend: 0x0, symName: '-[SCLAlertView setSubTitleHeight:]', symObjAddr: 0x1B18, symBinAddr: 0x17424, symSize: 0x10 }
  - { offset: 0x90FA0, size: 0x8, addend: 0x0, symName: '-[SCLAlertView addActivityIndicatorView]', symObjAddr: 0x1B28, symBinAddr: 0x17434, symSize: 0x90 }
  - { offset: 0x90FE1, size: 0x8, addend: 0x0, symName: '-[SCLAlertView addActivityIndicatorView]', symObjAddr: 0x1B28, symBinAddr: 0x17434, symSize: 0x90 }
  - { offset: 0x90FE9, size: 0x8, addend: 0x0, symName: '-[SCLAlertView addCustomView:]', symObjAddr: 0x1BB8, symBinAddr: 0x174C4, symSize: 0x7C }
  - { offset: 0x9101C, size: 0x8, addend: 0x0, symName: '-[SCLAlertView addCustomView:]', symObjAddr: 0x1BB8, symBinAddr: 0x174C4, symSize: 0x7C }
  - { offset: 0x91024, size: 0x8, addend: 0x0, symName: '-[SCLAlertView addSwitchViewWithLabel:]', symObjAddr: 0x1C34, symBinAddr: 0x17540, symSize: 0xD0 }
  - { offset: 0x9106C, size: 0x8, addend: 0x0, symName: '-[SCLAlertView addSwitchViewWithLabel:]', symObjAddr: 0x1C34, symBinAddr: 0x17540, symSize: 0xD0 }
  - { offset: 0x91074, size: 0x8, addend: 0x0, symName: '-[SCLAlertView addTextField:]', symObjAddr: 0x1D04, symBinAddr: 0x17610, symSize: 0x154 }
  - { offset: 0x910CD, size: 0x8, addend: 0x0, symName: '-[SCLAlertView addTextField:]', symObjAddr: 0x1D04, symBinAddr: 0x17610, symSize: 0x154 }
  - { offset: 0x910D5, size: 0x8, addend: 0x0, symName: '-[SCLAlertView addCustomTextField:]', symObjAddr: 0x1E58, symBinAddr: 0x17764, symSize: 0xCC }
  - { offset: 0x91162, size: 0x8, addend: 0x0, symName: '-[SCLAlertView addCustomTextField:]', symObjAddr: 0x1E58, symBinAddr: 0x17764, symSize: 0xCC }
  - { offset: 0x9116A, size: 0x8, addend: 0x0, symName: '-[SCLAlertView textFieldShouldReturn:]', symObjAddr: 0x1F24, symBinAddr: 0x17830, symSize: 0xA8 }
  - { offset: 0x911E2, size: 0x8, addend: 0x0, symName: '-[SCLAlertView textFieldShouldReturn:]', symObjAddr: 0x1F24, symBinAddr: 0x17830, symSize: 0xA8 }
  - { offset: 0x911EA, size: 0x8, addend: 0x0, symName: '-[SCLAlertView keyboardWillShow:]', symObjAddr: 0x1FCC, symBinAddr: 0x178D8, symSize: 0x84 }
  - { offset: 0x91266, size: 0x8, addend: 0x0, symName: '-[SCLAlertView keyboardWillShow:]', symObjAddr: 0x1FCC, symBinAddr: 0x178D8, symSize: 0x84 }
  - { offset: 0x9126E, size: 0x8, addend: 0x0, symName: '___33-[SCLAlertView keyboardWillShow:]_block_invoke', symObjAddr: 0x2050, symBinAddr: 0x1795C, symSize: 0x94 }
  - { offset: 0x912AE, size: 0x8, addend: 0x0, symName: '___33-[SCLAlertView keyboardWillShow:]_block_invoke', symObjAddr: 0x2050, symBinAddr: 0x1795C, symSize: 0x94 }
  - { offset: 0x912B6, size: 0x8, addend: 0x0, symName: ___copy_helper_block_e8_32s, symObjAddr: 0x20E4, symBinAddr: 0x179F0, symSize: 0x8 }
  - { offset: 0x912E3, size: 0x8, addend: 0x0, symName: ___copy_helper_block_e8_32s, symObjAddr: 0x20E4, symBinAddr: 0x179F0, symSize: 0x8 }
  - { offset: 0x91300, size: 0x8, addend: 0x0, symName: ___copy_helper_block_e8_32s, symObjAddr: 0x20E4, symBinAddr: 0x179F0, symSize: 0x8 }
  - { offset: 0x91308, size: 0x8, addend: 0x0, symName: ___destroy_helper_block_e8_32s, symObjAddr: 0x20EC, symBinAddr: 0x179F8, symSize: 0x8 }
  - { offset: 0x9132F, size: 0x8, addend: 0x0, symName: ___destroy_helper_block_e8_32s, symObjAddr: 0x20EC, symBinAddr: 0x179F8, symSize: 0x8 }
  - { offset: 0x91337, size: 0x8, addend: 0x0, symName: '-[SCLAlertView keyboardWillHide:]', symObjAddr: 0x20F4, symBinAddr: 0x17A00, symSize: 0x84 }
  - { offset: 0x91355, size: 0x8, addend: 0x0, symName: '-[SCLAlertView keyboardWillHide:]', symObjAddr: 0x20F4, symBinAddr: 0x17A00, symSize: 0x84 }
  - { offset: 0x9135D, size: 0x8, addend: 0x0, symName: '___33-[SCLAlertView keyboardWillHide:]_block_invoke', symObjAddr: 0x2178, symBinAddr: 0x17A84, symSize: 0x94 }
  - { offset: 0x9139D, size: 0x8, addend: 0x0, symName: '___33-[SCLAlertView keyboardWillHide:]_block_invoke', symObjAddr: 0x2178, symBinAddr: 0x17A84, symSize: 0x94 }
  - { offset: 0x913A5, size: 0x8, addend: 0x0, symName: '-[SCLAlertView addButton:]', symObjAddr: 0x220C, symBinAddr: 0x17B18, symSize: 0x260 }
  - { offset: 0x913D2, size: 0x8, addend: 0x0, symName: '-[SCLAlertView addButton:]', symObjAddr: 0x220C, symBinAddr: 0x17B18, symSize: 0x260 }
  - { offset: 0x913EF, size: 0x8, addend: 0x0, symName: '-[SCLAlertView addButton:]', symObjAddr: 0x220C, symBinAddr: 0x17B18, symSize: 0x260 }
  - { offset: 0x913F7, size: 0x8, addend: 0x0, symName: '-[SCLAlertView addDoneButtonWithTitle:]', symObjAddr: 0x246C, symBinAddr: 0x17D78, symSize: 0x60 }
  - { offset: 0x91473, size: 0x8, addend: 0x0, symName: '-[SCLAlertView addDoneButtonWithTitle:]', symObjAddr: 0x246C, symBinAddr: 0x17D78, symSize: 0x60 }
  - { offset: 0x9147B, size: 0x8, addend: 0x0, symName: '-[SCLAlertView addButton:actionBlock:]', symObjAddr: 0x24CC, symBinAddr: 0x17DD8, symSize: 0xA0 }
  - { offset: 0x914D4, size: 0x8, addend: 0x0, symName: '-[SCLAlertView addButton:actionBlock:]', symObjAddr: 0x24CC, symBinAddr: 0x17DD8, symSize: 0xA0 }
  - { offset: 0x914DC, size: 0x8, addend: 0x0, symName: '-[SCLAlertView addButton:validationBlock:actionBlock:]', symObjAddr: 0x256C, symBinAddr: 0x17E78, symSize: 0x68 }
  - { offset: 0x91546, size: 0x8, addend: 0x0, symName: '-[SCLAlertView addButton:validationBlock:actionBlock:]', symObjAddr: 0x256C, symBinAddr: 0x17E78, symSize: 0x68 }
  - { offset: 0x9154E, size: 0x8, addend: 0x0, symName: '-[SCLAlertView addButton:target:selector:]', symObjAddr: 0x25D4, symBinAddr: 0x17EE0, symSize: 0x94 }
  - { offset: 0x915C9, size: 0x8, addend: 0x0, symName: '-[SCLAlertView addButton:target:selector:]', symObjAddr: 0x25D4, symBinAddr: 0x17EE0, symSize: 0x94 }
  - { offset: 0x915D1, size: 0x8, addend: 0x0, symName: '-[SCLAlertView buttonTapped:]', symObjAddr: 0x2668, symBinAddr: 0x17F74, symSize: 0x170 }
  - { offset: 0x9164C, size: 0x8, addend: 0x0, symName: '-[SCLAlertView buttonTapped:]', symObjAddr: 0x2668, symBinAddr: 0x17F74, symSize: 0x170 }
  - { offset: 0x91654, size: 0x8, addend: 0x0, symName: '-[SCLAlertView addTimerToButtonIndex:reverse:]', symObjAddr: 0x27D8, symBinAddr: 0x180E4, symSize: 0x8C }
  - { offset: 0x916BB, size: 0x8, addend: 0x0, symName: '-[SCLAlertView addTimerToButtonIndex:reverse:]', symObjAddr: 0x27D8, symBinAddr: 0x180E4, symSize: 0x8C }
  - { offset: 0x916C3, size: 0x8, addend: 0x0, symName: '-[SCLAlertView showTitle:image:color:title:subTitle:duration:completeText:style:]', symObjAddr: 0x2864, symBinAddr: 0x18170, symSize: 0xEF4 }
  - { offset: 0x91775, size: 0x8, addend: 0x0, symName: '-[SCLAlertView showTitle:image:color:title:subTitle:duration:completeText:style:]', symObjAddr: 0x2864, symBinAddr: 0x18170, symSize: 0xEF4 }
  - { offset: 0x9177D, size: 0x8, addend: 0x0, symName: '___81-[SCLAlertView showTitle:image:color:title:subTitle:duration:completeText:style:]_block_invoke', symObjAddr: 0x3758, symBinAddr: 0x19064, symSize: 0xC }
  - { offset: 0x91921, size: 0x8, addend: 0x0, symName: '___81-[SCLAlertView showTitle:image:color:title:subTitle:duration:completeText:style:]_block_invoke', symObjAddr: 0x3758, symBinAddr: 0x19064, symSize: 0xC }
  - { offset: 0x91929, size: 0x8, addend: 0x0, symName: ___copy_helper_block_e8_32s40s, symObjAddr: 0x3764, symBinAddr: 0x19070, symSize: 0x28 }
  - { offset: 0x91950, size: 0x8, addend: 0x0, symName: ___copy_helper_block_e8_32s40s, symObjAddr: 0x3764, symBinAddr: 0x19070, symSize: 0x28 }
  - { offset: 0x91958, size: 0x8, addend: 0x0, symName: ___destroy_helper_block_e8_32s40s, symObjAddr: 0x378C, symBinAddr: 0x19098, symSize: 0x28 }
  - { offset: 0x91981, size: 0x8, addend: 0x0, symName: ___destroy_helper_block_e8_32s40s, symObjAddr: 0x378C, symBinAddr: 0x19098, symSize: 0x28 }
  - { offset: 0x91989, size: 0x8, addend: 0x0, symName: '-[SCLAlertView showSuccess:title:subTitle:closeButtonTitle:duration:]', symObjAddr: 0x37B4, symBinAddr: 0x190C0, symSize: 0x3C }
  - { offset: 0x919A7, size: 0x8, addend: 0x0, symName: '-[SCLAlertView showSuccess:title:subTitle:closeButtonTitle:duration:]', symObjAddr: 0x37B4, symBinAddr: 0x190C0, symSize: 0x3C }
  - { offset: 0x919AF, size: 0x8, addend: 0x0, symName: '-[SCLAlertView showError:title:subTitle:closeButtonTitle:duration:]', symObjAddr: 0x37F0, symBinAddr: 0x190FC, symSize: 0x40 }
  - { offset: 0x91A37, size: 0x8, addend: 0x0, symName: '-[SCLAlertView showError:title:subTitle:closeButtonTitle:duration:]', symObjAddr: 0x37F0, symBinAddr: 0x190FC, symSize: 0x40 }
  - { offset: 0x91A3F, size: 0x8, addend: 0x0, symName: '-[SCLAlertView showNotice:title:subTitle:closeButtonTitle:duration:]', symObjAddr: 0x3830, symBinAddr: 0x1913C, symSize: 0x40 }
  - { offset: 0x91AC7, size: 0x8, addend: 0x0, symName: '-[SCLAlertView showNotice:title:subTitle:closeButtonTitle:duration:]', symObjAddr: 0x3830, symBinAddr: 0x1913C, symSize: 0x40 }
  - { offset: 0x91ACF, size: 0x8, addend: 0x0, symName: '-[SCLAlertView showWarning:title:subTitle:closeButtonTitle:duration:]', symObjAddr: 0x3870, symBinAddr: 0x1917C, symSize: 0x40 }
  - { offset: 0x91B57, size: 0x8, addend: 0x0, symName: '-[SCLAlertView showWarning:title:subTitle:closeButtonTitle:duration:]', symObjAddr: 0x3870, symBinAddr: 0x1917C, symSize: 0x40 }
  - { offset: 0x91B5F, size: 0x8, addend: 0x0, symName: '-[SCLAlertView showInfo:title:subTitle:closeButtonTitle:duration:]', symObjAddr: 0x38B0, symBinAddr: 0x191BC, symSize: 0x40 }
  - { offset: 0x91BE7, size: 0x8, addend: 0x0, symName: '-[SCLAlertView showInfo:title:subTitle:closeButtonTitle:duration:]', symObjAddr: 0x38B0, symBinAddr: 0x191BC, symSize: 0x40 }
  - { offset: 0x91BEF, size: 0x8, addend: 0x0, symName: '-[SCLAlertView showEdit:title:subTitle:closeButtonTitle:duration:]', symObjAddr: 0x38F0, symBinAddr: 0x191FC, symSize: 0x40 }
  - { offset: 0x91C77, size: 0x8, addend: 0x0, symName: '-[SCLAlertView showEdit:title:subTitle:closeButtonTitle:duration:]', symObjAddr: 0x38F0, symBinAddr: 0x191FC, symSize: 0x40 }
  - { offset: 0x91C7F, size: 0x8, addend: 0x0, symName: '-[SCLAlertView showTitle:title:subTitle:style:closeButtonTitle:duration:]', symObjAddr: 0x3930, symBinAddr: 0x1923C, symSize: 0x40 }
  - { offset: 0x91D07, size: 0x8, addend: 0x0, symName: '-[SCLAlertView showTitle:title:subTitle:style:closeButtonTitle:duration:]', symObjAddr: 0x3930, symBinAddr: 0x1923C, symSize: 0x40 }
  - { offset: 0x91D0F, size: 0x8, addend: 0x0, symName: '-[SCLAlertView showCustom:image:color:title:subTitle:closeButtonTitle:duration:]', symObjAddr: 0x3970, symBinAddr: 0x1927C, symSize: 0x2C }
  - { offset: 0x91DA8, size: 0x8, addend: 0x0, symName: '-[SCLAlertView showCustom:image:color:title:subTitle:closeButtonTitle:duration:]', symObjAddr: 0x3970, symBinAddr: 0x1927C, symSize: 0x2C }
  - { offset: 0x91DB0, size: 0x8, addend: 0x0, symName: '-[SCLAlertView showWaiting:title:subTitle:closeButtonTitle:duration:]', symObjAddr: 0x399C, symBinAddr: 0x192A8, symSize: 0xE0 }
  - { offset: 0x91E5A, size: 0x8, addend: 0x0, symName: '-[SCLAlertView showWaiting:title:subTitle:closeButtonTitle:duration:]', symObjAddr: 0x399C, symBinAddr: 0x192A8, symSize: 0xE0 }
  - { offset: 0x91E62, size: 0x8, addend: 0x0, symName: '-[SCLAlertView showQuestion:title:subTitle:closeButtonTitle:duration:]', symObjAddr: 0x3A7C, symBinAddr: 0x19388, symSize: 0x40 }
  - { offset: 0x91EEA, size: 0x8, addend: 0x0, symName: '-[SCLAlertView showQuestion:title:subTitle:closeButtonTitle:duration:]', symObjAddr: 0x3A7C, symBinAddr: 0x19388, symSize: 0x40 }
  - { offset: 0x91EF2, size: 0x8, addend: 0x0, symName: '-[SCLAlertView showSuccess:subTitle:closeButtonTitle:duration:]', symObjAddr: 0x3ABC, symBinAddr: 0x193C8, symSize: 0x40 }
  - { offset: 0x91F7A, size: 0x8, addend: 0x0, symName: '-[SCLAlertView showSuccess:subTitle:closeButtonTitle:duration:]', symObjAddr: 0x3ABC, symBinAddr: 0x193C8, symSize: 0x40 }
  - { offset: 0x91F82, size: 0x8, addend: 0x0, symName: '-[SCLAlertView showError:subTitle:closeButtonTitle:duration:]', symObjAddr: 0x3AFC, symBinAddr: 0x19408, symSize: 0x44 }
  - { offset: 0x91FF9, size: 0x8, addend: 0x0, symName: '-[SCLAlertView showError:subTitle:closeButtonTitle:duration:]', symObjAddr: 0x3AFC, symBinAddr: 0x19408, symSize: 0x44 }
  - { offset: 0x92001, size: 0x8, addend: 0x0, symName: '-[SCLAlertView showNotice:subTitle:closeButtonTitle:duration:]', symObjAddr: 0x3B40, symBinAddr: 0x1944C, symSize: 0x44 }
  - { offset: 0x92078, size: 0x8, addend: 0x0, symName: '-[SCLAlertView showNotice:subTitle:closeButtonTitle:duration:]', symObjAddr: 0x3B40, symBinAddr: 0x1944C, symSize: 0x44 }
  - { offset: 0x92080, size: 0x8, addend: 0x0, symName: '-[SCLAlertView showWarning:subTitle:closeButtonTitle:duration:]', symObjAddr: 0x3B84, symBinAddr: 0x19490, symSize: 0x44 }
  - { offset: 0x920F7, size: 0x8, addend: 0x0, symName: '-[SCLAlertView showWarning:subTitle:closeButtonTitle:duration:]', symObjAddr: 0x3B84, symBinAddr: 0x19490, symSize: 0x44 }
  - { offset: 0x920FF, size: 0x8, addend: 0x0, symName: '-[SCLAlertView showInfo:subTitle:closeButtonTitle:duration:]', symObjAddr: 0x3BC8, symBinAddr: 0x194D4, symSize: 0x44 }
  - { offset: 0x92176, size: 0x8, addend: 0x0, symName: '-[SCLAlertView showInfo:subTitle:closeButtonTitle:duration:]', symObjAddr: 0x3BC8, symBinAddr: 0x194D4, symSize: 0x44 }
  - { offset: 0x9217E, size: 0x8, addend: 0x0, symName: '-[SCLAlertView showEdit:subTitle:closeButtonTitle:duration:]', symObjAddr: 0x3C0C, symBinAddr: 0x19518, symSize: 0x44 }
  - { offset: 0x921F5, size: 0x8, addend: 0x0, symName: '-[SCLAlertView showEdit:subTitle:closeButtonTitle:duration:]', symObjAddr: 0x3C0C, symBinAddr: 0x19518, symSize: 0x44 }
  - { offset: 0x921FD, size: 0x8, addend: 0x0, symName: '-[SCLAlertView showTitle:subTitle:style:closeButtonTitle:duration:]', symObjAddr: 0x3C50, symBinAddr: 0x1955C, symSize: 0x40 }
  - { offset: 0x92274, size: 0x8, addend: 0x0, symName: '-[SCLAlertView showTitle:subTitle:style:closeButtonTitle:duration:]', symObjAddr: 0x3C50, symBinAddr: 0x1955C, symSize: 0x40 }
  - { offset: 0x9227C, size: 0x8, addend: 0x0, symName: '-[SCLAlertView showCustom:color:title:subTitle:closeButtonTitle:duration:]', symObjAddr: 0x3C90, symBinAddr: 0x1959C, symSize: 0x44 }
  - { offset: 0x92304, size: 0x8, addend: 0x0, symName: '-[SCLAlertView showCustom:color:title:subTitle:closeButtonTitle:duration:]', symObjAddr: 0x3C90, symBinAddr: 0x1959C, symSize: 0x44 }
  - { offset: 0x9230C, size: 0x8, addend: 0x0, symName: '-[SCLAlertView showWaiting:subTitle:closeButtonTitle:duration:]', symObjAddr: 0x3CD4, symBinAddr: 0x195E0, symSize: 0xC0 }
  - { offset: 0x923A5, size: 0x8, addend: 0x0, symName: '-[SCLAlertView showWaiting:subTitle:closeButtonTitle:duration:]', symObjAddr: 0x3CD4, symBinAddr: 0x195E0, symSize: 0xC0 }
  - { offset: 0x923AD, size: 0x8, addend: 0x0, symName: '-[SCLAlertView showQuestion:subTitle:closeButtonTitle:duration:]', symObjAddr: 0x3D94, symBinAddr: 0x196A0, symSize: 0x44 }
  - { offset: 0x92424, size: 0x8, addend: 0x0, symName: '-[SCLAlertView showQuestion:subTitle:closeButtonTitle:duration:]', symObjAddr: 0x3D94, symBinAddr: 0x196A0, symSize: 0x44 }
  - { offset: 0x9242C, size: 0x8, addend: 0x0, symName: '-[SCLAlertView removeTopCircle]', symObjAddr: 0x3DD8, symBinAddr: 0x196E4, symSize: 0x38 }
  - { offset: 0x924A3, size: 0x8, addend: 0x0, symName: '-[SCLAlertView removeTopCircle]', symObjAddr: 0x3DD8, symBinAddr: 0x196E4, symSize: 0x38 }
  - { offset: 0x924AB, size: 0x8, addend: 0x0, symName: '-[SCLAlertView isVisible]', symObjAddr: 0x3E10, symBinAddr: 0x1971C, symSize: 0x40 }
  - { offset: 0x924DE, size: 0x8, addend: 0x0, symName: '-[SCLAlertView isVisible]', symObjAddr: 0x3E10, symBinAddr: 0x1971C, symSize: 0x40 }
  - { offset: 0x924E6, size: 0x8, addend: 0x0, symName: '-[SCLAlertView alertIsDismissed:]', symObjAddr: 0x3E50, symBinAddr: 0x1975C, symSize: 0x4 }
  - { offset: 0x9251D, size: 0x8, addend: 0x0, symName: '-[SCLAlertView alertIsDismissed:]', symObjAddr: 0x3E50, symBinAddr: 0x1975C, symSize: 0x4 }
  - { offset: 0x92525, size: 0x8, addend: 0x0, symName: '-[SCLAlertView alertDismissAnimationIsCompleted:]', symObjAddr: 0x3E54, symBinAddr: 0x19760, symSize: 0x4 }
  - { offset: 0x92565, size: 0x8, addend: 0x0, symName: '-[SCLAlertView alertDismissAnimationIsCompleted:]', symObjAddr: 0x3E54, symBinAddr: 0x19760, symSize: 0x4 }
  - { offset: 0x9256D, size: 0x8, addend: 0x0, symName: '-[SCLAlertView alertShowAnimationIsCompleted:]', symObjAddr: 0x3E58, symBinAddr: 0x19764, symSize: 0x4 }
  - { offset: 0x925AD, size: 0x8, addend: 0x0, symName: '-[SCLAlertView alertShowAnimationIsCompleted:]', symObjAddr: 0x3E58, symBinAddr: 0x19764, symSize: 0x4 }
  - { offset: 0x925B5, size: 0x8, addend: 0x0, symName: '-[SCLAlertView forceHideBlock:]', symObjAddr: 0x3E5C, symBinAddr: 0x19768, symSize: 0x5C }
  - { offset: 0x925F5, size: 0x8, addend: 0x0, symName: '-[SCLAlertView forceHideBlock:]', symObjAddr: 0x3E5C, symBinAddr: 0x19768, symSize: 0x5C }
  - { offset: 0x925FD, size: 0x8, addend: 0x0, symName: '-[SCLAlertView mainScreenFrame]', symObjAddr: 0x3EB8, symBinAddr: 0x197C4, symSize: 0xA8 }
  - { offset: 0x92645, size: 0x8, addend: 0x0, symName: '-[SCLAlertView mainScreenFrame]', symObjAddr: 0x3EB8, symBinAddr: 0x197C4, symSize: 0xA8 }
  - { offset: 0x9264D, size: 0x8, addend: 0x0, symName: '-[SCLAlertView isAppExtension]', symObjAddr: 0x3F60, symBinAddr: 0x1986C, symSize: 0x74 }
  - { offset: 0x92684, size: 0x8, addend: 0x0, symName: '-[SCLAlertView isAppExtension]', symObjAddr: 0x3F60, symBinAddr: 0x1986C, symSize: 0x74 }
  - { offset: 0x9268C, size: 0x8, addend: 0x0, symName: '-[SCLAlertView makeShadowBackground]', symObjAddr: 0x3FD4, symBinAddr: 0x198E0, symSize: 0x8C }
  - { offset: 0x926BF, size: 0x8, addend: 0x0, symName: '-[SCLAlertView makeShadowBackground]', symObjAddr: 0x3FD4, symBinAddr: 0x198E0, symSize: 0x8C }
  - { offset: 0x926C7, size: 0x8, addend: 0x0, symName: '-[SCLAlertView makeBlurBackground]', symObjAddr: 0x4060, symBinAddr: 0x1996C, symSize: 0x17C }
  - { offset: 0x926FA, size: 0x8, addend: 0x0, symName: '-[SCLAlertView makeBlurBackground]', symObjAddr: 0x4060, symBinAddr: 0x1996C, symSize: 0x17C }
  - { offset: 0x92702, size: 0x8, addend: 0x0, symName: '-[SCLAlertView makeTransparentBackground]', symObjAddr: 0x41DC, symBinAddr: 0x19AE8, symSize: 0x80 }
  - { offset: 0x92768, size: 0x8, addend: 0x0, symName: '-[SCLAlertView makeTransparentBackground]', symObjAddr: 0x41DC, symBinAddr: 0x19AE8, symSize: 0x80 }
  - { offset: 0x92770, size: 0x8, addend: 0x0, symName: '-[SCLAlertView setBackground]', symObjAddr: 0x425C, symBinAddr: 0x19B68, symSize: 0x30 }
  - { offset: 0x927A3, size: 0x8, addend: 0x0, symName: '-[SCLAlertView setBackground]', symObjAddr: 0x425C, symBinAddr: 0x19B68, symSize: 0x30 }
  - { offset: 0x927AB, size: 0x8, addend: 0x0, symName: '-[SCLAlertView showView]', symObjAddr: 0x428C, symBinAddr: 0x19B98, symSize: 0x84 }
  - { offset: 0x927DC, size: 0x8, addend: 0x0, symName: '-[SCLAlertView showView]', symObjAddr: 0x428C, symBinAddr: 0x19B98, symSize: 0x84 }
  - { offset: 0x927E4, size: 0x8, addend: 0x0, symName: '-[SCLAlertView hideView]', symObjAddr: 0x4310, symBinAddr: 0x19C1C, symSize: 0x27C }
  - { offset: 0x92815, size: 0x8, addend: 0x0, symName: '-[SCLAlertView hideView]', symObjAddr: 0x4310, symBinAddr: 0x19C1C, symSize: 0x27C }
  - { offset: 0x9281D, size: 0x8, addend: 0x0, symName: '-[SCLAlertView fadeOut]', symObjAddr: 0x458C, symBinAddr: 0x19E98, symSize: 0xC }
  - { offset: 0x92867, size: 0x8, addend: 0x0, symName: '-[SCLAlertView fadeOut]', symObjAddr: 0x458C, symBinAddr: 0x19E98, symSize: 0xC }
  - { offset: 0x9286F, size: 0x8, addend: 0x0, symName: '-[SCLAlertView fadeOutWithDuration:]', symObjAddr: 0x4598, symBinAddr: 0x19EA4, symSize: 0x7C }
  - { offset: 0x928A0, size: 0x8, addend: 0x0, symName: '-[SCLAlertView fadeOutWithDuration:]', symObjAddr: 0x4598, symBinAddr: 0x19EA4, symSize: 0x7C }
  - { offset: 0x928A8, size: 0x8, addend: 0x0, symName: '___36-[SCLAlertView fadeOutWithDuration:]_block_invoke', symObjAddr: 0x4614, symBinAddr: 0x19F20, symSize: 0x60 }
  - { offset: 0x928EC, size: 0x8, addend: 0x0, symName: '___36-[SCLAlertView fadeOutWithDuration:]_block_invoke', symObjAddr: 0x4614, symBinAddr: 0x19F20, symSize: 0x60 }
  - { offset: 0x928F4, size: 0x8, addend: 0x0, symName: '___36-[SCLAlertView fadeOutWithDuration:]_block_invoke_2', symObjAddr: 0x4674, symBinAddr: 0x19F80, symSize: 0xE8 }
  - { offset: 0x9291B, size: 0x8, addend: 0x0, symName: '___36-[SCLAlertView fadeOutWithDuration:]_block_invoke_2', symObjAddr: 0x4674, symBinAddr: 0x19F80, symSize: 0xE8 }
  - { offset: 0x92923, size: 0x8, addend: 0x0, symName: '-[SCLAlertView slideOutToBottom]', symObjAddr: 0x475C, symBinAddr: 0x1A068, symSize: 0x84 }
  - { offset: 0x92957, size: 0x8, addend: 0x0, symName: '-[SCLAlertView slideOutToBottom]', symObjAddr: 0x475C, symBinAddr: 0x1A068, symSize: 0x84 }
  - { offset: 0x9295F, size: 0x8, addend: 0x0, symName: '___32-[SCLAlertView slideOutToBottom]_block_invoke', symObjAddr: 0x47E0, symBinAddr: 0x1A0EC, symSize: 0xAC }
  - { offset: 0x92992, size: 0x8, addend: 0x0, symName: '___32-[SCLAlertView slideOutToBottom]_block_invoke', symObjAddr: 0x47E0, symBinAddr: 0x1A0EC, symSize: 0xAC }
  - { offset: 0x9299A, size: 0x8, addend: 0x0, symName: '___32-[SCLAlertView slideOutToBottom]_block_invoke_2', symObjAddr: 0x488C, symBinAddr: 0x1A198, symSize: 0x8 }
  - { offset: 0x929C7, size: 0x8, addend: 0x0, symName: '___32-[SCLAlertView slideOutToBottom]_block_invoke_2', symObjAddr: 0x488C, symBinAddr: 0x1A198, symSize: 0x8 }
  - { offset: 0x929E4, size: 0x8, addend: 0x0, symName: '___32-[SCLAlertView slideOutToBottom]_block_invoke_2', symObjAddr: 0x488C, symBinAddr: 0x1A198, symSize: 0x8 }
  - { offset: 0x929EC, size: 0x8, addend: 0x0, symName: '-[SCLAlertView slideOutToTop]', symObjAddr: 0x4894, symBinAddr: 0x1A1A0, symSize: 0x84 }
  - { offset: 0x92A20, size: 0x8, addend: 0x0, symName: '-[SCLAlertView slideOutToTop]', symObjAddr: 0x4894, symBinAddr: 0x1A1A0, symSize: 0x84 }
  - { offset: 0x92A28, size: 0x8, addend: 0x0, symName: '___29-[SCLAlertView slideOutToTop]_block_invoke', symObjAddr: 0x4918, symBinAddr: 0x1A224, symSize: 0xAC }
  - { offset: 0x92A5B, size: 0x8, addend: 0x0, symName: '___29-[SCLAlertView slideOutToTop]_block_invoke', symObjAddr: 0x4918, symBinAddr: 0x1A224, symSize: 0xAC }
  - { offset: 0x92A63, size: 0x8, addend: 0x0, symName: '___29-[SCLAlertView slideOutToTop]_block_invoke_2', symObjAddr: 0x49C4, symBinAddr: 0x1A2D0, symSize: 0x8 }
  - { offset: 0x92A90, size: 0x8, addend: 0x0, symName: '___29-[SCLAlertView slideOutToTop]_block_invoke_2', symObjAddr: 0x49C4, symBinAddr: 0x1A2D0, symSize: 0x8 }
  - { offset: 0x92AAD, size: 0x8, addend: 0x0, symName: '___29-[SCLAlertView slideOutToTop]_block_invoke_2', symObjAddr: 0x49C4, symBinAddr: 0x1A2D0, symSize: 0x8 }
  - { offset: 0x92AB5, size: 0x8, addend: 0x0, symName: '-[SCLAlertView slideOutToLeft]', symObjAddr: 0x49CC, symBinAddr: 0x1A2D8, symSize: 0x84 }
  - { offset: 0x92AE9, size: 0x8, addend: 0x0, symName: '-[SCLAlertView slideOutToLeft]', symObjAddr: 0x49CC, symBinAddr: 0x1A2D8, symSize: 0x84 }
  - { offset: 0x92AF1, size: 0x8, addend: 0x0, symName: '___30-[SCLAlertView slideOutToLeft]_block_invoke', symObjAddr: 0x4A50, symBinAddr: 0x1A35C, symSize: 0xAC }
  - { offset: 0x92B24, size: 0x8, addend: 0x0, symName: '___30-[SCLAlertView slideOutToLeft]_block_invoke', symObjAddr: 0x4A50, symBinAddr: 0x1A35C, symSize: 0xAC }
  - { offset: 0x92B2C, size: 0x8, addend: 0x0, symName: '___30-[SCLAlertView slideOutToLeft]_block_invoke_2', symObjAddr: 0x4AFC, symBinAddr: 0x1A408, symSize: 0x8 }
  - { offset: 0x92B59, size: 0x8, addend: 0x0, symName: '___30-[SCLAlertView slideOutToLeft]_block_invoke_2', symObjAddr: 0x4AFC, symBinAddr: 0x1A408, symSize: 0x8 }
  - { offset: 0x92B76, size: 0x8, addend: 0x0, symName: '___30-[SCLAlertView slideOutToLeft]_block_invoke_2', symObjAddr: 0x4AFC, symBinAddr: 0x1A408, symSize: 0x8 }
  - { offset: 0x92B7E, size: 0x8, addend: 0x0, symName: '-[SCLAlertView slideOutToRight]', symObjAddr: 0x4B04, symBinAddr: 0x1A410, symSize: 0x84 }
  - { offset: 0x92BB2, size: 0x8, addend: 0x0, symName: '-[SCLAlertView slideOutToRight]', symObjAddr: 0x4B04, symBinAddr: 0x1A410, symSize: 0x84 }
  - { offset: 0x92BBA, size: 0x8, addend: 0x0, symName: '___31-[SCLAlertView slideOutToRight]_block_invoke', symObjAddr: 0x4B88, symBinAddr: 0x1A494, symSize: 0xAC }
  - { offset: 0x92BED, size: 0x8, addend: 0x0, symName: '___31-[SCLAlertView slideOutToRight]_block_invoke', symObjAddr: 0x4B88, symBinAddr: 0x1A494, symSize: 0xAC }
  - { offset: 0x92BF5, size: 0x8, addend: 0x0, symName: '___31-[SCLAlertView slideOutToRight]_block_invoke_2', symObjAddr: 0x4C34, symBinAddr: 0x1A540, symSize: 0x8 }
  - { offset: 0x92C22, size: 0x8, addend: 0x0, symName: '___31-[SCLAlertView slideOutToRight]_block_invoke_2', symObjAddr: 0x4C34, symBinAddr: 0x1A540, symSize: 0x8 }
  - { offset: 0x92C3F, size: 0x8, addend: 0x0, symName: '___31-[SCLAlertView slideOutToRight]_block_invoke_2', symObjAddr: 0x4C34, symBinAddr: 0x1A540, symSize: 0x8 }
  - { offset: 0x92C47, size: 0x8, addend: 0x0, symName: '-[SCLAlertView slideOutToCenter]', symObjAddr: 0x4C3C, symBinAddr: 0x1A548, symSize: 0x84 }
  - { offset: 0x92C7B, size: 0x8, addend: 0x0, symName: '-[SCLAlertView slideOutToCenter]', symObjAddr: 0x4C3C, symBinAddr: 0x1A548, symSize: 0x84 }
  - { offset: 0x92C83, size: 0x8, addend: 0x0, symName: '___32-[SCLAlertView slideOutToCenter]_block_invoke', symObjAddr: 0x4CC0, symBinAddr: 0x1A5CC, symSize: 0xB8 }
  - { offset: 0x92CB6, size: 0x8, addend: 0x0, symName: '___32-[SCLAlertView slideOutToCenter]_block_invoke', symObjAddr: 0x4CC0, symBinAddr: 0x1A5CC, symSize: 0xB8 }
  - { offset: 0x92CBE, size: 0x8, addend: 0x0, symName: '___32-[SCLAlertView slideOutToCenter]_block_invoke_2', symObjAddr: 0x4D78, symBinAddr: 0x1A684, symSize: 0x8 }
  - { offset: 0x92CE5, size: 0x8, addend: 0x0, symName: '___32-[SCLAlertView slideOutToCenter]_block_invoke_2', symObjAddr: 0x4D78, symBinAddr: 0x1A684, symSize: 0x8 }
  - { offset: 0x92CED, size: 0x8, addend: 0x0, symName: '-[SCLAlertView slideOutFromCenter]', symObjAddr: 0x4D80, symBinAddr: 0x1A68C, symSize: 0x84 }
  - { offset: 0x92D21, size: 0x8, addend: 0x0, symName: '-[SCLAlertView slideOutFromCenter]', symObjAddr: 0x4D80, symBinAddr: 0x1A68C, symSize: 0x84 }
  - { offset: 0x92D29, size: 0x8, addend: 0x0, symName: '___34-[SCLAlertView slideOutFromCenter]_block_invoke', symObjAddr: 0x4E04, symBinAddr: 0x1A710, symSize: 0xB4 }
  - { offset: 0x92D5C, size: 0x8, addend: 0x0, symName: '___34-[SCLAlertView slideOutFromCenter]_block_invoke', symObjAddr: 0x4E04, symBinAddr: 0x1A710, symSize: 0xB4 }
  - { offset: 0x92D64, size: 0x8, addend: 0x0, symName: '___34-[SCLAlertView slideOutFromCenter]_block_invoke_2', symObjAddr: 0x4EB8, symBinAddr: 0x1A7C4, symSize: 0x8 }
  - { offset: 0x92D8B, size: 0x8, addend: 0x0, symName: '___34-[SCLAlertView slideOutFromCenter]_block_invoke_2', symObjAddr: 0x4EB8, symBinAddr: 0x1A7C4, symSize: 0x8 }
  - { offset: 0x92D93, size: 0x8, addend: 0x0, symName: '-[SCLAlertView simplyDisappear]', symObjAddr: 0x4EC0, symBinAddr: 0x1A7CC, symSize: 0xCC }
  - { offset: 0x92DC7, size: 0x8, addend: 0x0, symName: '-[SCLAlertView simplyDisappear]', symObjAddr: 0x4EC0, symBinAddr: 0x1A7CC, symSize: 0xCC }
  - { offset: 0x92DCF, size: 0x8, addend: 0x0, symName: '___31-[SCLAlertView simplyDisappear]_block_invoke', symObjAddr: 0x4F8C, symBinAddr: 0x1A898, symSize: 0xC }
  - { offset: 0x92E02, size: 0x8, addend: 0x0, symName: '___31-[SCLAlertView simplyDisappear]_block_invoke', symObjAddr: 0x4F8C, symBinAddr: 0x1A898, symSize: 0xC }
  - { offset: 0x92E0A, size: 0x8, addend: 0x0, symName: '-[SCLAlertView fadeIn]', symObjAddr: 0x4F98, symBinAddr: 0x1A8A4, symSize: 0xD8 }
  - { offset: 0x92E31, size: 0x8, addend: 0x0, symName: '-[SCLAlertView fadeIn]', symObjAddr: 0x4F98, symBinAddr: 0x1A8A4, symSize: 0xD8 }
  - { offset: 0x92E39, size: 0x8, addend: 0x0, symName: '___22-[SCLAlertView fadeIn]_block_invoke', symObjAddr: 0x5070, symBinAddr: 0x1A97C, symSize: 0x74 }
  - { offset: 0x92E6C, size: 0x8, addend: 0x0, symName: '___22-[SCLAlertView fadeIn]_block_invoke', symObjAddr: 0x5070, symBinAddr: 0x1A97C, symSize: 0x74 }
  - { offset: 0x92E74, size: 0x8, addend: 0x0, symName: '___22-[SCLAlertView fadeIn]_block_invoke_2', symObjAddr: 0x50E4, symBinAddr: 0x1A9F0, symSize: 0x64 }
  - { offset: 0x92E9B, size: 0x8, addend: 0x0, symName: '___22-[SCLAlertView fadeIn]_block_invoke_2', symObjAddr: 0x50E4, symBinAddr: 0x1A9F0, symSize: 0x64 }
  - { offset: 0x92EA3, size: 0x8, addend: 0x0, symName: '-[SCLAlertView slideInFromTop]', symObjAddr: 0x5148, symBinAddr: 0x1AA54, symSize: 0x128 }
  - { offset: 0x92ED7, size: 0x8, addend: 0x0, symName: '-[SCLAlertView slideInFromTop]', symObjAddr: 0x5148, symBinAddr: 0x1AA54, symSize: 0x128 }
  - { offset: 0x92EDF, size: 0x8, addend: 0x0, symName: '___30-[SCLAlertView slideInFromTop]_block_invoke', symObjAddr: 0x5270, symBinAddr: 0x1AB7C, symSize: 0xD8 }
  - { offset: 0x92F23, size: 0x8, addend: 0x0, symName: '___30-[SCLAlertView slideInFromTop]_block_invoke', symObjAddr: 0x5270, symBinAddr: 0x1AB7C, symSize: 0xD8 }
  - { offset: 0x92F2B, size: 0x8, addend: 0x0, symName: '___30-[SCLAlertView slideInFromTop]_block_invoke_2', symObjAddr: 0x5348, symBinAddr: 0x1AC54, symSize: 0x64 }
  - { offset: 0x92F58, size: 0x8, addend: 0x0, symName: '___30-[SCLAlertView slideInFromTop]_block_invoke_2', symObjAddr: 0x5348, symBinAddr: 0x1AC54, symSize: 0x64 }
  - { offset: 0x92F75, size: 0x8, addend: 0x0, symName: '___30-[SCLAlertView slideInFromTop]_block_invoke_2', symObjAddr: 0x5348, symBinAddr: 0x1AC54, symSize: 0x64 }
  - { offset: 0x92F7D, size: 0x8, addend: 0x0, symName: '-[SCLAlertView slideInFromBottom]', symObjAddr: 0x53AC, symBinAddr: 0x1ACB8, symSize: 0x118 }
  - { offset: 0x92FB1, size: 0x8, addend: 0x0, symName: '-[SCLAlertView slideInFromBottom]', symObjAddr: 0x53AC, symBinAddr: 0x1ACB8, symSize: 0x118 }
  - { offset: 0x92FB9, size: 0x8, addend: 0x0, symName: '___33-[SCLAlertView slideInFromBottom]_block_invoke', symObjAddr: 0x54C4, symBinAddr: 0x1ADD0, symSize: 0xD8 }
  - { offset: 0x92FFD, size: 0x8, addend: 0x0, symName: '___33-[SCLAlertView slideInFromBottom]_block_invoke', symObjAddr: 0x54C4, symBinAddr: 0x1ADD0, symSize: 0xD8 }
  - { offset: 0x93005, size: 0x8, addend: 0x0, symName: '___33-[SCLAlertView slideInFromBottom]_block_invoke_2', symObjAddr: 0x559C, symBinAddr: 0x1AEA8, symSize: 0x8C }
  - { offset: 0x93032, size: 0x8, addend: 0x0, symName: '___33-[SCLAlertView slideInFromBottom]_block_invoke_2', symObjAddr: 0x559C, symBinAddr: 0x1AEA8, symSize: 0x8C }
  - { offset: 0x9304F, size: 0x8, addend: 0x0, symName: '___33-[SCLAlertView slideInFromBottom]_block_invoke_2', symObjAddr: 0x559C, symBinAddr: 0x1AEA8, symSize: 0x8C }
  - { offset: 0x93057, size: 0x8, addend: 0x0, symName: '___33-[SCLAlertView slideInFromBottom]_block_invoke_3', symObjAddr: 0x5628, symBinAddr: 0x1AF34, symSize: 0x70 }
  - { offset: 0x9308B, size: 0x8, addend: 0x0, symName: '___33-[SCLAlertView slideInFromBottom]_block_invoke_3', symObjAddr: 0x5628, symBinAddr: 0x1AF34, symSize: 0x70 }
  - { offset: 0x93093, size: 0x8, addend: 0x0, symName: '___33-[SCLAlertView slideInFromBottom]_block_invoke_4', symObjAddr: 0x5698, symBinAddr: 0x1AFA4, symSize: 0x64 }
  - { offset: 0x930BA, size: 0x8, addend: 0x0, symName: '___33-[SCLAlertView slideInFromBottom]_block_invoke_4', symObjAddr: 0x5698, symBinAddr: 0x1AFA4, symSize: 0x64 }
  - { offset: 0x930C2, size: 0x8, addend: 0x0, symName: '-[SCLAlertView slideInFromLeft]', symObjAddr: 0x56FC, symBinAddr: 0x1B008, symSize: 0x118 }
  - { offset: 0x930F6, size: 0x8, addend: 0x0, symName: '-[SCLAlertView slideInFromLeft]', symObjAddr: 0x56FC, symBinAddr: 0x1B008, symSize: 0x118 }
  - { offset: 0x930FE, size: 0x8, addend: 0x0, symName: '___31-[SCLAlertView slideInFromLeft]_block_invoke', symObjAddr: 0x5814, symBinAddr: 0x1B120, symSize: 0xD8 }
  - { offset: 0x93142, size: 0x8, addend: 0x0, symName: '___31-[SCLAlertView slideInFromLeft]_block_invoke', symObjAddr: 0x5814, symBinAddr: 0x1B120, symSize: 0xD8 }
  - { offset: 0x9314A, size: 0x8, addend: 0x0, symName: '___31-[SCLAlertView slideInFromLeft]_block_invoke_2', symObjAddr: 0x58EC, symBinAddr: 0x1B1F8, symSize: 0x8C }
  - { offset: 0x93177, size: 0x8, addend: 0x0, symName: '___31-[SCLAlertView slideInFromLeft]_block_invoke_2', symObjAddr: 0x58EC, symBinAddr: 0x1B1F8, symSize: 0x8C }
  - { offset: 0x93194, size: 0x8, addend: 0x0, symName: '___31-[SCLAlertView slideInFromLeft]_block_invoke_2', symObjAddr: 0x58EC, symBinAddr: 0x1B1F8, symSize: 0x8C }
  - { offset: 0x9319C, size: 0x8, addend: 0x0, symName: '___31-[SCLAlertView slideInFromLeft]_block_invoke_3', symObjAddr: 0x5978, symBinAddr: 0x1B284, symSize: 0x70 }
  - { offset: 0x931D0, size: 0x8, addend: 0x0, symName: '___31-[SCLAlertView slideInFromLeft]_block_invoke_3', symObjAddr: 0x5978, symBinAddr: 0x1B284, symSize: 0x70 }
  - { offset: 0x931D8, size: 0x8, addend: 0x0, symName: '___31-[SCLAlertView slideInFromLeft]_block_invoke_4', symObjAddr: 0x59E8, symBinAddr: 0x1B2F4, symSize: 0x64 }
  - { offset: 0x931FF, size: 0x8, addend: 0x0, symName: '___31-[SCLAlertView slideInFromLeft]_block_invoke_4', symObjAddr: 0x59E8, symBinAddr: 0x1B2F4, symSize: 0x64 }
  - { offset: 0x93207, size: 0x8, addend: 0x0, symName: '-[SCLAlertView slideInFromRight]', symObjAddr: 0x5A4C, symBinAddr: 0x1B358, symSize: 0x118 }
  - { offset: 0x9323B, size: 0x8, addend: 0x0, symName: '-[SCLAlertView slideInFromRight]', symObjAddr: 0x5A4C, symBinAddr: 0x1B358, symSize: 0x118 }
  - { offset: 0x93243, size: 0x8, addend: 0x0, symName: '___32-[SCLAlertView slideInFromRight]_block_invoke', symObjAddr: 0x5B64, symBinAddr: 0x1B470, symSize: 0xD8 }
  - { offset: 0x93287, size: 0x8, addend: 0x0, symName: '___32-[SCLAlertView slideInFromRight]_block_invoke', symObjAddr: 0x5B64, symBinAddr: 0x1B470, symSize: 0xD8 }
  - { offset: 0x9328F, size: 0x8, addend: 0x0, symName: '___32-[SCLAlertView slideInFromRight]_block_invoke_2', symObjAddr: 0x5C3C, symBinAddr: 0x1B548, symSize: 0x8C }
  - { offset: 0x932BC, size: 0x8, addend: 0x0, symName: '___32-[SCLAlertView slideInFromRight]_block_invoke_2', symObjAddr: 0x5C3C, symBinAddr: 0x1B548, symSize: 0x8C }
  - { offset: 0x932D9, size: 0x8, addend: 0x0, symName: '___32-[SCLAlertView slideInFromRight]_block_invoke_2', symObjAddr: 0x5C3C, symBinAddr: 0x1B548, symSize: 0x8C }
  - { offset: 0x932E1, size: 0x8, addend: 0x0, symName: '___32-[SCLAlertView slideInFromRight]_block_invoke_3', symObjAddr: 0x5CC8, symBinAddr: 0x1B5D4, symSize: 0x70 }
  - { offset: 0x93315, size: 0x8, addend: 0x0, symName: '___32-[SCLAlertView slideInFromRight]_block_invoke_3', symObjAddr: 0x5CC8, symBinAddr: 0x1B5D4, symSize: 0x70 }
  - { offset: 0x9331D, size: 0x8, addend: 0x0, symName: '___32-[SCLAlertView slideInFromRight]_block_invoke_4', symObjAddr: 0x5D38, symBinAddr: 0x1B644, symSize: 0x64 }
  - { offset: 0x93344, size: 0x8, addend: 0x0, symName: '___32-[SCLAlertView slideInFromRight]_block_invoke_4', symObjAddr: 0x5D38, symBinAddr: 0x1B644, symSize: 0x64 }
  - { offset: 0x9334C, size: 0x8, addend: 0x0, symName: '-[SCLAlertView slideInFromCenter]', symObjAddr: 0x5D9C, symBinAddr: 0x1B6A8, symSize: 0x124 }
  - { offset: 0x93380, size: 0x8, addend: 0x0, symName: '-[SCLAlertView slideInFromCenter]', symObjAddr: 0x5D9C, symBinAddr: 0x1B6A8, symSize: 0x124 }
  - { offset: 0x93388, size: 0x8, addend: 0x0, symName: '___33-[SCLAlertView slideInFromCenter]_block_invoke', symObjAddr: 0x5EC0, symBinAddr: 0x1B7CC, symSize: 0xEC }
  - { offset: 0x933BB, size: 0x8, addend: 0x0, symName: '___33-[SCLAlertView slideInFromCenter]_block_invoke', symObjAddr: 0x5EC0, symBinAddr: 0x1B7CC, symSize: 0xEC }
  - { offset: 0x933C3, size: 0x8, addend: 0x0, symName: '___33-[SCLAlertView slideInFromCenter]_block_invoke_2', symObjAddr: 0x5FAC, symBinAddr: 0x1B8B8, symSize: 0x8C }
  - { offset: 0x933EA, size: 0x8, addend: 0x0, symName: '___33-[SCLAlertView slideInFromCenter]_block_invoke_2', symObjAddr: 0x5FAC, symBinAddr: 0x1B8B8, symSize: 0x8C }
  - { offset: 0x933F2, size: 0x8, addend: 0x0, symName: '___33-[SCLAlertView slideInFromCenter]_block_invoke_3', symObjAddr: 0x6038, symBinAddr: 0x1B944, symSize: 0x70 }
  - { offset: 0x93426, size: 0x8, addend: 0x0, symName: '___33-[SCLAlertView slideInFromCenter]_block_invoke_3', symObjAddr: 0x6038, symBinAddr: 0x1B944, symSize: 0x70 }
  - { offset: 0x9342E, size: 0x8, addend: 0x0, symName: '___33-[SCLAlertView slideInFromCenter]_block_invoke_4', symObjAddr: 0x60A8, symBinAddr: 0x1B9B4, symSize: 0x64 }
  - { offset: 0x93455, size: 0x8, addend: 0x0, symName: '___33-[SCLAlertView slideInFromCenter]_block_invoke_4', symObjAddr: 0x60A8, symBinAddr: 0x1B9B4, symSize: 0x64 }
  - { offset: 0x9345D, size: 0x8, addend: 0x0, symName: '-[SCLAlertView slideInToCenter]', symObjAddr: 0x610C, symBinAddr: 0x1BA18, symSize: 0x128 }
  - { offset: 0x93491, size: 0x8, addend: 0x0, symName: '-[SCLAlertView slideInToCenter]', symObjAddr: 0x610C, symBinAddr: 0x1BA18, symSize: 0x128 }
  - { offset: 0x93499, size: 0x8, addend: 0x0, symName: '___31-[SCLAlertView slideInToCenter]_block_invoke', symObjAddr: 0x6234, symBinAddr: 0x1BB40, symSize: 0xEC }
  - { offset: 0x934CC, size: 0x8, addend: 0x0, symName: '___31-[SCLAlertView slideInToCenter]_block_invoke', symObjAddr: 0x6234, symBinAddr: 0x1BB40, symSize: 0xEC }
  - { offset: 0x934D4, size: 0x8, addend: 0x0, symName: '___31-[SCLAlertView slideInToCenter]_block_invoke_2', symObjAddr: 0x6320, symBinAddr: 0x1BC2C, symSize: 0x8C }
  - { offset: 0x934FB, size: 0x8, addend: 0x0, symName: '___31-[SCLAlertView slideInToCenter]_block_invoke_2', symObjAddr: 0x6320, symBinAddr: 0x1BC2C, symSize: 0x8C }
  - { offset: 0x93503, size: 0x8, addend: 0x0, symName: '___31-[SCLAlertView slideInToCenter]_block_invoke_3', symObjAddr: 0x63AC, symBinAddr: 0x1BCB8, symSize: 0x70 }
  - { offset: 0x93537, size: 0x8, addend: 0x0, symName: '___31-[SCLAlertView slideInToCenter]_block_invoke_3', symObjAddr: 0x63AC, symBinAddr: 0x1BCB8, symSize: 0x70 }
  - { offset: 0x9353F, size: 0x8, addend: 0x0, symName: '___31-[SCLAlertView slideInToCenter]_block_invoke_4', symObjAddr: 0x641C, symBinAddr: 0x1BD28, symSize: 0x64 }
  - { offset: 0x93566, size: 0x8, addend: 0x0, symName: '___31-[SCLAlertView slideInToCenter]_block_invoke_4', symObjAddr: 0x641C, symBinAddr: 0x1BD28, symSize: 0x64 }
  - { offset: 0x9356E, size: 0x8, addend: 0x0, symName: '-[SCLAlertView simplyAppear]', symObjAddr: 0x6480, symBinAddr: 0x1BD8C, symSize: 0xB8 }
  - { offset: 0x935A2, size: 0x8, addend: 0x0, symName: '-[SCLAlertView simplyAppear]', symObjAddr: 0x6480, symBinAddr: 0x1BD8C, symSize: 0xB8 }
  - { offset: 0x935AA, size: 0x8, addend: 0x0, symName: '___28-[SCLAlertView simplyAppear]_block_invoke', symObjAddr: 0x6538, symBinAddr: 0x1BE44, symSize: 0xC4 }
  - { offset: 0x935DD, size: 0x8, addend: 0x0, symName: '___28-[SCLAlertView simplyAppear]_block_invoke', symObjAddr: 0x6538, symBinAddr: 0x1BE44, symSize: 0xC4 }
  - { offset: 0x935E5, size: 0x8, addend: 0x0, symName: '-[SCLAlertView cornerRadius]', symObjAddr: 0x65FC, symBinAddr: 0x1BF08, symSize: 0x10 }
  - { offset: 0x9360C, size: 0x8, addend: 0x0, symName: '-[SCLAlertView cornerRadius]', symObjAddr: 0x65FC, symBinAddr: 0x1BF08, symSize: 0x10 }
  - { offset: 0x93614, size: 0x8, addend: 0x0, symName: '-[SCLAlertView setCornerRadius:]', symObjAddr: 0x660C, symBinAddr: 0x1BF18, symSize: 0x10 }
  - { offset: 0x93649, size: 0x8, addend: 0x0, symName: '-[SCLAlertView setCornerRadius:]', symObjAddr: 0x660C, symBinAddr: 0x1BF18, symSize: 0x10 }
  - { offset: 0x93651, size: 0x8, addend: 0x0, symName: '-[SCLAlertView tintTopCircle]', symObjAddr: 0x661C, symBinAddr: 0x1BF28, symSize: 0x10 }
  - { offset: 0x9368F, size: 0x8, addend: 0x0, symName: '-[SCLAlertView tintTopCircle]', symObjAddr: 0x661C, symBinAddr: 0x1BF28, symSize: 0x10 }
  - { offset: 0x93697, size: 0x8, addend: 0x0, symName: '-[SCLAlertView setTintTopCircle:]', symObjAddr: 0x662C, symBinAddr: 0x1BF38, symSize: 0x10 }
  - { offset: 0x936CE, size: 0x8, addend: 0x0, symName: '-[SCLAlertView setTintTopCircle:]', symObjAddr: 0x662C, symBinAddr: 0x1BF38, symSize: 0x10 }
  - { offset: 0x936D6, size: 0x8, addend: 0x0, symName: '-[SCLAlertView useLargerIcon]', symObjAddr: 0x663C, symBinAddr: 0x1BF48, symSize: 0x10 }
  - { offset: 0x93711, size: 0x8, addend: 0x0, symName: '-[SCLAlertView useLargerIcon]', symObjAddr: 0x663C, symBinAddr: 0x1BF48, symSize: 0x10 }
  - { offset: 0x93719, size: 0x8, addend: 0x0, symName: '-[SCLAlertView setUseLargerIcon:]', symObjAddr: 0x664C, symBinAddr: 0x1BF58, symSize: 0x10 }
  - { offset: 0x93750, size: 0x8, addend: 0x0, symName: '-[SCLAlertView setUseLargerIcon:]', symObjAddr: 0x664C, symBinAddr: 0x1BF58, symSize: 0x10 }
  - { offset: 0x93758, size: 0x8, addend: 0x0, symName: '-[SCLAlertView labelTitle]', symObjAddr: 0x665C, symBinAddr: 0x1BF68, symSize: 0x10 }
  - { offset: 0x93793, size: 0x8, addend: 0x0, symName: '-[SCLAlertView labelTitle]', symObjAddr: 0x665C, symBinAddr: 0x1BF68, symSize: 0x10 }
  - { offset: 0x9379B, size: 0x8, addend: 0x0, symName: '-[SCLAlertView setLabelTitle:]', symObjAddr: 0x666C, symBinAddr: 0x1BF78, symSize: 0x14 }
  - { offset: 0x937D2, size: 0x8, addend: 0x0, symName: '-[SCLAlertView setLabelTitle:]', symObjAddr: 0x666C, symBinAddr: 0x1BF78, symSize: 0x14 }
  - { offset: 0x937DA, size: 0x8, addend: 0x0, symName: '-[SCLAlertView viewText]', symObjAddr: 0x6680, symBinAddr: 0x1BF8C, symSize: 0x10 }
  - { offset: 0x9381B, size: 0x8, addend: 0x0, symName: '-[SCLAlertView viewText]', symObjAddr: 0x6680, symBinAddr: 0x1BF8C, symSize: 0x10 }
  - { offset: 0x93823, size: 0x8, addend: 0x0, symName: '-[SCLAlertView setViewText:]', symObjAddr: 0x6690, symBinAddr: 0x1BF9C, symSize: 0x14 }
  - { offset: 0x9385A, size: 0x8, addend: 0x0, symName: '-[SCLAlertView setViewText:]', symObjAddr: 0x6690, symBinAddr: 0x1BF9C, symSize: 0x14 }
  - { offset: 0x93862, size: 0x8, addend: 0x0, symName: '-[SCLAlertView activityIndicatorView]', symObjAddr: 0x66A4, symBinAddr: 0x1BFB0, symSize: 0x10 }
  - { offset: 0x938A3, size: 0x8, addend: 0x0, symName: '-[SCLAlertView activityIndicatorView]', symObjAddr: 0x66A4, symBinAddr: 0x1BFB0, symSize: 0x10 }
  - { offset: 0x938AB, size: 0x8, addend: 0x0, symName: '-[SCLAlertView setActivityIndicatorView:]', symObjAddr: 0x66B4, symBinAddr: 0x1BFC0, symSize: 0x14 }
  - { offset: 0x938E2, size: 0x8, addend: 0x0, symName: '-[SCLAlertView setActivityIndicatorView:]', symObjAddr: 0x66B4, symBinAddr: 0x1BFC0, symSize: 0x14 }
  - { offset: 0x938EA, size: 0x8, addend: 0x0, symName: '-[SCLAlertView shouldDismissOnTapOutside]', symObjAddr: 0x66C8, symBinAddr: 0x1BFD4, symSize: 0x10 }
  - { offset: 0x9392B, size: 0x8, addend: 0x0, symName: '-[SCLAlertView shouldDismissOnTapOutside]', symObjAddr: 0x66C8, symBinAddr: 0x1BFD4, symSize: 0x10 }
  - { offset: 0x93933, size: 0x8, addend: 0x0, symName: '-[SCLAlertView soundURL]', symObjAddr: 0x66D8, symBinAddr: 0x1BFE4, symSize: 0x10 }
  - { offset: 0x9396A, size: 0x8, addend: 0x0, symName: '-[SCLAlertView soundURL]', symObjAddr: 0x66D8, symBinAddr: 0x1BFE4, symSize: 0x10 }
  - { offset: 0x93972, size: 0x8, addend: 0x0, symName: '-[SCLAlertView attributedFormatBlock]', symObjAddr: 0x66E8, symBinAddr: 0x1BFF4, symSize: 0x10 }
  - { offset: 0x939A9, size: 0x8, addend: 0x0, symName: '-[SCLAlertView attributedFormatBlock]', symObjAddr: 0x66E8, symBinAddr: 0x1BFF4, symSize: 0x10 }
  - { offset: 0x939B1, size: 0x8, addend: 0x0, symName: '-[SCLAlertView setAttributedFormatBlock:]', symObjAddr: 0x66F8, symBinAddr: 0x1C004, symSize: 0xC }
  - { offset: 0x939E8, size: 0x8, addend: 0x0, symName: '-[SCLAlertView setAttributedFormatBlock:]', symObjAddr: 0x66F8, symBinAddr: 0x1C004, symSize: 0xC }
  - { offset: 0x939F0, size: 0x8, addend: 0x0, symName: '-[SCLAlertView completeButtonFormatBlock]', symObjAddr: 0x6704, symBinAddr: 0x1C010, symSize: 0x10 }
  - { offset: 0x93A2F, size: 0x8, addend: 0x0, symName: '-[SCLAlertView completeButtonFormatBlock]', symObjAddr: 0x6704, symBinAddr: 0x1C010, symSize: 0x10 }
  - { offset: 0x93A37, size: 0x8, addend: 0x0, symName: '-[SCLAlertView setCompleteButtonFormatBlock:]', symObjAddr: 0x6714, symBinAddr: 0x1C020, symSize: 0xC }
  - { offset: 0x93A6E, size: 0x8, addend: 0x0, symName: '-[SCLAlertView setCompleteButtonFormatBlock:]', symObjAddr: 0x6714, symBinAddr: 0x1C020, symSize: 0xC }
  - { offset: 0x93A76, size: 0x8, addend: 0x0, symName: '-[SCLAlertView buttonFormatBlock]', symObjAddr: 0x6720, symBinAddr: 0x1C02C, symSize: 0x10 }
  - { offset: 0x93AB5, size: 0x8, addend: 0x0, symName: '-[SCLAlertView buttonFormatBlock]', symObjAddr: 0x6720, symBinAddr: 0x1C02C, symSize: 0x10 }
  - { offset: 0x93ABD, size: 0x8, addend: 0x0, symName: '-[SCLAlertView setButtonFormatBlock:]', symObjAddr: 0x6730, symBinAddr: 0x1C03C, symSize: 0xC }
  - { offset: 0x93AF4, size: 0x8, addend: 0x0, symName: '-[SCLAlertView setButtonFormatBlock:]', symObjAddr: 0x6730, symBinAddr: 0x1C03C, symSize: 0xC }
  - { offset: 0x93AFC, size: 0x8, addend: 0x0, symName: '-[SCLAlertView forceHideBlock]', symObjAddr: 0x673C, symBinAddr: 0x1C048, symSize: 0x10 }
  - { offset: 0x93B3B, size: 0x8, addend: 0x0, symName: '-[SCLAlertView forceHideBlock]', symObjAddr: 0x673C, symBinAddr: 0x1C048, symSize: 0x10 }
  - { offset: 0x93B43, size: 0x8, addend: 0x0, symName: '-[SCLAlertView setForceHideBlock:]', symObjAddr: 0x674C, symBinAddr: 0x1C058, symSize: 0xC }
  - { offset: 0x93B7A, size: 0x8, addend: 0x0, symName: '-[SCLAlertView setForceHideBlock:]', symObjAddr: 0x674C, symBinAddr: 0x1C058, symSize: 0xC }
  - { offset: 0x93B82, size: 0x8, addend: 0x0, symName: '-[SCLAlertView hideAnimationType]', symObjAddr: 0x6758, symBinAddr: 0x1C064, symSize: 0x10 }
  - { offset: 0x93BC1, size: 0x8, addend: 0x0, symName: '-[SCLAlertView hideAnimationType]', symObjAddr: 0x6758, symBinAddr: 0x1C064, symSize: 0x10 }
  - { offset: 0x93BC9, size: 0x8, addend: 0x0, symName: '-[SCLAlertView setHideAnimationType:]', symObjAddr: 0x6768, symBinAddr: 0x1C074, symSize: 0x10 }
  - { offset: 0x93C00, size: 0x8, addend: 0x0, symName: '-[SCLAlertView setHideAnimationType:]', symObjAddr: 0x6768, symBinAddr: 0x1C074, symSize: 0x10 }
  - { offset: 0x93C08, size: 0x8, addend: 0x0, symName: '-[SCLAlertView showAnimationType]', symObjAddr: 0x6778, symBinAddr: 0x1C084, symSize: 0x10 }
  - { offset: 0x93C45, size: 0x8, addend: 0x0, symName: '-[SCLAlertView showAnimationType]', symObjAddr: 0x6778, symBinAddr: 0x1C084, symSize: 0x10 }
  - { offset: 0x93C4D, size: 0x8, addend: 0x0, symName: '-[SCLAlertView setShowAnimationType:]', symObjAddr: 0x6788, symBinAddr: 0x1C094, symSize: 0x10 }
  - { offset: 0x93C84, size: 0x8, addend: 0x0, symName: '-[SCLAlertView setShowAnimationType:]', symObjAddr: 0x6788, symBinAddr: 0x1C094, symSize: 0x10 }
  - { offset: 0x93C8C, size: 0x8, addend: 0x0, symName: '-[SCLAlertView backgroundType]', symObjAddr: 0x6798, symBinAddr: 0x1C0A4, symSize: 0x10 }
  - { offset: 0x93CC9, size: 0x8, addend: 0x0, symName: '-[SCLAlertView backgroundType]', symObjAddr: 0x6798, symBinAddr: 0x1C0A4, symSize: 0x10 }
  - { offset: 0x93CD1, size: 0x8, addend: 0x0, symName: '-[SCLAlertView setBackgroundType:]', symObjAddr: 0x67A8, symBinAddr: 0x1C0B4, symSize: 0x10 }
  - { offset: 0x93D08, size: 0x8, addend: 0x0, symName: '-[SCLAlertView setBackgroundType:]', symObjAddr: 0x67A8, symBinAddr: 0x1C0B4, symSize: 0x10 }
  - { offset: 0x93D10, size: 0x8, addend: 0x0, symName: '-[SCLAlertView customViewColor]', symObjAddr: 0x67B8, symBinAddr: 0x1C0C4, symSize: 0x10 }
  - { offset: 0x93D4D, size: 0x8, addend: 0x0, symName: '-[SCLAlertView customViewColor]', symObjAddr: 0x67B8, symBinAddr: 0x1C0C4, symSize: 0x10 }
  - { offset: 0x93D55, size: 0x8, addend: 0x0, symName: '-[SCLAlertView setCustomViewColor:]', symObjAddr: 0x67C8, symBinAddr: 0x1C0D4, symSize: 0x14 }
  - { offset: 0x93D8C, size: 0x8, addend: 0x0, symName: '-[SCLAlertView setCustomViewColor:]', symObjAddr: 0x67C8, symBinAddr: 0x1C0D4, symSize: 0x14 }
  - { offset: 0x93D94, size: 0x8, addend: 0x0, symName: '-[SCLAlertView backgroundViewColor]', symObjAddr: 0x67DC, symBinAddr: 0x1C0E8, symSize: 0x10 }
  - { offset: 0x93DD5, size: 0x8, addend: 0x0, symName: '-[SCLAlertView backgroundViewColor]', symObjAddr: 0x67DC, symBinAddr: 0x1C0E8, symSize: 0x10 }
  - { offset: 0x93DDD, size: 0x8, addend: 0x0, symName: '-[SCLAlertView iconTintColor]', symObjAddr: 0x67EC, symBinAddr: 0x1C0F8, symSize: 0x10 }
  - { offset: 0x93E14, size: 0x8, addend: 0x0, symName: '-[SCLAlertView iconTintColor]', symObjAddr: 0x67EC, symBinAddr: 0x1C0F8, symSize: 0x10 }
  - { offset: 0x93E1C, size: 0x8, addend: 0x0, symName: '-[SCLAlertView setIconTintColor:]', symObjAddr: 0x67FC, symBinAddr: 0x1C108, symSize: 0x14 }
  - { offset: 0x93E53, size: 0x8, addend: 0x0, symName: '-[SCLAlertView setIconTintColor:]', symObjAddr: 0x67FC, symBinAddr: 0x1C108, symSize: 0x14 }
  - { offset: 0x93E5B, size: 0x8, addend: 0x0, symName: '-[SCLAlertView circleIconHeight]', symObjAddr: 0x6810, symBinAddr: 0x1C11C, symSize: 0x10 }
  - { offset: 0x93E9C, size: 0x8, addend: 0x0, symName: '-[SCLAlertView circleIconHeight]', symObjAddr: 0x6810, symBinAddr: 0x1C11C, symSize: 0x10 }
  - { offset: 0x93EA4, size: 0x8, addend: 0x0, symName: '-[SCLAlertView setCircleIconHeight:]', symObjAddr: 0x6820, symBinAddr: 0x1C12C, symSize: 0x10 }
  - { offset: 0x93ED9, size: 0x8, addend: 0x0, symName: '-[SCLAlertView setCircleIconHeight:]', symObjAddr: 0x6820, symBinAddr: 0x1C12C, symSize: 0x10 }
  - { offset: 0x93EE1, size: 0x8, addend: 0x0, symName: '-[SCLAlertView extensionBounds]', symObjAddr: 0x6830, symBinAddr: 0x1C13C, symSize: 0x18 }
  - { offset: 0x93F1F, size: 0x8, addend: 0x0, symName: '-[SCLAlertView extensionBounds]', symObjAddr: 0x6830, symBinAddr: 0x1C13C, symSize: 0x18 }
  - { offset: 0x93F27, size: 0x8, addend: 0x0, symName: '-[SCLAlertView setExtensionBounds:]', symObjAddr: 0x6848, symBinAddr: 0x1C154, symSize: 0x18 }
  - { offset: 0x93F5C, size: 0x8, addend: 0x0, symName: '-[SCLAlertView setExtensionBounds:]', symObjAddr: 0x6848, symBinAddr: 0x1C154, symSize: 0x18 }
  - { offset: 0x93F64, size: 0x8, addend: 0x0, symName: '-[SCLAlertView statusBarHidden]', symObjAddr: 0x6860, symBinAddr: 0x1C16C, symSize: 0x10 }
  - { offset: 0x93FA3, size: 0x8, addend: 0x0, symName: '-[SCLAlertView statusBarHidden]', symObjAddr: 0x6860, symBinAddr: 0x1C16C, symSize: 0x10 }
  - { offset: 0x93FAB, size: 0x8, addend: 0x0, symName: '-[SCLAlertView setStatusBarHidden:]', symObjAddr: 0x6870, symBinAddr: 0x1C17C, symSize: 0x10 }
  - { offset: 0x93FE2, size: 0x8, addend: 0x0, symName: '-[SCLAlertView setStatusBarHidden:]', symObjAddr: 0x6870, symBinAddr: 0x1C17C, symSize: 0x10 }
  - { offset: 0x93FEA, size: 0x8, addend: 0x0, symName: '-[SCLAlertView statusBarStyle]', symObjAddr: 0x6880, symBinAddr: 0x1C18C, symSize: 0x10 }
  - { offset: 0x94025, size: 0x8, addend: 0x0, symName: '-[SCLAlertView statusBarStyle]', symObjAddr: 0x6880, symBinAddr: 0x1C18C, symSize: 0x10 }
  - { offset: 0x9402D, size: 0x8, addend: 0x0, symName: '-[SCLAlertView setStatusBarStyle:]', symObjAddr: 0x6890, symBinAddr: 0x1C19C, symSize: 0x10 }
  - { offset: 0x94064, size: 0x8, addend: 0x0, symName: '-[SCLAlertView setStatusBarStyle:]', symObjAddr: 0x6890, symBinAddr: 0x1C19C, symSize: 0x10 }
  - { offset: 0x9406C, size: 0x8, addend: 0x0, symName: '-[SCLAlertView horizontalButtons]', symObjAddr: 0x68A0, symBinAddr: 0x1C1AC, symSize: 0x10 }
  - { offset: 0x940A9, size: 0x8, addend: 0x0, symName: '-[SCLAlertView horizontalButtons]', symObjAddr: 0x68A0, symBinAddr: 0x1C1AC, symSize: 0x10 }
  - { offset: 0x940B1, size: 0x8, addend: 0x0, symName: '-[SCLAlertView setHorizontalButtons:]', symObjAddr: 0x68B0, symBinAddr: 0x1C1BC, symSize: 0x10 }
  - { offset: 0x940E8, size: 0x8, addend: 0x0, symName: '-[SCLAlertView setHorizontalButtons:]', symObjAddr: 0x68B0, symBinAddr: 0x1C1BC, symSize: 0x10 }
  - { offset: 0x940F0, size: 0x8, addend: 0x0, symName: '-[SCLAlertView inputs]', symObjAddr: 0x68C0, symBinAddr: 0x1C1CC, symSize: 0x10 }
  - { offset: 0x9412B, size: 0x8, addend: 0x0, symName: '-[SCLAlertView inputs]', symObjAddr: 0x68C0, symBinAddr: 0x1C1CC, symSize: 0x10 }
  - { offset: 0x94133, size: 0x8, addend: 0x0, symName: '-[SCLAlertView setInputs:]', symObjAddr: 0x68D0, symBinAddr: 0x1C1DC, symSize: 0x14 }
  - { offset: 0x9416A, size: 0x8, addend: 0x0, symName: '-[SCLAlertView setInputs:]', symObjAddr: 0x68D0, symBinAddr: 0x1C1DC, symSize: 0x14 }
  - { offset: 0x94172, size: 0x8, addend: 0x0, symName: '-[SCLAlertView customViews]', symObjAddr: 0x68E4, symBinAddr: 0x1C1F0, symSize: 0x10 }
  - { offset: 0x941B3, size: 0x8, addend: 0x0, symName: '-[SCLAlertView customViews]', symObjAddr: 0x68E4, symBinAddr: 0x1C1F0, symSize: 0x10 }
  - { offset: 0x941BB, size: 0x8, addend: 0x0, symName: '-[SCLAlertView setCustomViews:]', symObjAddr: 0x68F4, symBinAddr: 0x1C200, symSize: 0x14 }
  - { offset: 0x941F2, size: 0x8, addend: 0x0, symName: '-[SCLAlertView setCustomViews:]', symObjAddr: 0x68F4, symBinAddr: 0x1C200, symSize: 0x14 }
  - { offset: 0x941FA, size: 0x8, addend: 0x0, symName: '-[SCLAlertView buttons]', symObjAddr: 0x6908, symBinAddr: 0x1C214, symSize: 0x10 }
  - { offset: 0x9423B, size: 0x8, addend: 0x0, symName: '-[SCLAlertView buttons]', symObjAddr: 0x6908, symBinAddr: 0x1C214, symSize: 0x10 }
  - { offset: 0x94243, size: 0x8, addend: 0x0, symName: '-[SCLAlertView setButtons:]', symObjAddr: 0x6918, symBinAddr: 0x1C224, symSize: 0x14 }
  - { offset: 0x9427A, size: 0x8, addend: 0x0, symName: '-[SCLAlertView setButtons:]', symObjAddr: 0x6918, symBinAddr: 0x1C224, symSize: 0x14 }
  - { offset: 0x94282, size: 0x8, addend: 0x0, symName: '-[SCLAlertView circleIconImageView]', symObjAddr: 0x692C, symBinAddr: 0x1C238, symSize: 0x10 }
  - { offset: 0x942C3, size: 0x8, addend: 0x0, symName: '-[SCLAlertView circleIconImageView]', symObjAddr: 0x692C, symBinAddr: 0x1C238, symSize: 0x10 }
  - { offset: 0x942CB, size: 0x8, addend: 0x0, symName: '-[SCLAlertView setCircleIconImageView:]', symObjAddr: 0x693C, symBinAddr: 0x1C248, symSize: 0x14 }
  - { offset: 0x94302, size: 0x8, addend: 0x0, symName: '-[SCLAlertView setCircleIconImageView:]', symObjAddr: 0x693C, symBinAddr: 0x1C248, symSize: 0x14 }
  - { offset: 0x9430A, size: 0x8, addend: 0x0, symName: '-[SCLAlertView circleView]', symObjAddr: 0x6950, symBinAddr: 0x1C25C, symSize: 0x10 }
  - { offset: 0x9434B, size: 0x8, addend: 0x0, symName: '-[SCLAlertView circleView]', symObjAddr: 0x6950, symBinAddr: 0x1C25C, symSize: 0x10 }
  - { offset: 0x94353, size: 0x8, addend: 0x0, symName: '-[SCLAlertView setCircleView:]', symObjAddr: 0x6960, symBinAddr: 0x1C26C, symSize: 0x14 }
  - { offset: 0x9438A, size: 0x8, addend: 0x0, symName: '-[SCLAlertView setCircleView:]', symObjAddr: 0x6960, symBinAddr: 0x1C26C, symSize: 0x14 }
  - { offset: 0x94392, size: 0x8, addend: 0x0, symName: '-[SCLAlertView circleViewBackground]', symObjAddr: 0x6974, symBinAddr: 0x1C280, symSize: 0x10 }
  - { offset: 0x943D3, size: 0x8, addend: 0x0, symName: '-[SCLAlertView circleViewBackground]', symObjAddr: 0x6974, symBinAddr: 0x1C280, symSize: 0x10 }
  - { offset: 0x943DB, size: 0x8, addend: 0x0, symName: '-[SCLAlertView setCircleViewBackground:]', symObjAddr: 0x6984, symBinAddr: 0x1C290, symSize: 0x14 }
  - { offset: 0x94412, size: 0x8, addend: 0x0, symName: '-[SCLAlertView setCircleViewBackground:]', symObjAddr: 0x6984, symBinAddr: 0x1C290, symSize: 0x14 }
  - { offset: 0x9441A, size: 0x8, addend: 0x0, symName: '-[SCLAlertView contentView]', symObjAddr: 0x6998, symBinAddr: 0x1C2A4, symSize: 0x10 }
  - { offset: 0x9445B, size: 0x8, addend: 0x0, symName: '-[SCLAlertView contentView]', symObjAddr: 0x6998, symBinAddr: 0x1C2A4, symSize: 0x10 }
  - { offset: 0x94463, size: 0x8, addend: 0x0, symName: '-[SCLAlertView setContentView:]', symObjAddr: 0x69A8, symBinAddr: 0x1C2B4, symSize: 0x14 }
  - { offset: 0x9449A, size: 0x8, addend: 0x0, symName: '-[SCLAlertView setContentView:]', symObjAddr: 0x69A8, symBinAddr: 0x1C2B4, symSize: 0x14 }
  - { offset: 0x944A2, size: 0x8, addend: 0x0, symName: '-[SCLAlertView backgroundView]', symObjAddr: 0x69BC, symBinAddr: 0x1C2C8, symSize: 0x10 }
  - { offset: 0x944E3, size: 0x8, addend: 0x0, symName: '-[SCLAlertView backgroundView]', symObjAddr: 0x69BC, symBinAddr: 0x1C2C8, symSize: 0x10 }
  - { offset: 0x944EB, size: 0x8, addend: 0x0, symName: '-[SCLAlertView setBackgroundView:]', symObjAddr: 0x69CC, symBinAddr: 0x1C2D8, symSize: 0x14 }
  - { offset: 0x94522, size: 0x8, addend: 0x0, symName: '-[SCLAlertView setBackgroundView:]', symObjAddr: 0x69CC, symBinAddr: 0x1C2D8, symSize: 0x14 }
  - { offset: 0x9452A, size: 0x8, addend: 0x0, symName: '-[SCLAlertView gestureRecognizer]', symObjAddr: 0x69E0, symBinAddr: 0x1C2EC, symSize: 0x10 }
  - { offset: 0x9456B, size: 0x8, addend: 0x0, symName: '-[SCLAlertView gestureRecognizer]', symObjAddr: 0x69E0, symBinAddr: 0x1C2EC, symSize: 0x10 }
  - { offset: 0x94573, size: 0x8, addend: 0x0, symName: '-[SCLAlertView setGestureRecognizer:]', symObjAddr: 0x69F0, symBinAddr: 0x1C2FC, symSize: 0x14 }
  - { offset: 0x945AA, size: 0x8, addend: 0x0, symName: '-[SCLAlertView setGestureRecognizer:]', symObjAddr: 0x69F0, symBinAddr: 0x1C2FC, symSize: 0x14 }
  - { offset: 0x945B2, size: 0x8, addend: 0x0, symName: '-[SCLAlertView titleFontFamily]', symObjAddr: 0x6A04, symBinAddr: 0x1C310, symSize: 0x10 }
  - { offset: 0x945F3, size: 0x8, addend: 0x0, symName: '-[SCLAlertView titleFontFamily]', symObjAddr: 0x6A04, symBinAddr: 0x1C310, symSize: 0x10 }
  - { offset: 0x945FB, size: 0x8, addend: 0x0, symName: '-[SCLAlertView setTitleFontFamily:]', symObjAddr: 0x6A14, symBinAddr: 0x1C320, symSize: 0x14 }
  - { offset: 0x94632, size: 0x8, addend: 0x0, symName: '-[SCLAlertView setTitleFontFamily:]', symObjAddr: 0x6A14, symBinAddr: 0x1C320, symSize: 0x14 }
  - { offset: 0x9463A, size: 0x8, addend: 0x0, symName: '-[SCLAlertView bodyTextFontFamily]', symObjAddr: 0x6A28, symBinAddr: 0x1C334, symSize: 0x10 }
  - { offset: 0x9467B, size: 0x8, addend: 0x0, symName: '-[SCLAlertView bodyTextFontFamily]', symObjAddr: 0x6A28, symBinAddr: 0x1C334, symSize: 0x10 }
  - { offset: 0x94683, size: 0x8, addend: 0x0, symName: '-[SCLAlertView setBodyTextFontFamily:]', symObjAddr: 0x6A38, symBinAddr: 0x1C344, symSize: 0x14 }
  - { offset: 0x946BA, size: 0x8, addend: 0x0, symName: '-[SCLAlertView setBodyTextFontFamily:]', symObjAddr: 0x6A38, symBinAddr: 0x1C344, symSize: 0x14 }
  - { offset: 0x946C2, size: 0x8, addend: 0x0, symName: '-[SCLAlertView buttonsFontFamily]', symObjAddr: 0x6A4C, symBinAddr: 0x1C358, symSize: 0x10 }
  - { offset: 0x94703, size: 0x8, addend: 0x0, symName: '-[SCLAlertView buttonsFontFamily]', symObjAddr: 0x6A4C, symBinAddr: 0x1C358, symSize: 0x10 }
  - { offset: 0x9470B, size: 0x8, addend: 0x0, symName: '-[SCLAlertView setButtonsFontFamily:]', symObjAddr: 0x6A5C, symBinAddr: 0x1C368, symSize: 0x14 }
  - { offset: 0x94742, size: 0x8, addend: 0x0, symName: '-[SCLAlertView setButtonsFontFamily:]', symObjAddr: 0x6A5C, symBinAddr: 0x1C368, symSize: 0x14 }
  - { offset: 0x9474A, size: 0x8, addend: 0x0, symName: '-[SCLAlertView previousWindow]', symObjAddr: 0x6A70, symBinAddr: 0x1C37C, symSize: 0x10 }
  - { offset: 0x9478B, size: 0x8, addend: 0x0, symName: '-[SCLAlertView previousWindow]', symObjAddr: 0x6A70, symBinAddr: 0x1C37C, symSize: 0x10 }
  - { offset: 0x94793, size: 0x8, addend: 0x0, symName: '-[SCLAlertView setPreviousWindow:]', symObjAddr: 0x6A80, symBinAddr: 0x1C38C, symSize: 0x14 }
  - { offset: 0x947CA, size: 0x8, addend: 0x0, symName: '-[SCLAlertView setPreviousWindow:]', symObjAddr: 0x6A80, symBinAddr: 0x1C38C, symSize: 0x14 }
  - { offset: 0x947D2, size: 0x8, addend: 0x0, symName: '-[SCLAlertView SCLAlertWindow]', symObjAddr: 0x6A94, symBinAddr: 0x1C3A0, symSize: 0x10 }
  - { offset: 0x94813, size: 0x8, addend: 0x0, symName: '-[SCLAlertView SCLAlertWindow]', symObjAddr: 0x6A94, symBinAddr: 0x1C3A0, symSize: 0x10 }
  - { offset: 0x9481B, size: 0x8, addend: 0x0, symName: '-[SCLAlertView setSCLAlertWindow:]', symObjAddr: 0x6AA4, symBinAddr: 0x1C3B0, symSize: 0x14 }
  - { offset: 0x94852, size: 0x8, addend: 0x0, symName: '-[SCLAlertView setSCLAlertWindow:]', symObjAddr: 0x6AA4, symBinAddr: 0x1C3B0, symSize: 0x14 }
  - { offset: 0x9485A, size: 0x8, addend: 0x0, symName: '-[SCLAlertView dismissBlock]', symObjAddr: 0x6AB8, symBinAddr: 0x1C3C4, symSize: 0x10 }
  - { offset: 0x9489B, size: 0x8, addend: 0x0, symName: '-[SCLAlertView dismissBlock]', symObjAddr: 0x6AB8, symBinAddr: 0x1C3C4, symSize: 0x10 }
  - { offset: 0x948A3, size: 0x8, addend: 0x0, symName: '-[SCLAlertView setDismissBlock:]', symObjAddr: 0x6AC8, symBinAddr: 0x1C3D4, symSize: 0xC }
  - { offset: 0x948DA, size: 0x8, addend: 0x0, symName: '-[SCLAlertView setDismissBlock:]', symObjAddr: 0x6AC8, symBinAddr: 0x1C3D4, symSize: 0xC }
  - { offset: 0x948E2, size: 0x8, addend: 0x0, symName: '-[SCLAlertView dismissAnimationCompletionBlock]', symObjAddr: 0x6AD4, symBinAddr: 0x1C3E0, symSize: 0x10 }
  - { offset: 0x94921, size: 0x8, addend: 0x0, symName: '-[SCLAlertView dismissAnimationCompletionBlock]', symObjAddr: 0x6AD4, symBinAddr: 0x1C3E0, symSize: 0x10 }
  - { offset: 0x94929, size: 0x8, addend: 0x0, symName: '-[SCLAlertView setDismissAnimationCompletionBlock:]', symObjAddr: 0x6AE4, symBinAddr: 0x1C3F0, symSize: 0xC }
  - { offset: 0x94960, size: 0x8, addend: 0x0, symName: '-[SCLAlertView setDismissAnimationCompletionBlock:]', symObjAddr: 0x6AE4, symBinAddr: 0x1C3F0, symSize: 0xC }
  - { offset: 0x94968, size: 0x8, addend: 0x0, symName: '-[SCLAlertView showAnimationCompletionBlock]', symObjAddr: 0x6AF0, symBinAddr: 0x1C3FC, symSize: 0x10 }
  - { offset: 0x949A7, size: 0x8, addend: 0x0, symName: '-[SCLAlertView showAnimationCompletionBlock]', symObjAddr: 0x6AF0, symBinAddr: 0x1C3FC, symSize: 0x10 }
  - { offset: 0x949AF, size: 0x8, addend: 0x0, symName: '-[SCLAlertView setShowAnimationCompletionBlock:]', symObjAddr: 0x6B00, symBinAddr: 0x1C40C, symSize: 0xC }
  - { offset: 0x949E6, size: 0x8, addend: 0x0, symName: '-[SCLAlertView setShowAnimationCompletionBlock:]', symObjAddr: 0x6B00, symBinAddr: 0x1C40C, symSize: 0xC }
  - { offset: 0x949EE, size: 0x8, addend: 0x0, symName: '-[SCLAlertView rootViewController]', symObjAddr: 0x6B0C, symBinAddr: 0x1C418, symSize: 0x20 }
  - { offset: 0x94A2D, size: 0x8, addend: 0x0, symName: '-[SCLAlertView rootViewController]', symObjAddr: 0x6B0C, symBinAddr: 0x1C418, symSize: 0x20 }
  - { offset: 0x94A35, size: 0x8, addend: 0x0, symName: '-[SCLAlertView setRootViewController:]', symObjAddr: 0x6B2C, symBinAddr: 0x1C438, symSize: 0x14 }
  - { offset: 0x94A6C, size: 0x8, addend: 0x0, symName: '-[SCLAlertView setRootViewController:]', symObjAddr: 0x6B2C, symBinAddr: 0x1C438, symSize: 0x14 }
  - { offset: 0x94A74, size: 0x8, addend: 0x0, symName: '-[SCLAlertView restoreInteractivePopGestureDelegate]', symObjAddr: 0x6B40, symBinAddr: 0x1C44C, symSize: 0x20 }
  - { offset: 0x94AB5, size: 0x8, addend: 0x0, symName: '-[SCLAlertView restoreInteractivePopGestureDelegate]', symObjAddr: 0x6B40, symBinAddr: 0x1C44C, symSize: 0x20 }
  - { offset: 0x94ABD, size: 0x8, addend: 0x0, symName: '-[SCLAlertView setRestoreInteractivePopGestureDelegate:]', symObjAddr: 0x6B60, symBinAddr: 0x1C46C, symSize: 0x14 }
  - { offset: 0x94AF4, size: 0x8, addend: 0x0, symName: '-[SCLAlertView setRestoreInteractivePopGestureDelegate:]', symObjAddr: 0x6B60, symBinAddr: 0x1C46C, symSize: 0x14 }
  - { offset: 0x94AFC, size: 0x8, addend: 0x0, symName: '-[SCLAlertView soundID]', symObjAddr: 0x6B74, symBinAddr: 0x1C480, symSize: 0x10 }
  - { offset: 0x94B3D, size: 0x8, addend: 0x0, symName: '-[SCLAlertView soundID]', symObjAddr: 0x6B74, symBinAddr: 0x1C480, symSize: 0x10 }
  - { offset: 0x94B45, size: 0x8, addend: 0x0, symName: '-[SCLAlertView setSoundID:]', symObjAddr: 0x6B84, symBinAddr: 0x1C490, symSize: 0x10 }
  - { offset: 0x94B7C, size: 0x8, addend: 0x0, symName: '-[SCLAlertView setSoundID:]', symObjAddr: 0x6B84, symBinAddr: 0x1C490, symSize: 0x10 }
  - { offset: 0x94B84, size: 0x8, addend: 0x0, symName: '-[SCLAlertView canAddObservers]', symObjAddr: 0x6B94, symBinAddr: 0x1C4A0, symSize: 0x10 }
  - { offset: 0x94BC1, size: 0x8, addend: 0x0, symName: '-[SCLAlertView canAddObservers]', symObjAddr: 0x6B94, symBinAddr: 0x1C4A0, symSize: 0x10 }
  - { offset: 0x94BC9, size: 0x8, addend: 0x0, symName: '-[SCLAlertView setCanAddObservers:]', symObjAddr: 0x6BA4, symBinAddr: 0x1C4B0, symSize: 0x10 }
  - { offset: 0x94C00, size: 0x8, addend: 0x0, symName: '-[SCLAlertView setCanAddObservers:]', symObjAddr: 0x6BA4, symBinAddr: 0x1C4B0, symSize: 0x10 }
  - { offset: 0x94C08, size: 0x8, addend: 0x0, symName: '-[SCLAlertView keyboardIsVisible]', symObjAddr: 0x6BB4, symBinAddr: 0x1C4C0, symSize: 0x10 }
  - { offset: 0x94C43, size: 0x8, addend: 0x0, symName: '-[SCLAlertView keyboardIsVisible]', symObjAddr: 0x6BB4, symBinAddr: 0x1C4C0, symSize: 0x10 }
  - { offset: 0x94C4B, size: 0x8, addend: 0x0, symName: '-[SCLAlertView setKeyboardIsVisible:]', symObjAddr: 0x6BC4, symBinAddr: 0x1C4D0, symSize: 0x10 }
  - { offset: 0x94C82, size: 0x8, addend: 0x0, symName: '-[SCLAlertView setKeyboardIsVisible:]', symObjAddr: 0x6BC4, symBinAddr: 0x1C4D0, symSize: 0x10 }
  - { offset: 0x94C8A, size: 0x8, addend: 0x0, symName: '-[SCLAlertView usingNewWindow]', symObjAddr: 0x6BD4, symBinAddr: 0x1C4E0, symSize: 0x10 }
  - { offset: 0x94CC5, size: 0x8, addend: 0x0, symName: '-[SCLAlertView usingNewWindow]', symObjAddr: 0x6BD4, symBinAddr: 0x1C4E0, symSize: 0x10 }
  - { offset: 0x94CCD, size: 0x8, addend: 0x0, symName: '-[SCLAlertView setUsingNewWindow:]', symObjAddr: 0x6BE4, symBinAddr: 0x1C4F0, symSize: 0x10 }
  - { offset: 0x94D04, size: 0x8, addend: 0x0, symName: '-[SCLAlertView setUsingNewWindow:]', symObjAddr: 0x6BE4, symBinAddr: 0x1C4F0, symSize: 0x10 }
  - { offset: 0x94D0C, size: 0x8, addend: 0x0, symName: '-[SCLAlertView restoreInteractivePopGestureEnabled]', symObjAddr: 0x6BF4, symBinAddr: 0x1C500, symSize: 0x10 }
  - { offset: 0x94D47, size: 0x8, addend: 0x0, symName: '-[SCLAlertView restoreInteractivePopGestureEnabled]', symObjAddr: 0x6BF4, symBinAddr: 0x1C500, symSize: 0x10 }
  - { offset: 0x94D4F, size: 0x8, addend: 0x0, symName: '-[SCLAlertView setRestoreInteractivePopGestureEnabled:]', symObjAddr: 0x6C04, symBinAddr: 0x1C510, symSize: 0x10 }
  - { offset: 0x94D86, size: 0x8, addend: 0x0, symName: '-[SCLAlertView setRestoreInteractivePopGestureEnabled:]', symObjAddr: 0x6C04, symBinAddr: 0x1C510, symSize: 0x10 }
  - { offset: 0x94D8E, size: 0x8, addend: 0x0, symName: '-[SCLAlertView backgroundOpacity]', symObjAddr: 0x6C14, symBinAddr: 0x1C520, symSize: 0x10 }
  - { offset: 0x94DC9, size: 0x8, addend: 0x0, symName: '-[SCLAlertView backgroundOpacity]', symObjAddr: 0x6C14, symBinAddr: 0x1C520, symSize: 0x10 }
  - { offset: 0x94DD1, size: 0x8, addend: 0x0, symName: '-[SCLAlertView setBackgroundOpacity:]', symObjAddr: 0x6C24, symBinAddr: 0x1C530, symSize: 0x10 }
  - { offset: 0x94E06, size: 0x8, addend: 0x0, symName: '-[SCLAlertView setBackgroundOpacity:]', symObjAddr: 0x6C24, symBinAddr: 0x1C530, symSize: 0x10 }
  - { offset: 0x94E0E, size: 0x8, addend: 0x0, symName: '-[SCLAlertView titleFontSize]', symObjAddr: 0x6C34, symBinAddr: 0x1C540, symSize: 0x10 }
  - { offset: 0x94E4C, size: 0x8, addend: 0x0, symName: '-[SCLAlertView titleFontSize]', symObjAddr: 0x6C34, symBinAddr: 0x1C540, symSize: 0x10 }
  - { offset: 0x94E54, size: 0x8, addend: 0x0, symName: '-[SCLAlertView setTitleFontSize:]', symObjAddr: 0x6C44, symBinAddr: 0x1C550, symSize: 0x10 }
  - { offset: 0x94E89, size: 0x8, addend: 0x0, symName: '-[SCLAlertView setTitleFontSize:]', symObjAddr: 0x6C44, symBinAddr: 0x1C550, symSize: 0x10 }
  - { offset: 0x94E91, size: 0x8, addend: 0x0, symName: '-[SCLAlertView bodyFontSize]', symObjAddr: 0x6C54, symBinAddr: 0x1C560, symSize: 0x10 }
  - { offset: 0x94ECF, size: 0x8, addend: 0x0, symName: '-[SCLAlertView bodyFontSize]', symObjAddr: 0x6C54, symBinAddr: 0x1C560, symSize: 0x10 }
  - { offset: 0x94ED7, size: 0x8, addend: 0x0, symName: '-[SCLAlertView setBodyFontSize:]', symObjAddr: 0x6C64, symBinAddr: 0x1C570, symSize: 0x10 }
  - { offset: 0x94F0C, size: 0x8, addend: 0x0, symName: '-[SCLAlertView setBodyFontSize:]', symObjAddr: 0x6C64, symBinAddr: 0x1C570, symSize: 0x10 }
  - { offset: 0x94F14, size: 0x8, addend: 0x0, symName: '-[SCLAlertView buttonsFontSize]', symObjAddr: 0x6C74, symBinAddr: 0x1C580, symSize: 0x10 }
  - { offset: 0x94F52, size: 0x8, addend: 0x0, symName: '-[SCLAlertView buttonsFontSize]', symObjAddr: 0x6C74, symBinAddr: 0x1C580, symSize: 0x10 }
  - { offset: 0x94F5A, size: 0x8, addend: 0x0, symName: '-[SCLAlertView setButtonsFontSize:]', symObjAddr: 0x6C84, symBinAddr: 0x1C590, symSize: 0x10 }
  - { offset: 0x94F8F, size: 0x8, addend: 0x0, symName: '-[SCLAlertView setButtonsFontSize:]', symObjAddr: 0x6C84, symBinAddr: 0x1C590, symSize: 0x10 }
  - { offset: 0x94F97, size: 0x8, addend: 0x0, symName: '-[SCLAlertView windowHeight]', symObjAddr: 0x6C94, symBinAddr: 0x1C5A0, symSize: 0x10 }
  - { offset: 0x94FD5, size: 0x8, addend: 0x0, symName: '-[SCLAlertView windowHeight]', symObjAddr: 0x6C94, symBinAddr: 0x1C5A0, symSize: 0x10 }
  - { offset: 0x94FDD, size: 0x8, addend: 0x0, symName: '-[SCLAlertView setWindowHeight:]', symObjAddr: 0x6CA4, symBinAddr: 0x1C5B0, symSize: 0x10 }
  - { offset: 0x95012, size: 0x8, addend: 0x0, symName: '-[SCLAlertView setWindowHeight:]', symObjAddr: 0x6CA4, symBinAddr: 0x1C5B0, symSize: 0x10 }
  - { offset: 0x9501A, size: 0x8, addend: 0x0, symName: '-[SCLAlertView windowWidth]', symObjAddr: 0x6CB4, symBinAddr: 0x1C5C0, symSize: 0x10 }
  - { offset: 0x95058, size: 0x8, addend: 0x0, symName: '-[SCLAlertView windowWidth]', symObjAddr: 0x6CB4, symBinAddr: 0x1C5C0, symSize: 0x10 }
  - { offset: 0x95060, size: 0x8, addend: 0x0, symName: '-[SCLAlertView setWindowWidth:]', symObjAddr: 0x6CC4, symBinAddr: 0x1C5D0, symSize: 0x10 }
  - { offset: 0x95095, size: 0x8, addend: 0x0, symName: '-[SCLAlertView setWindowWidth:]', symObjAddr: 0x6CC4, symBinAddr: 0x1C5D0, symSize: 0x10 }
  - { offset: 0x9509D, size: 0x8, addend: 0x0, symName: '-[SCLAlertView titleHeight]', symObjAddr: 0x6CD4, symBinAddr: 0x1C5E0, symSize: 0x10 }
  - { offset: 0x950DB, size: 0x8, addend: 0x0, symName: '-[SCLAlertView titleHeight]', symObjAddr: 0x6CD4, symBinAddr: 0x1C5E0, symSize: 0x10 }
  - { offset: 0x950E3, size: 0x8, addend: 0x0, symName: '-[SCLAlertView setTitleHeight:]', symObjAddr: 0x6CE4, symBinAddr: 0x1C5F0, symSize: 0x10 }
  - { offset: 0x95118, size: 0x8, addend: 0x0, symName: '-[SCLAlertView setTitleHeight:]', symObjAddr: 0x6CE4, symBinAddr: 0x1C5F0, symSize: 0x10 }
  - { offset: 0x95120, size: 0x8, addend: 0x0, symName: '-[SCLAlertView subTitleHeight]', symObjAddr: 0x6CF4, symBinAddr: 0x1C600, symSize: 0x10 }
  - { offset: 0x9515E, size: 0x8, addend: 0x0, symName: '-[SCLAlertView subTitleHeight]', symObjAddr: 0x6CF4, symBinAddr: 0x1C600, symSize: 0x10 }
  - { offset: 0x95166, size: 0x8, addend: 0x0, symName: '-[SCLAlertView subTitleY]', symObjAddr: 0x6D04, symBinAddr: 0x1C610, symSize: 0x10 }
  - { offset: 0x9519B, size: 0x8, addend: 0x0, symName: '-[SCLAlertView subTitleY]', symObjAddr: 0x6D04, symBinAddr: 0x1C610, symSize: 0x10 }
  - { offset: 0x951A3, size: 0x8, addend: 0x0, symName: '-[SCLAlertView setSubTitleY:]', symObjAddr: 0x6D14, symBinAddr: 0x1C620, symSize: 0x10 }
  - { offset: 0x951D8, size: 0x8, addend: 0x0, symName: '-[SCLAlertView setSubTitleY:]', symObjAddr: 0x6D14, symBinAddr: 0x1C620, symSize: 0x10 }
  - { offset: 0x951E0, size: 0x8, addend: 0x0, symName: '-[SCLAlertView .cxx_destruct]', symObjAddr: 0x6D24, symBinAddr: 0x1C630, symSize: 0x268 }
  - { offset: 0x9521E, size: 0x8, addend: 0x0, symName: '-[SCLAlertView .cxx_destruct]', symObjAddr: 0x6D24, symBinAddr: 0x1C630, symSize: 0x268 }
  - { offset: 0x95226, size: 0x8, addend: 0x0, symName: '-[SCLAlertViewBuilder__WithFluent init]', symObjAddr: 0x6F8C, symBinAddr: 0x1C898, symSize: 0x50 }
  - { offset: 0x95259, size: 0x8, addend: 0x0, symName: '-[SCLAlertViewBuilder__WithFluent init]', symObjAddr: 0x6F8C, symBinAddr: 0x1C898, symSize: 0x50 }
  - { offset: 0x95261, size: 0x8, addend: 0x0, symName: '-[SCLAlertViewBuilder__WithFluent setupFluent]', symObjAddr: 0x6FDC, symBinAddr: 0x1C8E8, symSize: 0x4 }
  - { offset: 0x95298, size: 0x8, addend: 0x0, symName: '-[SCLAlertViewBuilder__WithFluent setupFluent]', symObjAddr: 0x6FDC, symBinAddr: 0x1C8E8, symSize: 0x4 }
  - { offset: 0x952A0, size: 0x8, addend: 0x0, symName: '-[SCLALertViewTextFieldBuilder setupFluent]', symObjAddr: 0x6FE0, symBinAddr: 0x1C8EC, symSize: 0xA4 }
  - { offset: 0x952CF, size: 0x8, addend: 0x0, symName: '-[SCLALertViewTextFieldBuilder setupFluent]', symObjAddr: 0x6FE0, symBinAddr: 0x1C8EC, symSize: 0xA4 }
  - { offset: 0x952D7, size: 0x8, addend: 0x0, symName: '___43-[SCLALertViewTextFieldBuilder setupFluent]_block_invoke', symObjAddr: 0x7084, symBinAddr: 0x1C990, symSize: 0x5C }
  - { offset: 0x9531A, size: 0x8, addend: 0x0, symName: '___43-[SCLALertViewTextFieldBuilder setupFluent]_block_invoke', symObjAddr: 0x7084, symBinAddr: 0x1C990, symSize: 0x5C }
  - { offset: 0x95322, size: 0x8, addend: 0x0, symName: ___copy_helper_block_e8_32w, symObjAddr: 0x70E0, symBinAddr: 0x1C9EC, symSize: 0xC }
  - { offset: 0x9535A, size: 0x8, addend: 0x0, symName: ___copy_helper_block_e8_32w, symObjAddr: 0x70E0, symBinAddr: 0x1C9EC, symSize: 0xC }
  - { offset: 0x95362, size: 0x8, addend: 0x0, symName: ___destroy_helper_block_e8_32w, symObjAddr: 0x70EC, symBinAddr: 0x1C9F8, symSize: 0x8 }
  - { offset: 0x9538B, size: 0x8, addend: 0x0, symName: ___destroy_helper_block_e8_32w, symObjAddr: 0x70EC, symBinAddr: 0x1C9F8, symSize: 0x8 }
  - { offset: 0x95393, size: 0x8, addend: 0x0, symName: '-[SCLALertViewTextFieldBuilder textField]', symObjAddr: 0x70F4, symBinAddr: 0x1CA00, symSize: 0x20 }
  - { offset: 0x953B1, size: 0x8, addend: 0x0, symName: '-[SCLALertViewTextFieldBuilder textField]', symObjAddr: 0x70F4, symBinAddr: 0x1CA00, symSize: 0x20 }
  - { offset: 0x953B9, size: 0x8, addend: 0x0, symName: '-[SCLALertViewTextFieldBuilder setTextField:]', symObjAddr: 0x7114, symBinAddr: 0x1CA20, symSize: 0x14 }
  - { offset: 0x953F1, size: 0x8, addend: 0x0, symName: '-[SCLALertViewTextFieldBuilder setTextField:]', symObjAddr: 0x7114, symBinAddr: 0x1CA20, symSize: 0x14 }
  - { offset: 0x953F9, size: 0x8, addend: 0x0, symName: '-[SCLALertViewTextFieldBuilder title]', symObjAddr: 0x7128, symBinAddr: 0x1CA34, symSize: 0x10 }
  - { offset: 0x9543B, size: 0x8, addend: 0x0, symName: '-[SCLALertViewTextFieldBuilder title]', symObjAddr: 0x7128, symBinAddr: 0x1CA34, symSize: 0x10 }
  - { offset: 0x95443, size: 0x8, addend: 0x0, symName: '-[SCLALertViewTextFieldBuilder setTitle:]', symObjAddr: 0x7138, symBinAddr: 0x1CA44, symSize: 0xC }
  - { offset: 0x9547B, size: 0x8, addend: 0x0, symName: '-[SCLALertViewTextFieldBuilder setTitle:]', symObjAddr: 0x7138, symBinAddr: 0x1CA44, symSize: 0xC }
  - { offset: 0x95483, size: 0x8, addend: 0x0, symName: '-[SCLALertViewTextFieldBuilder parameterTitle]', symObjAddr: 0x7144, symBinAddr: 0x1CA50, symSize: 0x10 }
  - { offset: 0x954C3, size: 0x8, addend: 0x0, symName: '-[SCLALertViewTextFieldBuilder parameterTitle]', symObjAddr: 0x7144, symBinAddr: 0x1CA50, symSize: 0x10 }
  - { offset: 0x954CB, size: 0x8, addend: 0x0, symName: '-[SCLALertViewTextFieldBuilder setParameterTitle:]', symObjAddr: 0x7154, symBinAddr: 0x1CA60, symSize: 0xC }
  - { offset: 0x95503, size: 0x8, addend: 0x0, symName: '-[SCLALertViewTextFieldBuilder setParameterTitle:]', symObjAddr: 0x7154, symBinAddr: 0x1CA60, symSize: 0xC }
  - { offset: 0x9550B, size: 0x8, addend: 0x0, symName: '-[SCLALertViewTextFieldBuilder .cxx_destruct]', symObjAddr: 0x7160, symBinAddr: 0x1CA6C, symSize: 0x50 }
  - { offset: 0x9554B, size: 0x8, addend: 0x0, symName: '-[SCLALertViewTextFieldBuilder .cxx_destruct]', symObjAddr: 0x7160, symBinAddr: 0x1CA6C, symSize: 0x50 }
  - { offset: 0x95553, size: 0x8, addend: 0x0, symName: '-[SCLALertViewButtonBuilder setupFluent]', symObjAddr: 0x71B0, symBinAddr: 0x1CABC, symSize: 0x204 }
  - { offset: 0x95587, size: 0x8, addend: 0x0, symName: '-[SCLALertViewButtonBuilder setupFluent]', symObjAddr: 0x71B0, symBinAddr: 0x1CABC, symSize: 0x204 }
  - { offset: 0x9558F, size: 0x8, addend: 0x0, symName: '___40-[SCLALertViewButtonBuilder setupFluent]_block_invoke', symObjAddr: 0x73B4, symBinAddr: 0x1CCC0, symSize: 0x5C }
  - { offset: 0x955D3, size: 0x8, addend: 0x0, symName: '___40-[SCLALertViewButtonBuilder setupFluent]_block_invoke', symObjAddr: 0x73B4, symBinAddr: 0x1CCC0, symSize: 0x5C }
  - { offset: 0x955DB, size: 0x8, addend: 0x0, symName: '___40-[SCLALertViewButtonBuilder setupFluent]_block_invoke.571', symObjAddr: 0x7410, symBinAddr: 0x1CD1C, symSize: 0x5C }
  - { offset: 0x95613, size: 0x8, addend: 0x0, symName: '___40-[SCLALertViewButtonBuilder setupFluent]_block_invoke.571', symObjAddr: 0x7410, symBinAddr: 0x1CD1C, symSize: 0x5C }
  - { offset: 0x9561B, size: 0x8, addend: 0x0, symName: '___40-[SCLALertViewButtonBuilder setupFluent]_block_invoke.573', symObjAddr: 0x746C, symBinAddr: 0x1CD78, symSize: 0x4C }
  - { offset: 0x95653, size: 0x8, addend: 0x0, symName: '___40-[SCLALertViewButtonBuilder setupFluent]_block_invoke.573', symObjAddr: 0x746C, symBinAddr: 0x1CD78, symSize: 0x4C }
  - { offset: 0x9565B, size: 0x8, addend: 0x0, symName: '___40-[SCLALertViewButtonBuilder setupFluent]_block_invoke.575', symObjAddr: 0x74B8, symBinAddr: 0x1CDC4, symSize: 0x5C }
  - { offset: 0x95693, size: 0x8, addend: 0x0, symName: '___40-[SCLALertViewButtonBuilder setupFluent]_block_invoke.575', symObjAddr: 0x74B8, symBinAddr: 0x1CDC4, symSize: 0x5C }
  - { offset: 0x9569B, size: 0x8, addend: 0x0, symName: '___40-[SCLALertViewButtonBuilder setupFluent]_block_invoke.577', symObjAddr: 0x7514, symBinAddr: 0x1CE20, symSize: 0x5C }
  - { offset: 0x956D3, size: 0x8, addend: 0x0, symName: '___40-[SCLALertViewButtonBuilder setupFluent]_block_invoke.577', symObjAddr: 0x7514, symBinAddr: 0x1CE20, symSize: 0x5C }
  - { offset: 0x956DB, size: 0x8, addend: 0x0, symName: '-[SCLALertViewButtonBuilder button]', symObjAddr: 0x7570, symBinAddr: 0x1CE7C, symSize: 0x20 }
  - { offset: 0x95713, size: 0x8, addend: 0x0, symName: '-[SCLALertViewButtonBuilder button]', symObjAddr: 0x7570, symBinAddr: 0x1CE7C, symSize: 0x20 }
  - { offset: 0x9571B, size: 0x8, addend: 0x0, symName: '-[SCLALertViewButtonBuilder setButton:]', symObjAddr: 0x7590, symBinAddr: 0x1CE9C, symSize: 0x14 }
  - { offset: 0x95753, size: 0x8, addend: 0x0, symName: '-[SCLALertViewButtonBuilder setButton:]', symObjAddr: 0x7590, symBinAddr: 0x1CE9C, symSize: 0x14 }
  - { offset: 0x9575B, size: 0x8, addend: 0x0, symName: '-[SCLALertViewButtonBuilder title]', symObjAddr: 0x75A4, symBinAddr: 0x1CEB0, symSize: 0x10 }
  - { offset: 0x9579D, size: 0x8, addend: 0x0, symName: '-[SCLALertViewButtonBuilder title]', symObjAddr: 0x75A4, symBinAddr: 0x1CEB0, symSize: 0x10 }
  - { offset: 0x957A5, size: 0x8, addend: 0x0, symName: '-[SCLALertViewButtonBuilder setTitle:]', symObjAddr: 0x75B4, symBinAddr: 0x1CEC0, symSize: 0xC }
  - { offset: 0x957DD, size: 0x8, addend: 0x0, symName: '-[SCLALertViewButtonBuilder setTitle:]', symObjAddr: 0x75B4, symBinAddr: 0x1CEC0, symSize: 0xC }
  - { offset: 0x957E5, size: 0x8, addend: 0x0, symName: '-[SCLALertViewButtonBuilder target]', symObjAddr: 0x75C0, symBinAddr: 0x1CECC, symSize: 0x10 }
  - { offset: 0x95825, size: 0x8, addend: 0x0, symName: '-[SCLALertViewButtonBuilder target]', symObjAddr: 0x75C0, symBinAddr: 0x1CECC, symSize: 0x10 }
  - { offset: 0x9582D, size: 0x8, addend: 0x0, symName: '-[SCLALertViewButtonBuilder setTarget:]', symObjAddr: 0x75D0, symBinAddr: 0x1CEDC, symSize: 0xC }
  - { offset: 0x95865, size: 0x8, addend: 0x0, symName: '-[SCLALertViewButtonBuilder setTarget:]', symObjAddr: 0x75D0, symBinAddr: 0x1CEDC, symSize: 0xC }
  - { offset: 0x9586D, size: 0x8, addend: 0x0, symName: '-[SCLALertViewButtonBuilder selector]', symObjAddr: 0x75DC, symBinAddr: 0x1CEE8, symSize: 0x10 }
  - { offset: 0x958AD, size: 0x8, addend: 0x0, symName: '-[SCLALertViewButtonBuilder selector]', symObjAddr: 0x75DC, symBinAddr: 0x1CEE8, symSize: 0x10 }
  - { offset: 0x958B5, size: 0x8, addend: 0x0, symName: '-[SCLALertViewButtonBuilder setSelector:]', symObjAddr: 0x75EC, symBinAddr: 0x1CEF8, symSize: 0xC }
  - { offset: 0x958ED, size: 0x8, addend: 0x0, symName: '-[SCLALertViewButtonBuilder setSelector:]', symObjAddr: 0x75EC, symBinAddr: 0x1CEF8, symSize: 0xC }
  - { offset: 0x958F5, size: 0x8, addend: 0x0, symName: '-[SCLALertViewButtonBuilder actionBlock]', symObjAddr: 0x75F8, symBinAddr: 0x1CF04, symSize: 0x10 }
  - { offset: 0x95935, size: 0x8, addend: 0x0, symName: '-[SCLALertViewButtonBuilder actionBlock]', symObjAddr: 0x75F8, symBinAddr: 0x1CF04, symSize: 0x10 }
  - { offset: 0x9593D, size: 0x8, addend: 0x0, symName: '-[SCLALertViewButtonBuilder setActionBlock:]', symObjAddr: 0x7608, symBinAddr: 0x1CF14, symSize: 0xC }
  - { offset: 0x95975, size: 0x8, addend: 0x0, symName: '-[SCLALertViewButtonBuilder setActionBlock:]', symObjAddr: 0x7608, symBinAddr: 0x1CF14, symSize: 0xC }
  - { offset: 0x9597D, size: 0x8, addend: 0x0, symName: '-[SCLALertViewButtonBuilder validationBlock]', symObjAddr: 0x7614, symBinAddr: 0x1CF20, symSize: 0x10 }
  - { offset: 0x959BD, size: 0x8, addend: 0x0, symName: '-[SCLALertViewButtonBuilder validationBlock]', symObjAddr: 0x7614, symBinAddr: 0x1CF20, symSize: 0x10 }
  - { offset: 0x959C5, size: 0x8, addend: 0x0, symName: '-[SCLALertViewButtonBuilder setValidationBlock:]', symObjAddr: 0x7624, symBinAddr: 0x1CF30, symSize: 0xC }
  - { offset: 0x959FD, size: 0x8, addend: 0x0, symName: '-[SCLALertViewButtonBuilder setValidationBlock:]', symObjAddr: 0x7624, symBinAddr: 0x1CF30, symSize: 0xC }
  - { offset: 0x95A05, size: 0x8, addend: 0x0, symName: '-[SCLALertViewButtonBuilder parameterTitle]', symObjAddr: 0x7630, symBinAddr: 0x1CF3C, symSize: 0x10 }
  - { offset: 0x95A45, size: 0x8, addend: 0x0, symName: '-[SCLALertViewButtonBuilder parameterTitle]', symObjAddr: 0x7630, symBinAddr: 0x1CF3C, symSize: 0x10 }
  - { offset: 0x95A4D, size: 0x8, addend: 0x0, symName: '-[SCLALertViewButtonBuilder setParameterTitle:]', symObjAddr: 0x7640, symBinAddr: 0x1CF4C, symSize: 0xC }
  - { offset: 0x95A85, size: 0x8, addend: 0x0, symName: '-[SCLALertViewButtonBuilder setParameterTitle:]', symObjAddr: 0x7640, symBinAddr: 0x1CF4C, symSize: 0xC }
  - { offset: 0x95A8D, size: 0x8, addend: 0x0, symName: '-[SCLALertViewButtonBuilder parameterTarget]', symObjAddr: 0x764C, symBinAddr: 0x1CF58, symSize: 0x20 }
  - { offset: 0x95ACD, size: 0x8, addend: 0x0, symName: '-[SCLALertViewButtonBuilder parameterTarget]', symObjAddr: 0x764C, symBinAddr: 0x1CF58, symSize: 0x20 }
  - { offset: 0x95AD5, size: 0x8, addend: 0x0, symName: '-[SCLALertViewButtonBuilder setParameterTarget:]', symObjAddr: 0x766C, symBinAddr: 0x1CF78, symSize: 0x14 }
  - { offset: 0x95B0D, size: 0x8, addend: 0x0, symName: '-[SCLALertViewButtonBuilder setParameterTarget:]', symObjAddr: 0x766C, symBinAddr: 0x1CF78, symSize: 0x14 }
  - { offset: 0x95B15, size: 0x8, addend: 0x0, symName: '-[SCLALertViewButtonBuilder parameterSelector]', symObjAddr: 0x7680, symBinAddr: 0x1CF8C, symSize: 0x10 }
  - { offset: 0x95B57, size: 0x8, addend: 0x0, symName: '-[SCLALertViewButtonBuilder parameterSelector]', symObjAddr: 0x7680, symBinAddr: 0x1CF8C, symSize: 0x10 }
  - { offset: 0x95B5F, size: 0x8, addend: 0x0, symName: '-[SCLALertViewButtonBuilder setParameterSelector:]', symObjAddr: 0x7690, symBinAddr: 0x1CF9C, symSize: 0x10 }
  - { offset: 0x95B97, size: 0x8, addend: 0x0, symName: '-[SCLALertViewButtonBuilder setParameterSelector:]', symObjAddr: 0x7690, symBinAddr: 0x1CF9C, symSize: 0x10 }
  - { offset: 0x95B9F, size: 0x8, addend: 0x0, symName: '-[SCLALertViewButtonBuilder parameterActionBlock]', symObjAddr: 0x76A0, symBinAddr: 0x1CFAC, symSize: 0x10 }
  - { offset: 0x95BDD, size: 0x8, addend: 0x0, symName: '-[SCLALertViewButtonBuilder parameterActionBlock]', symObjAddr: 0x76A0, symBinAddr: 0x1CFAC, symSize: 0x10 }
  - { offset: 0x95BE5, size: 0x8, addend: 0x0, symName: '-[SCLALertViewButtonBuilder setParameterActionBlock:]', symObjAddr: 0x76B0, symBinAddr: 0x1CFBC, symSize: 0xC }
  - { offset: 0x95C1D, size: 0x8, addend: 0x0, symName: '-[SCLALertViewButtonBuilder setParameterActionBlock:]', symObjAddr: 0x76B0, symBinAddr: 0x1CFBC, symSize: 0xC }
  - { offset: 0x95C25, size: 0x8, addend: 0x0, symName: '-[SCLALertViewButtonBuilder parameterValidationBlock]', symObjAddr: 0x76BC, symBinAddr: 0x1CFC8, symSize: 0x10 }
  - { offset: 0x95C65, size: 0x8, addend: 0x0, symName: '-[SCLALertViewButtonBuilder parameterValidationBlock]', symObjAddr: 0x76BC, symBinAddr: 0x1CFC8, symSize: 0x10 }
  - { offset: 0x95C6D, size: 0x8, addend: 0x0, symName: '-[SCLALertViewButtonBuilder setParameterValidationBlock:]', symObjAddr: 0x76CC, symBinAddr: 0x1CFD8, symSize: 0xC }
  - { offset: 0x95CA5, size: 0x8, addend: 0x0, symName: '-[SCLALertViewButtonBuilder setParameterValidationBlock:]', symObjAddr: 0x76CC, symBinAddr: 0x1CFD8, symSize: 0xC }
  - { offset: 0x95CAD, size: 0x8, addend: 0x0, symName: '-[SCLALertViewButtonBuilder .cxx_destruct]', symObjAddr: 0x76D8, symBinAddr: 0x1CFE4, symSize: 0xD8 }
  - { offset: 0x95CED, size: 0x8, addend: 0x0, symName: '-[SCLALertViewButtonBuilder .cxx_destruct]', symObjAddr: 0x76D8, symBinAddr: 0x1CFE4, symSize: 0xD8 }
  - { offset: 0x95CF5, size: 0x8, addend: 0x0, symName: '-[SCLAlertViewBuilder setupFluent]', symObjAddr: 0x77B0, symBinAddr: 0x1D0BC, symSize: 0xDC8 }
  - { offset: 0x95D29, size: 0x8, addend: 0x0, symName: '-[SCLAlertViewBuilder setupFluent]', symObjAddr: 0x77B0, symBinAddr: 0x1D0BC, symSize: 0xDC8 }
  - { offset: 0x95D31, size: 0x8, addend: 0x0, symName: '___34-[SCLAlertViewBuilder setupFluent]_block_invoke', symObjAddr: 0x8578, symBinAddr: 0x1DE84, symSize: 0x6C }
  - { offset: 0x95D75, size: 0x8, addend: 0x0, symName: '___34-[SCLAlertViewBuilder setupFluent]_block_invoke', symObjAddr: 0x8578, symBinAddr: 0x1DE84, symSize: 0x6C }
  - { offset: 0x95D7D, size: 0x8, addend: 0x0, symName: '___34-[SCLAlertViewBuilder setupFluent]_block_invoke.633', symObjAddr: 0x85E4, symBinAddr: 0x1DEF0, symSize: 0x64 }
  - { offset: 0x95DB5, size: 0x8, addend: 0x0, symName: '___34-[SCLAlertViewBuilder setupFluent]_block_invoke.633', symObjAddr: 0x85E4, symBinAddr: 0x1DEF0, symSize: 0x64 }
  - { offset: 0x95DBD, size: 0x8, addend: 0x0, symName: '___34-[SCLAlertViewBuilder setupFluent]_block_invoke.635', symObjAddr: 0x8648, symBinAddr: 0x1DF54, symSize: 0x64 }
  - { offset: 0x95DF5, size: 0x8, addend: 0x0, symName: '___34-[SCLAlertViewBuilder setupFluent]_block_invoke.635', symObjAddr: 0x8648, symBinAddr: 0x1DF54, symSize: 0x64 }
  - { offset: 0x95DFD, size: 0x8, addend: 0x0, symName: '___34-[SCLAlertViewBuilder setupFluent]_block_invoke_2', symObjAddr: 0x86AC, symBinAddr: 0x1DFB8, symSize: 0x74 }
  - { offset: 0x95E35, size: 0x8, addend: 0x0, symName: '___34-[SCLAlertViewBuilder setupFluent]_block_invoke_2', symObjAddr: 0x86AC, symBinAddr: 0x1DFB8, symSize: 0x74 }
  - { offset: 0x95E3D, size: 0x8, addend: 0x0, symName: '___34-[SCLAlertViewBuilder setupFluent]_block_invoke.637', symObjAddr: 0x8720, symBinAddr: 0x1E02C, symSize: 0x74 }
  - { offset: 0x95E75, size: 0x8, addend: 0x0, symName: '___34-[SCLAlertViewBuilder setupFluent]_block_invoke.637', symObjAddr: 0x8720, symBinAddr: 0x1E02C, symSize: 0x74 }
  - { offset: 0x95E7D, size: 0x8, addend: 0x0, symName: '___34-[SCLAlertViewBuilder setupFluent]_block_invoke.639', symObjAddr: 0x8794, symBinAddr: 0x1E0A0, symSize: 0x74 }
  - { offset: 0x95EB5, size: 0x8, addend: 0x0, symName: '___34-[SCLAlertViewBuilder setupFluent]_block_invoke.639', symObjAddr: 0x8794, symBinAddr: 0x1E0A0, symSize: 0x74 }
  - { offset: 0x95EBD, size: 0x8, addend: 0x0, symName: '___34-[SCLAlertViewBuilder setupFluent]_block_invoke.641', symObjAddr: 0x8808, symBinAddr: 0x1E114, symSize: 0x64 }
  - { offset: 0x95EF5, size: 0x8, addend: 0x0, symName: '___34-[SCLAlertViewBuilder setupFluent]_block_invoke.641', symObjAddr: 0x8808, symBinAddr: 0x1E114, symSize: 0x64 }
  - { offset: 0x95EFD, size: 0x8, addend: 0x0, symName: '___34-[SCLAlertViewBuilder setupFluent]_block_invoke_2.642', symObjAddr: 0x886C, symBinAddr: 0x1E178, symSize: 0x74 }
  - { offset: 0x95F35, size: 0x8, addend: 0x0, symName: '___34-[SCLAlertViewBuilder setupFluent]_block_invoke_2.642', symObjAddr: 0x886C, symBinAddr: 0x1E178, symSize: 0x74 }
  - { offset: 0x95F3D, size: 0x8, addend: 0x0, symName: '___34-[SCLAlertViewBuilder setupFluent]_block_invoke.644', symObjAddr: 0x88E0, symBinAddr: 0x1E1EC, symSize: 0x74 }
  - { offset: 0x95F75, size: 0x8, addend: 0x0, symName: '___34-[SCLAlertViewBuilder setupFluent]_block_invoke.644', symObjAddr: 0x88E0, symBinAddr: 0x1E1EC, symSize: 0x74 }
  - { offset: 0x95F7D, size: 0x8, addend: 0x0, symName: '___34-[SCLAlertViewBuilder setupFluent]_block_invoke.646', symObjAddr: 0x8954, symBinAddr: 0x1E260, symSize: 0x74 }
  - { offset: 0x95FB5, size: 0x8, addend: 0x0, symName: '___34-[SCLAlertViewBuilder setupFluent]_block_invoke.646', symObjAddr: 0x8954, symBinAddr: 0x1E260, symSize: 0x74 }
  - { offset: 0x95FBD, size: 0x8, addend: 0x0, symName: '___34-[SCLAlertViewBuilder setupFluent]_block_invoke.648', symObjAddr: 0x89C8, symBinAddr: 0x1E2D4, symSize: 0x74 }
  - { offset: 0x95FF5, size: 0x8, addend: 0x0, symName: '___34-[SCLAlertViewBuilder setupFluent]_block_invoke.648', symObjAddr: 0x89C8, symBinAddr: 0x1E2D4, symSize: 0x74 }
  - { offset: 0x95FFD, size: 0x8, addend: 0x0, symName: '___34-[SCLAlertViewBuilder setupFluent]_block_invoke_2.649', symObjAddr: 0x8A3C, symBinAddr: 0x1E348, symSize: 0x74 }
  - { offset: 0x96035, size: 0x8, addend: 0x0, symName: '___34-[SCLAlertViewBuilder setupFluent]_block_invoke_2.649', symObjAddr: 0x8A3C, symBinAddr: 0x1E348, symSize: 0x74 }
  - { offset: 0x9603D, size: 0x8, addend: 0x0, symName: '___34-[SCLAlertViewBuilder setupFluent]_block_invoke.651', symObjAddr: 0x8AB0, symBinAddr: 0x1E3BC, symSize: 0x64 }
  - { offset: 0x96075, size: 0x8, addend: 0x0, symName: '___34-[SCLAlertViewBuilder setupFluent]_block_invoke.651', symObjAddr: 0x8AB0, symBinAddr: 0x1E3BC, symSize: 0x64 }
  - { offset: 0x9607D, size: 0x8, addend: 0x0, symName: '___34-[SCLAlertViewBuilder setupFluent]_block_invoke.653', symObjAddr: 0x8B14, symBinAddr: 0x1E420, symSize: 0x64 }
  - { offset: 0x960B5, size: 0x8, addend: 0x0, symName: '___34-[SCLAlertViewBuilder setupFluent]_block_invoke.653', symObjAddr: 0x8B14, symBinAddr: 0x1E420, symSize: 0x64 }
  - { offset: 0x960BD, size: 0x8, addend: 0x0, symName: '___34-[SCLAlertViewBuilder setupFluent]_block_invoke_2.654', symObjAddr: 0x8B78, symBinAddr: 0x1E484, symSize: 0x64 }
  - { offset: 0x960F5, size: 0x8, addend: 0x0, symName: '___34-[SCLAlertViewBuilder setupFluent]_block_invoke_2.654', symObjAddr: 0x8B78, symBinAddr: 0x1E484, symSize: 0x64 }
  - { offset: 0x960FD, size: 0x8, addend: 0x0, symName: '___34-[SCLAlertViewBuilder setupFluent]_block_invoke_3', symObjAddr: 0x8BDC, symBinAddr: 0x1E4E8, symSize: 0x74 }
  - { offset: 0x96135, size: 0x8, addend: 0x0, symName: '___34-[SCLAlertViewBuilder setupFluent]_block_invoke_3', symObjAddr: 0x8BDC, symBinAddr: 0x1E4E8, symSize: 0x74 }
  - { offset: 0x9613D, size: 0x8, addend: 0x0, symName: '___34-[SCLAlertViewBuilder setupFluent]_block_invoke.656', symObjAddr: 0x8C50, symBinAddr: 0x1E55C, symSize: 0x74 }
  - { offset: 0x96175, size: 0x8, addend: 0x0, symName: '___34-[SCLAlertViewBuilder setupFluent]_block_invoke.656', symObjAddr: 0x8C50, symBinAddr: 0x1E55C, symSize: 0x74 }
  - { offset: 0x9617D, size: 0x8, addend: 0x0, symName: '___34-[SCLAlertViewBuilder setupFluent]_block_invoke_2.657', symObjAddr: 0x8CC4, symBinAddr: 0x1E5D0, symSize: 0x74 }
  - { offset: 0x961B5, size: 0x8, addend: 0x0, symName: '___34-[SCLAlertViewBuilder setupFluent]_block_invoke_2.657', symObjAddr: 0x8CC4, symBinAddr: 0x1E5D0, symSize: 0x74 }
  - { offset: 0x961BD, size: 0x8, addend: 0x0, symName: '___34-[SCLAlertViewBuilder setupFluent]_block_invoke_3.658', symObjAddr: 0x8D38, symBinAddr: 0x1E644, symSize: 0x6C }
  - { offset: 0x961F5, size: 0x8, addend: 0x0, symName: '___34-[SCLAlertViewBuilder setupFluent]_block_invoke_3.658', symObjAddr: 0x8D38, symBinAddr: 0x1E644, symSize: 0x6C }
  - { offset: 0x961FD, size: 0x8, addend: 0x0, symName: '___34-[SCLAlertViewBuilder setupFluent]_block_invoke_4', symObjAddr: 0x8DA4, symBinAddr: 0x1E6B0, symSize: 0x8C }
  - { offset: 0x96235, size: 0x8, addend: 0x0, symName: '___34-[SCLAlertViewBuilder setupFluent]_block_invoke_4', symObjAddr: 0x8DA4, symBinAddr: 0x1E6B0, symSize: 0x8C }
  - { offset: 0x9623D, size: 0x8, addend: 0x0, symName: '___34-[SCLAlertViewBuilder setupFluent]_block_invoke.660', symObjAddr: 0x8E30, symBinAddr: 0x1E73C, symSize: 0x64 }
  - { offset: 0x96275, size: 0x8, addend: 0x0, symName: '___34-[SCLAlertViewBuilder setupFluent]_block_invoke.660', symObjAddr: 0x8E30, symBinAddr: 0x1E73C, symSize: 0x64 }
  - { offset: 0x9627D, size: 0x8, addend: 0x0, symName: '___34-[SCLAlertViewBuilder setupFluent]_block_invoke_2.661', symObjAddr: 0x8E94, symBinAddr: 0x1E7A0, symSize: 0x64 }
  - { offset: 0x962B5, size: 0x8, addend: 0x0, symName: '___34-[SCLAlertViewBuilder setupFluent]_block_invoke_2.661', symObjAddr: 0x8E94, symBinAddr: 0x1E7A0, symSize: 0x64 }
  - { offset: 0x962BD, size: 0x8, addend: 0x0, symName: '___34-[SCLAlertViewBuilder setupFluent]_block_invoke_3.662', symObjAddr: 0x8EF8, symBinAddr: 0x1E804, symSize: 0x74 }
  - { offset: 0x962F5, size: 0x8, addend: 0x0, symName: '___34-[SCLAlertViewBuilder setupFluent]_block_invoke_3.662', symObjAddr: 0x8EF8, symBinAddr: 0x1E804, symSize: 0x74 }
  - { offset: 0x962FD, size: 0x8, addend: 0x0, symName: '___34-[SCLAlertViewBuilder setupFluent]_block_invoke_4.663', symObjAddr: 0x8F6C, symBinAddr: 0x1E878, symSize: 0x74 }
  - { offset: 0x96335, size: 0x8, addend: 0x0, symName: '___34-[SCLAlertViewBuilder setupFluent]_block_invoke_4.663', symObjAddr: 0x8F6C, symBinAddr: 0x1E878, symSize: 0x74 }
  - { offset: 0x9633D, size: 0x8, addend: 0x0, symName: '___34-[SCLAlertViewBuilder setupFluent]_block_invoke_5', symObjAddr: 0x8FE0, symBinAddr: 0x1E8EC, symSize: 0x74 }
  - { offset: 0x96375, size: 0x8, addend: 0x0, symName: '___34-[SCLAlertViewBuilder setupFluent]_block_invoke_5', symObjAddr: 0x8FE0, symBinAddr: 0x1E8EC, symSize: 0x74 }
  - { offset: 0x9637D, size: 0x8, addend: 0x0, symName: '___34-[SCLAlertViewBuilder setupFluent]_block_invoke_6', symObjAddr: 0x9054, symBinAddr: 0x1E960, symSize: 0x5C }
  - { offset: 0x963B5, size: 0x8, addend: 0x0, symName: '___34-[SCLAlertViewBuilder setupFluent]_block_invoke_6', symObjAddr: 0x9054, symBinAddr: 0x1E960, symSize: 0x5C }
  - { offset: 0x963BD, size: 0x8, addend: 0x0, symName: '___34-[SCLAlertViewBuilder setupFluent]_block_invoke.665', symObjAddr: 0x90B0, symBinAddr: 0x1E9BC, symSize: 0x90 }
  - { offset: 0x963E8, size: 0x8, addend: 0x0, symName: '___34-[SCLAlertViewBuilder setupFluent]_block_invoke.665', symObjAddr: 0x90B0, symBinAddr: 0x1E9BC, symSize: 0x90 }
  - { offset: 0x963F0, size: 0x8, addend: 0x0, symName: '___34-[SCLAlertViewBuilder setupFluent]_block_invoke.667', symObjAddr: 0x9140, symBinAddr: 0x1EA4C, symSize: 0x90 }
  - { offset: 0x96428, size: 0x8, addend: 0x0, symName: '___34-[SCLAlertViewBuilder setupFluent]_block_invoke.667', symObjAddr: 0x9140, symBinAddr: 0x1EA4C, symSize: 0x90 }
  - { offset: 0x96430, size: 0x8, addend: 0x0, symName: '___34-[SCLAlertViewBuilder setupFluent]_block_invoke.669', symObjAddr: 0x91D0, symBinAddr: 0x1EADC, symSize: 0x74 }
  - { offset: 0x96468, size: 0x8, addend: 0x0, symName: '___34-[SCLAlertViewBuilder setupFluent]_block_invoke.669', symObjAddr: 0x91D0, symBinAddr: 0x1EADC, symSize: 0x74 }
  - { offset: 0x96470, size: 0x8, addend: 0x0, symName: '___34-[SCLAlertViewBuilder setupFluent]_block_invoke.671', symObjAddr: 0x9244, symBinAddr: 0x1EB50, symSize: 0x90 }
  - { offset: 0x964A8, size: 0x8, addend: 0x0, symName: '___34-[SCLAlertViewBuilder setupFluent]_block_invoke.671', symObjAddr: 0x9244, symBinAddr: 0x1EB50, symSize: 0x90 }
  - { offset: 0x964B0, size: 0x8, addend: 0x0, symName: '___34-[SCLAlertViewBuilder setupFluent]_block_invoke_2.672', symObjAddr: 0x92D4, symBinAddr: 0x1EBE0, symSize: 0x74 }
  - { offset: 0x964E8, size: 0x8, addend: 0x0, symName: '___34-[SCLAlertViewBuilder setupFluent]_block_invoke_2.672', symObjAddr: 0x92D4, symBinAddr: 0x1EBE0, symSize: 0x74 }
  - { offset: 0x964F0, size: 0x8, addend: 0x0, symName: '___34-[SCLAlertViewBuilder setupFluent]_block_invoke.674', symObjAddr: 0x9348, symBinAddr: 0x1EC54, symSize: 0x84 }
  - { offset: 0x96535, size: 0x8, addend: 0x0, symName: '___34-[SCLAlertViewBuilder setupFluent]_block_invoke.674', symObjAddr: 0x9348, symBinAddr: 0x1EC54, symSize: 0x84 }
  - { offset: 0x9653D, size: 0x8, addend: 0x0, symName: '___34-[SCLAlertViewBuilder setupFluent]_block_invoke.676', symObjAddr: 0x93CC, symBinAddr: 0x1ECD8, symSize: 0x84 }
  - { offset: 0x96582, size: 0x8, addend: 0x0, symName: '___34-[SCLAlertViewBuilder setupFluent]_block_invoke.676', symObjAddr: 0x93CC, symBinAddr: 0x1ECD8, symSize: 0x84 }
  - { offset: 0x9658A, size: 0x8, addend: 0x0, symName: '___34-[SCLAlertViewBuilder setupFluent]_block_invoke_2.677', symObjAddr: 0x9450, symBinAddr: 0x1ED5C, symSize: 0x84 }
  - { offset: 0x965CF, size: 0x8, addend: 0x0, symName: '___34-[SCLAlertViewBuilder setupFluent]_block_invoke_2.677', symObjAddr: 0x9450, symBinAddr: 0x1ED5C, symSize: 0x84 }
  - { offset: 0x965D7, size: 0x8, addend: 0x0, symName: '___34-[SCLAlertViewBuilder setupFluent]_block_invoke_3.678', symObjAddr: 0x94D4, symBinAddr: 0x1EDE0, symSize: 0xAC }
  - { offset: 0x9661C, size: 0x8, addend: 0x0, symName: '___34-[SCLAlertViewBuilder setupFluent]_block_invoke_3.678', symObjAddr: 0x94D4, symBinAddr: 0x1EDE0, symSize: 0xAC }
  - { offset: 0x96624, size: 0x8, addend: 0x0, symName: '___34-[SCLAlertViewBuilder setupFluent]_block_invoke.680', symObjAddr: 0x9580, symBinAddr: 0x1EE8C, symSize: 0xD0 }
  - { offset: 0x96669, size: 0x8, addend: 0x0, symName: '___34-[SCLAlertViewBuilder setupFluent]_block_invoke.680', symObjAddr: 0x9580, symBinAddr: 0x1EE8C, symSize: 0xD0 }
  - { offset: 0x96671, size: 0x8, addend: 0x0, symName: '___34-[SCLAlertViewBuilder setupFluent]_block_invoke.682', symObjAddr: 0x9650, symBinAddr: 0x1EF5C, symSize: 0xB4 }
  - { offset: 0x966C3, size: 0x8, addend: 0x0, symName: '___34-[SCLAlertViewBuilder setupFluent]_block_invoke.682', symObjAddr: 0x9650, symBinAddr: 0x1EF5C, symSize: 0xB4 }
  - { offset: 0x966CB, size: 0x8, addend: 0x0, symName: '___34-[SCLAlertViewBuilder setupFluent]_block_invoke.684', symObjAddr: 0x9704, symBinAddr: 0x1F010, symSize: 0x268 }
  - { offset: 0x9671D, size: 0x8, addend: 0x0, symName: '___34-[SCLAlertViewBuilder setupFluent]_block_invoke.684', symObjAddr: 0x9704, symBinAddr: 0x1F010, symSize: 0x268 }
  - { offset: 0x96725, size: 0x8, addend: 0x0, symName: '___34-[SCLAlertViewBuilder setupFluent]_block_invoke.686', symObjAddr: 0x996C, symBinAddr: 0x1F278, symSize: 0xBC }
  - { offset: 0x9677C, size: 0x8, addend: 0x0, symName: '___34-[SCLAlertViewBuilder setupFluent]_block_invoke.686', symObjAddr: 0x996C, symBinAddr: 0x1F278, symSize: 0xBC }
  - { offset: 0x96784, size: 0x8, addend: 0x0, symName: '-[SCLAlertViewBuilder init]', symObjAddr: 0x9A28, symBinAddr: 0x1F334, symSize: 0x70 }
  - { offset: 0x967BC, size: 0x8, addend: 0x0, symName: '-[SCLAlertViewBuilder init]', symObjAddr: 0x9A28, symBinAddr: 0x1F334, symSize: 0x70 }
  - { offset: 0x967C4, size: 0x8, addend: 0x0, symName: '-[SCLAlertViewBuilder initWithNewWindow]', symObjAddr: 0x9A98, symBinAddr: 0x1F3A4, symSize: 0x70 }
  - { offset: 0x967FB, size: 0x8, addend: 0x0, symName: '-[SCLAlertViewBuilder initWithNewWindow]', symObjAddr: 0x9A98, symBinAddr: 0x1F3A4, symSize: 0x70 }
  - { offset: 0x96803, size: 0x8, addend: 0x0, symName: '-[SCLAlertViewBuilder initWithNewWindowWidth:]', symObjAddr: 0x9B08, symBinAddr: 0x1F414, symSize: 0x80 }
  - { offset: 0x9683A, size: 0x8, addend: 0x0, symName: '-[SCLAlertViewBuilder initWithNewWindowWidth:]', symObjAddr: 0x9B08, symBinAddr: 0x1F414, symSize: 0x80 }
  - { offset: 0x96842, size: 0x8, addend: 0x0, symName: '-[SCLAlertViewBuilder alertView]', symObjAddr: 0x9B88, symBinAddr: 0x1F494, symSize: 0x10 }
  - { offset: 0x9688A, size: 0x8, addend: 0x0, symName: '-[SCLAlertViewBuilder alertView]', symObjAddr: 0x9B88, symBinAddr: 0x1F494, symSize: 0x10 }
  - { offset: 0x96892, size: 0x8, addend: 0x0, symName: '-[SCLAlertViewBuilder setAlertView:]', symObjAddr: 0x9B98, symBinAddr: 0x1F4A4, symSize: 0x14 }
  - { offset: 0x968CA, size: 0x8, addend: 0x0, symName: '-[SCLAlertViewBuilder setAlertView:]', symObjAddr: 0x9B98, symBinAddr: 0x1F4A4, symSize: 0x14 }
  - { offset: 0x968D2, size: 0x8, addend: 0x0, symName: '-[SCLAlertViewBuilder cornerRadius]', symObjAddr: 0x9BAC, symBinAddr: 0x1F4B8, symSize: 0x10 }
  - { offset: 0x96914, size: 0x8, addend: 0x0, symName: '-[SCLAlertViewBuilder cornerRadius]', symObjAddr: 0x9BAC, symBinAddr: 0x1F4B8, symSize: 0x10 }
  - { offset: 0x9691C, size: 0x8, addend: 0x0, symName: '-[SCLAlertViewBuilder setCornerRadius:]', symObjAddr: 0x9BBC, symBinAddr: 0x1F4C8, symSize: 0xC }
  - { offset: 0x96954, size: 0x8, addend: 0x0, symName: '-[SCLAlertViewBuilder setCornerRadius:]', symObjAddr: 0x9BBC, symBinAddr: 0x1F4C8, symSize: 0xC }
  - { offset: 0x9695C, size: 0x8, addend: 0x0, symName: '-[SCLAlertViewBuilder tintTopCircle]', symObjAddr: 0x9BC8, symBinAddr: 0x1F4D4, symSize: 0x10 }
  - { offset: 0x9699C, size: 0x8, addend: 0x0, symName: '-[SCLAlertViewBuilder tintTopCircle]', symObjAddr: 0x9BC8, symBinAddr: 0x1F4D4, symSize: 0x10 }
  - { offset: 0x969A4, size: 0x8, addend: 0x0, symName: '-[SCLAlertViewBuilder setTintTopCircle:]', symObjAddr: 0x9BD8, symBinAddr: 0x1F4E4, symSize: 0xC }
  - { offset: 0x969DC, size: 0x8, addend: 0x0, symName: '-[SCLAlertViewBuilder setTintTopCircle:]', symObjAddr: 0x9BD8, symBinAddr: 0x1F4E4, symSize: 0xC }
  - { offset: 0x969E4, size: 0x8, addend: 0x0, symName: '-[SCLAlertViewBuilder useLargerIcon]', symObjAddr: 0x9BE4, symBinAddr: 0x1F4F0, symSize: 0x10 }
  - { offset: 0x96A24, size: 0x8, addend: 0x0, symName: '-[SCLAlertViewBuilder useLargerIcon]', symObjAddr: 0x9BE4, symBinAddr: 0x1F4F0, symSize: 0x10 }
  - { offset: 0x96A2C, size: 0x8, addend: 0x0, symName: '-[SCLAlertViewBuilder setUseLargerIcon:]', symObjAddr: 0x9BF4, symBinAddr: 0x1F500, symSize: 0xC }
  - { offset: 0x96A64, size: 0x8, addend: 0x0, symName: '-[SCLAlertViewBuilder setUseLargerIcon:]', symObjAddr: 0x9BF4, symBinAddr: 0x1F500, symSize: 0xC }
  - { offset: 0x96A6C, size: 0x8, addend: 0x0, symName: '-[SCLAlertViewBuilder labelTitle]', symObjAddr: 0x9C00, symBinAddr: 0x1F50C, symSize: 0x10 }
  - { offset: 0x96AAC, size: 0x8, addend: 0x0, symName: '-[SCLAlertViewBuilder labelTitle]', symObjAddr: 0x9C00, symBinAddr: 0x1F50C, symSize: 0x10 }
  - { offset: 0x96AB4, size: 0x8, addend: 0x0, symName: '-[SCLAlertViewBuilder setLabelTitle:]', symObjAddr: 0x9C10, symBinAddr: 0x1F51C, symSize: 0xC }
  - { offset: 0x96AEC, size: 0x8, addend: 0x0, symName: '-[SCLAlertViewBuilder setLabelTitle:]', symObjAddr: 0x9C10, symBinAddr: 0x1F51C, symSize: 0xC }
  - { offset: 0x96AF4, size: 0x8, addend: 0x0, symName: '-[SCLAlertViewBuilder viewText]', symObjAddr: 0x9C1C, symBinAddr: 0x1F528, symSize: 0x10 }
  - { offset: 0x96B34, size: 0x8, addend: 0x0, symName: '-[SCLAlertViewBuilder viewText]', symObjAddr: 0x9C1C, symBinAddr: 0x1F528, symSize: 0x10 }
  - { offset: 0x96B3C, size: 0x8, addend: 0x0, symName: '-[SCLAlertViewBuilder setViewText:]', symObjAddr: 0x9C2C, symBinAddr: 0x1F538, symSize: 0xC }
  - { offset: 0x96B74, size: 0x8, addend: 0x0, symName: '-[SCLAlertViewBuilder setViewText:]', symObjAddr: 0x9C2C, symBinAddr: 0x1F538, symSize: 0xC }
  - { offset: 0x96B7C, size: 0x8, addend: 0x0, symName: '-[SCLAlertViewBuilder activityIndicatorView]', symObjAddr: 0x9C38, symBinAddr: 0x1F544, symSize: 0x10 }
  - { offset: 0x96BBC, size: 0x8, addend: 0x0, symName: '-[SCLAlertViewBuilder activityIndicatorView]', symObjAddr: 0x9C38, symBinAddr: 0x1F544, symSize: 0x10 }
  - { offset: 0x96BC4, size: 0x8, addend: 0x0, symName: '-[SCLAlertViewBuilder setActivityIndicatorView:]', symObjAddr: 0x9C48, symBinAddr: 0x1F554, symSize: 0xC }
  - { offset: 0x96BFC, size: 0x8, addend: 0x0, symName: '-[SCLAlertViewBuilder setActivityIndicatorView:]', symObjAddr: 0x9C48, symBinAddr: 0x1F554, symSize: 0xC }
  - { offset: 0x96C04, size: 0x8, addend: 0x0, symName: '-[SCLAlertViewBuilder shouldDismissOnTapOutside]', symObjAddr: 0x9C54, symBinAddr: 0x1F560, symSize: 0x10 }
  - { offset: 0x96C44, size: 0x8, addend: 0x0, symName: '-[SCLAlertViewBuilder shouldDismissOnTapOutside]', symObjAddr: 0x9C54, symBinAddr: 0x1F560, symSize: 0x10 }
  - { offset: 0x96C4C, size: 0x8, addend: 0x0, symName: '-[SCLAlertViewBuilder setShouldDismissOnTapOutside:]', symObjAddr: 0x9C64, symBinAddr: 0x1F570, symSize: 0xC }
  - { offset: 0x96C84, size: 0x8, addend: 0x0, symName: '-[SCLAlertViewBuilder setShouldDismissOnTapOutside:]', symObjAddr: 0x9C64, symBinAddr: 0x1F570, symSize: 0xC }
  - { offset: 0x96C8C, size: 0x8, addend: 0x0, symName: '-[SCLAlertViewBuilder soundURL]', symObjAddr: 0x9C70, symBinAddr: 0x1F57C, symSize: 0x10 }
  - { offset: 0x96CCC, size: 0x8, addend: 0x0, symName: '-[SCLAlertViewBuilder soundURL]', symObjAddr: 0x9C70, symBinAddr: 0x1F57C, symSize: 0x10 }
  - { offset: 0x96CD4, size: 0x8, addend: 0x0, symName: '-[SCLAlertViewBuilder setSoundURL:]', symObjAddr: 0x9C80, symBinAddr: 0x1F58C, symSize: 0xC }
  - { offset: 0x96D0C, size: 0x8, addend: 0x0, symName: '-[SCLAlertViewBuilder setSoundURL:]', symObjAddr: 0x9C80, symBinAddr: 0x1F58C, symSize: 0xC }
  - { offset: 0x96D14, size: 0x8, addend: 0x0, symName: '-[SCLAlertViewBuilder attributedFormatBlock]', symObjAddr: 0x9C8C, symBinAddr: 0x1F598, symSize: 0x10 }
  - { offset: 0x96D54, size: 0x8, addend: 0x0, symName: '-[SCLAlertViewBuilder attributedFormatBlock]', symObjAddr: 0x9C8C, symBinAddr: 0x1F598, symSize: 0x10 }
  - { offset: 0x96D5C, size: 0x8, addend: 0x0, symName: '-[SCLAlertViewBuilder setAttributedFormatBlock:]', symObjAddr: 0x9C9C, symBinAddr: 0x1F5A8, symSize: 0xC }
  - { offset: 0x96D94, size: 0x8, addend: 0x0, symName: '-[SCLAlertViewBuilder setAttributedFormatBlock:]', symObjAddr: 0x9C9C, symBinAddr: 0x1F5A8, symSize: 0xC }
  - { offset: 0x96D9C, size: 0x8, addend: 0x0, symName: '-[SCLAlertViewBuilder completeButtonFormatBlock]', symObjAddr: 0x9CA8, symBinAddr: 0x1F5B4, symSize: 0x10 }
  - { offset: 0x96DDC, size: 0x8, addend: 0x0, symName: '-[SCLAlertViewBuilder completeButtonFormatBlock]', symObjAddr: 0x9CA8, symBinAddr: 0x1F5B4, symSize: 0x10 }
  - { offset: 0x96DE4, size: 0x8, addend: 0x0, symName: '-[SCLAlertViewBuilder setCompleteButtonFormatBlock:]', symObjAddr: 0x9CB8, symBinAddr: 0x1F5C4, symSize: 0xC }
  - { offset: 0x96E1C, size: 0x8, addend: 0x0, symName: '-[SCLAlertViewBuilder setCompleteButtonFormatBlock:]', symObjAddr: 0x9CB8, symBinAddr: 0x1F5C4, symSize: 0xC }
  - { offset: 0x96E24, size: 0x8, addend: 0x0, symName: '-[SCLAlertViewBuilder buttonFormatBlock]', symObjAddr: 0x9CC4, symBinAddr: 0x1F5D0, symSize: 0x10 }
  - { offset: 0x96E64, size: 0x8, addend: 0x0, symName: '-[SCLAlertViewBuilder buttonFormatBlock]', symObjAddr: 0x9CC4, symBinAddr: 0x1F5D0, symSize: 0x10 }
  - { offset: 0x96E6C, size: 0x8, addend: 0x0, symName: '-[SCLAlertViewBuilder setButtonFormatBlock:]', symObjAddr: 0x9CD4, symBinAddr: 0x1F5E0, symSize: 0xC }
  - { offset: 0x96EA4, size: 0x8, addend: 0x0, symName: '-[SCLAlertViewBuilder setButtonFormatBlock:]', symObjAddr: 0x9CD4, symBinAddr: 0x1F5E0, symSize: 0xC }
  - { offset: 0x96EAC, size: 0x8, addend: 0x0, symName: '-[SCLAlertViewBuilder forceHideBlock]', symObjAddr: 0x9CE0, symBinAddr: 0x1F5EC, symSize: 0x10 }
  - { offset: 0x96EEC, size: 0x8, addend: 0x0, symName: '-[SCLAlertViewBuilder forceHideBlock]', symObjAddr: 0x9CE0, symBinAddr: 0x1F5EC, symSize: 0x10 }
  - { offset: 0x96EF4, size: 0x8, addend: 0x0, symName: '-[SCLAlertViewBuilder setForceHideBlock:]', symObjAddr: 0x9CF0, symBinAddr: 0x1F5FC, symSize: 0xC }
  - { offset: 0x96F2C, size: 0x8, addend: 0x0, symName: '-[SCLAlertViewBuilder setForceHideBlock:]', symObjAddr: 0x9CF0, symBinAddr: 0x1F5FC, symSize: 0xC }
  - { offset: 0x96F34, size: 0x8, addend: 0x0, symName: '-[SCLAlertViewBuilder hideAnimationType]', symObjAddr: 0x9CFC, symBinAddr: 0x1F608, symSize: 0x10 }
  - { offset: 0x96F74, size: 0x8, addend: 0x0, symName: '-[SCLAlertViewBuilder hideAnimationType]', symObjAddr: 0x9CFC, symBinAddr: 0x1F608, symSize: 0x10 }
  - { offset: 0x96F7C, size: 0x8, addend: 0x0, symName: '-[SCLAlertViewBuilder setHideAnimationType:]', symObjAddr: 0x9D0C, symBinAddr: 0x1F618, symSize: 0xC }
  - { offset: 0x96FB4, size: 0x8, addend: 0x0, symName: '-[SCLAlertViewBuilder setHideAnimationType:]', symObjAddr: 0x9D0C, symBinAddr: 0x1F618, symSize: 0xC }
  - { offset: 0x96FBC, size: 0x8, addend: 0x0, symName: '-[SCLAlertViewBuilder showAnimationType]', symObjAddr: 0x9D18, symBinAddr: 0x1F624, symSize: 0x10 }
  - { offset: 0x96FFC, size: 0x8, addend: 0x0, symName: '-[SCLAlertViewBuilder showAnimationType]', symObjAddr: 0x9D18, symBinAddr: 0x1F624, symSize: 0x10 }
  - { offset: 0x97004, size: 0x8, addend: 0x0, symName: '-[SCLAlertViewBuilder setShowAnimationType:]', symObjAddr: 0x9D28, symBinAddr: 0x1F634, symSize: 0xC }
  - { offset: 0x9703C, size: 0x8, addend: 0x0, symName: '-[SCLAlertViewBuilder setShowAnimationType:]', symObjAddr: 0x9D28, symBinAddr: 0x1F634, symSize: 0xC }
  - { offset: 0x97044, size: 0x8, addend: 0x0, symName: '-[SCLAlertViewBuilder backgroundType]', symObjAddr: 0x9D34, symBinAddr: 0x1F640, symSize: 0x10 }
  - { offset: 0x97084, size: 0x8, addend: 0x0, symName: '-[SCLAlertViewBuilder backgroundType]', symObjAddr: 0x9D34, symBinAddr: 0x1F640, symSize: 0x10 }
  - { offset: 0x9708C, size: 0x8, addend: 0x0, symName: '-[SCLAlertViewBuilder setBackgroundType:]', symObjAddr: 0x9D44, symBinAddr: 0x1F650, symSize: 0xC }
  - { offset: 0x970C4, size: 0x8, addend: 0x0, symName: '-[SCLAlertViewBuilder setBackgroundType:]', symObjAddr: 0x9D44, symBinAddr: 0x1F650, symSize: 0xC }
  - { offset: 0x970CC, size: 0x8, addend: 0x0, symName: '-[SCLAlertViewBuilder customViewColor]', symObjAddr: 0x9D50, symBinAddr: 0x1F65C, symSize: 0x10 }
  - { offset: 0x9710C, size: 0x8, addend: 0x0, symName: '-[SCLAlertViewBuilder customViewColor]', symObjAddr: 0x9D50, symBinAddr: 0x1F65C, symSize: 0x10 }
  - { offset: 0x97114, size: 0x8, addend: 0x0, symName: '-[SCLAlertViewBuilder setCustomViewColor:]', symObjAddr: 0x9D60, symBinAddr: 0x1F66C, symSize: 0xC }
  - { offset: 0x9714C, size: 0x8, addend: 0x0, symName: '-[SCLAlertViewBuilder setCustomViewColor:]', symObjAddr: 0x9D60, symBinAddr: 0x1F66C, symSize: 0xC }
  - { offset: 0x97154, size: 0x8, addend: 0x0, symName: '-[SCLAlertViewBuilder backgroundViewColor]', symObjAddr: 0x9D6C, symBinAddr: 0x1F678, symSize: 0x10 }
  - { offset: 0x97194, size: 0x8, addend: 0x0, symName: '-[SCLAlertViewBuilder backgroundViewColor]', symObjAddr: 0x9D6C, symBinAddr: 0x1F678, symSize: 0x10 }
  - { offset: 0x9719C, size: 0x8, addend: 0x0, symName: '-[SCLAlertViewBuilder setBackgroundViewColor:]', symObjAddr: 0x9D7C, symBinAddr: 0x1F688, symSize: 0xC }
  - { offset: 0x971D4, size: 0x8, addend: 0x0, symName: '-[SCLAlertViewBuilder setBackgroundViewColor:]', symObjAddr: 0x9D7C, symBinAddr: 0x1F688, symSize: 0xC }
  - { offset: 0x971DC, size: 0x8, addend: 0x0, symName: '-[SCLAlertViewBuilder iconTintColor]', symObjAddr: 0x9D88, symBinAddr: 0x1F694, symSize: 0x10 }
  - { offset: 0x9721C, size: 0x8, addend: 0x0, symName: '-[SCLAlertViewBuilder iconTintColor]', symObjAddr: 0x9D88, symBinAddr: 0x1F694, symSize: 0x10 }
  - { offset: 0x97224, size: 0x8, addend: 0x0, symName: '-[SCLAlertViewBuilder setIconTintColor:]', symObjAddr: 0x9D98, symBinAddr: 0x1F6A4, symSize: 0xC }
  - { offset: 0x9725C, size: 0x8, addend: 0x0, symName: '-[SCLAlertViewBuilder setIconTintColor:]', symObjAddr: 0x9D98, symBinAddr: 0x1F6A4, symSize: 0xC }
  - { offset: 0x97264, size: 0x8, addend: 0x0, symName: '-[SCLAlertViewBuilder circleIconHeight]', symObjAddr: 0x9DA4, symBinAddr: 0x1F6B0, symSize: 0x10 }
  - { offset: 0x972A4, size: 0x8, addend: 0x0, symName: '-[SCLAlertViewBuilder circleIconHeight]', symObjAddr: 0x9DA4, symBinAddr: 0x1F6B0, symSize: 0x10 }
  - { offset: 0x972AC, size: 0x8, addend: 0x0, symName: '-[SCLAlertViewBuilder setCircleIconHeight:]', symObjAddr: 0x9DB4, symBinAddr: 0x1F6C0, symSize: 0xC }
  - { offset: 0x972E4, size: 0x8, addend: 0x0, symName: '-[SCLAlertViewBuilder setCircleIconHeight:]', symObjAddr: 0x9DB4, symBinAddr: 0x1F6C0, symSize: 0xC }
  - { offset: 0x972EC, size: 0x8, addend: 0x0, symName: '-[SCLAlertViewBuilder extensionBounds]', symObjAddr: 0x9DC0, symBinAddr: 0x1F6CC, symSize: 0x10 }
  - { offset: 0x9732C, size: 0x8, addend: 0x0, symName: '-[SCLAlertViewBuilder extensionBounds]', symObjAddr: 0x9DC0, symBinAddr: 0x1F6CC, symSize: 0x10 }
  - { offset: 0x97334, size: 0x8, addend: 0x0, symName: '-[SCLAlertViewBuilder setExtensionBounds:]', symObjAddr: 0x9DD0, symBinAddr: 0x1F6DC, symSize: 0xC }
  - { offset: 0x9736C, size: 0x8, addend: 0x0, symName: '-[SCLAlertViewBuilder setExtensionBounds:]', symObjAddr: 0x9DD0, symBinAddr: 0x1F6DC, symSize: 0xC }
  - { offset: 0x97374, size: 0x8, addend: 0x0, symName: '-[SCLAlertViewBuilder statusBarHidden]', symObjAddr: 0x9DDC, symBinAddr: 0x1F6E8, symSize: 0x10 }
  - { offset: 0x973B4, size: 0x8, addend: 0x0, symName: '-[SCLAlertViewBuilder statusBarHidden]', symObjAddr: 0x9DDC, symBinAddr: 0x1F6E8, symSize: 0x10 }
  - { offset: 0x973BC, size: 0x8, addend: 0x0, symName: '-[SCLAlertViewBuilder setStatusBarHidden:]', symObjAddr: 0x9DEC, symBinAddr: 0x1F6F8, symSize: 0xC }
  - { offset: 0x973F4, size: 0x8, addend: 0x0, symName: '-[SCLAlertViewBuilder setStatusBarHidden:]', symObjAddr: 0x9DEC, symBinAddr: 0x1F6F8, symSize: 0xC }
  - { offset: 0x973FC, size: 0x8, addend: 0x0, symName: '-[SCLAlertViewBuilder statusBarStyle]', symObjAddr: 0x9DF8, symBinAddr: 0x1F704, symSize: 0x10 }
  - { offset: 0x9743C, size: 0x8, addend: 0x0, symName: '-[SCLAlertViewBuilder statusBarStyle]', symObjAddr: 0x9DF8, symBinAddr: 0x1F704, symSize: 0x10 }
  - { offset: 0x97444, size: 0x8, addend: 0x0, symName: '-[SCLAlertViewBuilder setStatusBarStyle:]', symObjAddr: 0x9E08, symBinAddr: 0x1F714, symSize: 0xC }
  - { offset: 0x9747C, size: 0x8, addend: 0x0, symName: '-[SCLAlertViewBuilder setStatusBarStyle:]', symObjAddr: 0x9E08, symBinAddr: 0x1F714, symSize: 0xC }
  - { offset: 0x97484, size: 0x8, addend: 0x0, symName: '-[SCLAlertViewBuilder alertIsDismissed]', symObjAddr: 0x9E14, symBinAddr: 0x1F720, symSize: 0x10 }
  - { offset: 0x974C4, size: 0x8, addend: 0x0, symName: '-[SCLAlertViewBuilder alertIsDismissed]', symObjAddr: 0x9E14, symBinAddr: 0x1F720, symSize: 0x10 }
  - { offset: 0x974CC, size: 0x8, addend: 0x0, symName: '-[SCLAlertViewBuilder setAlertIsDismissed:]', symObjAddr: 0x9E24, symBinAddr: 0x1F730, symSize: 0xC }
  - { offset: 0x97504, size: 0x8, addend: 0x0, symName: '-[SCLAlertViewBuilder setAlertIsDismissed:]', symObjAddr: 0x9E24, symBinAddr: 0x1F730, symSize: 0xC }
  - { offset: 0x9750C, size: 0x8, addend: 0x0, symName: '-[SCLAlertViewBuilder alertDismissAnimationIsCompleted]', symObjAddr: 0x9E30, symBinAddr: 0x1F73C, symSize: 0x10 }
  - { offset: 0x9754C, size: 0x8, addend: 0x0, symName: '-[SCLAlertViewBuilder alertDismissAnimationIsCompleted]', symObjAddr: 0x9E30, symBinAddr: 0x1F73C, symSize: 0x10 }
  - { offset: 0x97554, size: 0x8, addend: 0x0, symName: '-[SCLAlertViewBuilder setAlertDismissAnimationIsCompleted:]', symObjAddr: 0x9E40, symBinAddr: 0x1F74C, symSize: 0xC }
  - { offset: 0x9758C, size: 0x8, addend: 0x0, symName: '-[SCLAlertViewBuilder setAlertDismissAnimationIsCompleted:]', symObjAddr: 0x9E40, symBinAddr: 0x1F74C, symSize: 0xC }
  - { offset: 0x97594, size: 0x8, addend: 0x0, symName: '-[SCLAlertViewBuilder alertShowAnimationIsCompleted]', symObjAddr: 0x9E4C, symBinAddr: 0x1F758, symSize: 0x10 }
  - { offset: 0x975D4, size: 0x8, addend: 0x0, symName: '-[SCLAlertViewBuilder alertShowAnimationIsCompleted]', symObjAddr: 0x9E4C, symBinAddr: 0x1F758, symSize: 0x10 }
  - { offset: 0x975DC, size: 0x8, addend: 0x0, symName: '-[SCLAlertViewBuilder setAlertShowAnimationIsCompleted:]', symObjAddr: 0x9E5C, symBinAddr: 0x1F768, symSize: 0xC }
  - { offset: 0x97614, size: 0x8, addend: 0x0, symName: '-[SCLAlertViewBuilder setAlertShowAnimationIsCompleted:]', symObjAddr: 0x9E5C, symBinAddr: 0x1F768, symSize: 0xC }
  - { offset: 0x9761C, size: 0x8, addend: 0x0, symName: '-[SCLAlertViewBuilder removeTopCircle]', symObjAddr: 0x9E68, symBinAddr: 0x1F774, symSize: 0x10 }
  - { offset: 0x9765C, size: 0x8, addend: 0x0, symName: '-[SCLAlertViewBuilder removeTopCircle]', symObjAddr: 0x9E68, symBinAddr: 0x1F774, symSize: 0x10 }
  - { offset: 0x97664, size: 0x8, addend: 0x0, symName: '-[SCLAlertViewBuilder setRemoveTopCircle:]', symObjAddr: 0x9E78, symBinAddr: 0x1F784, symSize: 0xC }
  - { offset: 0x9769C, size: 0x8, addend: 0x0, symName: '-[SCLAlertViewBuilder setRemoveTopCircle:]', symObjAddr: 0x9E78, symBinAddr: 0x1F784, symSize: 0xC }
  - { offset: 0x976A4, size: 0x8, addend: 0x0, symName: '-[SCLAlertViewBuilder addCustomView]', symObjAddr: 0x9E84, symBinAddr: 0x1F790, symSize: 0x10 }
  - { offset: 0x976E4, size: 0x8, addend: 0x0, symName: '-[SCLAlertViewBuilder addCustomView]', symObjAddr: 0x9E84, symBinAddr: 0x1F790, symSize: 0x10 }
  - { offset: 0x976EC, size: 0x8, addend: 0x0, symName: '-[SCLAlertViewBuilder setAddCustomView:]', symObjAddr: 0x9E94, symBinAddr: 0x1F7A0, symSize: 0xC }
  - { offset: 0x97724, size: 0x8, addend: 0x0, symName: '-[SCLAlertViewBuilder setAddCustomView:]', symObjAddr: 0x9E94, symBinAddr: 0x1F7A0, symSize: 0xC }
  - { offset: 0x9772C, size: 0x8, addend: 0x0, symName: '-[SCLAlertViewBuilder addTextField]', symObjAddr: 0x9EA0, symBinAddr: 0x1F7AC, symSize: 0x10 }
  - { offset: 0x9776C, size: 0x8, addend: 0x0, symName: '-[SCLAlertViewBuilder addTextField]', symObjAddr: 0x9EA0, symBinAddr: 0x1F7AC, symSize: 0x10 }
  - { offset: 0x97774, size: 0x8, addend: 0x0, symName: '-[SCLAlertViewBuilder setAddTextField:]', symObjAddr: 0x9EB0, symBinAddr: 0x1F7BC, symSize: 0xC }
  - { offset: 0x977AC, size: 0x8, addend: 0x0, symName: '-[SCLAlertViewBuilder setAddTextField:]', symObjAddr: 0x9EB0, symBinAddr: 0x1F7BC, symSize: 0xC }
  - { offset: 0x977B4, size: 0x8, addend: 0x0, symName: '-[SCLAlertViewBuilder addCustomTextField]', symObjAddr: 0x9EBC, symBinAddr: 0x1F7C8, symSize: 0x10 }
  - { offset: 0x977F4, size: 0x8, addend: 0x0, symName: '-[SCLAlertViewBuilder addCustomTextField]', symObjAddr: 0x9EBC, symBinAddr: 0x1F7C8, symSize: 0x10 }
  - { offset: 0x977FC, size: 0x8, addend: 0x0, symName: '-[SCLAlertViewBuilder setAddCustomTextField:]', symObjAddr: 0x9ECC, symBinAddr: 0x1F7D8, symSize: 0xC }
  - { offset: 0x97834, size: 0x8, addend: 0x0, symName: '-[SCLAlertViewBuilder setAddCustomTextField:]', symObjAddr: 0x9ECC, symBinAddr: 0x1F7D8, symSize: 0xC }
  - { offset: 0x9783C, size: 0x8, addend: 0x0, symName: '-[SCLAlertViewBuilder addSwitchViewWithLabelTitle]', symObjAddr: 0x9ED8, symBinAddr: 0x1F7E4, symSize: 0x10 }
  - { offset: 0x9787C, size: 0x8, addend: 0x0, symName: '-[SCLAlertViewBuilder addSwitchViewWithLabelTitle]', symObjAddr: 0x9ED8, symBinAddr: 0x1F7E4, symSize: 0x10 }
  - { offset: 0x97884, size: 0x8, addend: 0x0, symName: '-[SCLAlertViewBuilder setAddSwitchViewWithLabelTitle:]', symObjAddr: 0x9EE8, symBinAddr: 0x1F7F4, symSize: 0xC }
  - { offset: 0x978BC, size: 0x8, addend: 0x0, symName: '-[SCLAlertViewBuilder setAddSwitchViewWithLabelTitle:]', symObjAddr: 0x9EE8, symBinAddr: 0x1F7F4, symSize: 0xC }
  - { offset: 0x978C4, size: 0x8, addend: 0x0, symName: '-[SCLAlertViewBuilder addTimerToButtonIndex]', symObjAddr: 0x9EF4, symBinAddr: 0x1F800, symSize: 0x10 }
  - { offset: 0x97904, size: 0x8, addend: 0x0, symName: '-[SCLAlertViewBuilder addTimerToButtonIndex]', symObjAddr: 0x9EF4, symBinAddr: 0x1F800, symSize: 0x10 }
  - { offset: 0x9790C, size: 0x8, addend: 0x0, symName: '-[SCLAlertViewBuilder setAddTimerToButtonIndex:]', symObjAddr: 0x9F04, symBinAddr: 0x1F810, symSize: 0xC }
  - { offset: 0x97944, size: 0x8, addend: 0x0, symName: '-[SCLAlertViewBuilder setAddTimerToButtonIndex:]', symObjAddr: 0x9F04, symBinAddr: 0x1F810, symSize: 0xC }
  - { offset: 0x9794C, size: 0x8, addend: 0x0, symName: '-[SCLAlertViewBuilder setTitleFontFamily]', symObjAddr: 0x9F10, symBinAddr: 0x1F81C, symSize: 0x10 }
  - { offset: 0x9798C, size: 0x8, addend: 0x0, symName: '-[SCLAlertViewBuilder setTitleFontFamily]', symObjAddr: 0x9F10, symBinAddr: 0x1F81C, symSize: 0x10 }
  - { offset: 0x97994, size: 0x8, addend: 0x0, symName: '-[SCLAlertViewBuilder setSetTitleFontFamily:]', symObjAddr: 0x9F20, symBinAddr: 0x1F82C, symSize: 0xC }
  - { offset: 0x979CC, size: 0x8, addend: 0x0, symName: '-[SCLAlertViewBuilder setSetTitleFontFamily:]', symObjAddr: 0x9F20, symBinAddr: 0x1F82C, symSize: 0xC }
  - { offset: 0x979D4, size: 0x8, addend: 0x0, symName: '-[SCLAlertViewBuilder setBodyTextFontFamily]', symObjAddr: 0x9F2C, symBinAddr: 0x1F838, symSize: 0x10 }
  - { offset: 0x97A14, size: 0x8, addend: 0x0, symName: '-[SCLAlertViewBuilder setBodyTextFontFamily]', symObjAddr: 0x9F2C, symBinAddr: 0x1F838, symSize: 0x10 }
  - { offset: 0x97A1C, size: 0x8, addend: 0x0, symName: '-[SCLAlertViewBuilder setSetBodyTextFontFamily:]', symObjAddr: 0x9F3C, symBinAddr: 0x1F848, symSize: 0xC }
  - { offset: 0x97A54, size: 0x8, addend: 0x0, symName: '-[SCLAlertViewBuilder setSetBodyTextFontFamily:]', symObjAddr: 0x9F3C, symBinAddr: 0x1F848, symSize: 0xC }
  - { offset: 0x97A5C, size: 0x8, addend: 0x0, symName: '-[SCLAlertViewBuilder setButtonsTextFontFamily]', symObjAddr: 0x9F48, symBinAddr: 0x1F854, symSize: 0x10 }
  - { offset: 0x97A9C, size: 0x8, addend: 0x0, symName: '-[SCLAlertViewBuilder setButtonsTextFontFamily]', symObjAddr: 0x9F48, symBinAddr: 0x1F854, symSize: 0x10 }
  - { offset: 0x97AA4, size: 0x8, addend: 0x0, symName: '-[SCLAlertViewBuilder setSetButtonsTextFontFamily:]', symObjAddr: 0x9F58, symBinAddr: 0x1F864, symSize: 0xC }
  - { offset: 0x97ADC, size: 0x8, addend: 0x0, symName: '-[SCLAlertViewBuilder setSetButtonsTextFontFamily:]', symObjAddr: 0x9F58, symBinAddr: 0x1F864, symSize: 0xC }
  - { offset: 0x97AE4, size: 0x8, addend: 0x0, symName: '-[SCLAlertViewBuilder addButtonWithActionBlock]', symObjAddr: 0x9F64, symBinAddr: 0x1F870, symSize: 0x10 }
  - { offset: 0x97B24, size: 0x8, addend: 0x0, symName: '-[SCLAlertViewBuilder addButtonWithActionBlock]', symObjAddr: 0x9F64, symBinAddr: 0x1F870, symSize: 0x10 }
  - { offset: 0x97B2C, size: 0x8, addend: 0x0, symName: '-[SCLAlertViewBuilder setAddButtonWithActionBlock:]', symObjAddr: 0x9F74, symBinAddr: 0x1F880, symSize: 0xC }
  - { offset: 0x97B64, size: 0x8, addend: 0x0, symName: '-[SCLAlertViewBuilder setAddButtonWithActionBlock:]', symObjAddr: 0x9F74, symBinAddr: 0x1F880, symSize: 0xC }
  - { offset: 0x97B6C, size: 0x8, addend: 0x0, symName: '-[SCLAlertViewBuilder addButtonWithValidationBlock]', symObjAddr: 0x9F80, symBinAddr: 0x1F88C, symSize: 0x10 }
  - { offset: 0x97BAC, size: 0x8, addend: 0x0, symName: '-[SCLAlertViewBuilder addButtonWithValidationBlock]', symObjAddr: 0x9F80, symBinAddr: 0x1F88C, symSize: 0x10 }
  - { offset: 0x97BB4, size: 0x8, addend: 0x0, symName: '-[SCLAlertViewBuilder setAddButtonWithValidationBlock:]', symObjAddr: 0x9F90, symBinAddr: 0x1F89C, symSize: 0xC }
  - { offset: 0x97BEC, size: 0x8, addend: 0x0, symName: '-[SCLAlertViewBuilder setAddButtonWithValidationBlock:]', symObjAddr: 0x9F90, symBinAddr: 0x1F89C, symSize: 0xC }
  - { offset: 0x97BF4, size: 0x8, addend: 0x0, symName: '-[SCLAlertViewBuilder addButtonWithTarget]', symObjAddr: 0x9F9C, symBinAddr: 0x1F8A8, symSize: 0x10 }
  - { offset: 0x97C34, size: 0x8, addend: 0x0, symName: '-[SCLAlertViewBuilder addButtonWithTarget]', symObjAddr: 0x9F9C, symBinAddr: 0x1F8A8, symSize: 0x10 }
  - { offset: 0x97C3C, size: 0x8, addend: 0x0, symName: '-[SCLAlertViewBuilder setAddButtonWithTarget:]', symObjAddr: 0x9FAC, symBinAddr: 0x1F8B8, symSize: 0xC }
  - { offset: 0x97C74, size: 0x8, addend: 0x0, symName: '-[SCLAlertViewBuilder setAddButtonWithTarget:]', symObjAddr: 0x9FAC, symBinAddr: 0x1F8B8, symSize: 0xC }
  - { offset: 0x97C7C, size: 0x8, addend: 0x0, symName: '-[SCLAlertViewBuilder addButtonWithBuilder]', symObjAddr: 0x9FB8, symBinAddr: 0x1F8C4, symSize: 0x10 }
  - { offset: 0x97CBC, size: 0x8, addend: 0x0, symName: '-[SCLAlertViewBuilder addButtonWithBuilder]', symObjAddr: 0x9FB8, symBinAddr: 0x1F8C4, symSize: 0x10 }
  - { offset: 0x97CC4, size: 0x8, addend: 0x0, symName: '-[SCLAlertViewBuilder setAddButtonWithBuilder:]', symObjAddr: 0x9FC8, symBinAddr: 0x1F8D4, symSize: 0xC }
  - { offset: 0x97CFC, size: 0x8, addend: 0x0, symName: '-[SCLAlertViewBuilder setAddButtonWithBuilder:]', symObjAddr: 0x9FC8, symBinAddr: 0x1F8D4, symSize: 0xC }
  - { offset: 0x97D04, size: 0x8, addend: 0x0, symName: '-[SCLAlertViewBuilder addTextFieldWithBuilder]', symObjAddr: 0x9FD4, symBinAddr: 0x1F8E0, symSize: 0x10 }
  - { offset: 0x97D44, size: 0x8, addend: 0x0, symName: '-[SCLAlertViewBuilder addTextFieldWithBuilder]', symObjAddr: 0x9FD4, symBinAddr: 0x1F8E0, symSize: 0x10 }
  - { offset: 0x97D4C, size: 0x8, addend: 0x0, symName: '-[SCLAlertViewBuilder setAddTextFieldWithBuilder:]', symObjAddr: 0x9FE4, symBinAddr: 0x1F8F0, symSize: 0xC }
  - { offset: 0x97D84, size: 0x8, addend: 0x0, symName: '-[SCLAlertViewBuilder setAddTextFieldWithBuilder:]', symObjAddr: 0x9FE4, symBinAddr: 0x1F8F0, symSize: 0xC }
  - { offset: 0x97D8C, size: 0x8, addend: 0x0, symName: '-[SCLAlertViewBuilder .cxx_destruct]', symObjAddr: 0x9FF0, symBinAddr: 0x1F8FC, symSize: 0x338 }
  - { offset: 0x97DCC, size: 0x8, addend: 0x0, symName: '-[SCLAlertViewBuilder .cxx_destruct]', symObjAddr: 0x9FF0, symBinAddr: 0x1F8FC, symSize: 0x338 }
  - { offset: 0x97DD4, size: 0x8, addend: 0x0, symName: '-[SCLAlertViewShowBuilder setupFluent]', symObjAddr: 0xA328, symBinAddr: 0x1FC34, symSize: 0x3E0 }
  - { offset: 0x97E08, size: 0x8, addend: 0x0, symName: '-[SCLAlertViewShowBuilder setupFluent]', symObjAddr: 0xA328, symBinAddr: 0x1FC34, symSize: 0x3E0 }
  - { offset: 0x97E10, size: 0x8, addend: 0x0, symName: '___38-[SCLAlertViewShowBuilder setupFluent]_block_invoke', symObjAddr: 0xA708, symBinAddr: 0x20014, symSize: 0x5C }
  - { offset: 0x97E54, size: 0x8, addend: 0x0, symName: '___38-[SCLAlertViewShowBuilder setupFluent]_block_invoke', symObjAddr: 0xA708, symBinAddr: 0x20014, symSize: 0x5C }
  - { offset: 0x97E5C, size: 0x8, addend: 0x0, symName: '___38-[SCLAlertViewShowBuilder setupFluent]_block_invoke.801', symObjAddr: 0xA764, symBinAddr: 0x20070, symSize: 0x5C }
  - { offset: 0x97E94, size: 0x8, addend: 0x0, symName: '___38-[SCLAlertViewShowBuilder setupFluent]_block_invoke.801', symObjAddr: 0xA764, symBinAddr: 0x20070, symSize: 0x5C }
  - { offset: 0x97E9C, size: 0x8, addend: 0x0, symName: '___38-[SCLAlertViewShowBuilder setupFluent]_block_invoke.803', symObjAddr: 0xA7C0, symBinAddr: 0x200CC, symSize: 0x5C }
  - { offset: 0x97ED4, size: 0x8, addend: 0x0, symName: '___38-[SCLAlertViewShowBuilder setupFluent]_block_invoke.803', symObjAddr: 0xA7C0, symBinAddr: 0x200CC, symSize: 0x5C }
  - { offset: 0x97EDC, size: 0x8, addend: 0x0, symName: '___38-[SCLAlertViewShowBuilder setupFluent]_block_invoke.805', symObjAddr: 0xA81C, symBinAddr: 0x20128, symSize: 0x5C }
  - { offset: 0x97F14, size: 0x8, addend: 0x0, symName: '___38-[SCLAlertViewShowBuilder setupFluent]_block_invoke.805', symObjAddr: 0xA81C, symBinAddr: 0x20128, symSize: 0x5C }
  - { offset: 0x97F1C, size: 0x8, addend: 0x0, symName: '___38-[SCLAlertViewShowBuilder setupFluent]_block_invoke.807', symObjAddr: 0xA878, symBinAddr: 0x20184, symSize: 0x5C }
  - { offset: 0x97F54, size: 0x8, addend: 0x0, symName: '___38-[SCLAlertViewShowBuilder setupFluent]_block_invoke.807', symObjAddr: 0xA878, symBinAddr: 0x20184, symSize: 0x5C }
  - { offset: 0x97F5C, size: 0x8, addend: 0x0, symName: '___38-[SCLAlertViewShowBuilder setupFluent]_block_invoke_2', symObjAddr: 0xA8D4, symBinAddr: 0x201E0, symSize: 0x5C }
  - { offset: 0x97F94, size: 0x8, addend: 0x0, symName: '___38-[SCLAlertViewShowBuilder setupFluent]_block_invoke_2', symObjAddr: 0xA8D4, symBinAddr: 0x201E0, symSize: 0x5C }
  - { offset: 0x97F9C, size: 0x8, addend: 0x0, symName: '___38-[SCLAlertViewShowBuilder setupFluent]_block_invoke_3', symObjAddr: 0xA930, symBinAddr: 0x2023C, symSize: 0x4C }
  - { offset: 0x97FD4, size: 0x8, addend: 0x0, symName: '___38-[SCLAlertViewShowBuilder setupFluent]_block_invoke_3', symObjAddr: 0xA930, symBinAddr: 0x2023C, symSize: 0x4C }
  - { offset: 0x97FDC, size: 0x8, addend: 0x0, symName: '___38-[SCLAlertViewShowBuilder setupFluent]_block_invoke.809', symObjAddr: 0xA97C, symBinAddr: 0x20288, symSize: 0x5C }
  - { offset: 0x98014, size: 0x8, addend: 0x0, symName: '___38-[SCLAlertViewShowBuilder setupFluent]_block_invoke.809', symObjAddr: 0xA97C, symBinAddr: 0x20288, symSize: 0x5C }
  - { offset: 0x9801C, size: 0x8, addend: 0x0, symName: '___38-[SCLAlertViewShowBuilder setupFluent]_block_invoke_2.810', symObjAddr: 0xA9D8, symBinAddr: 0x202E4, symSize: 0x4C }
  - { offset: 0x98054, size: 0x8, addend: 0x0, symName: '___38-[SCLAlertViewShowBuilder setupFluent]_block_invoke_2.810', symObjAddr: 0xA9D8, symBinAddr: 0x202E4, symSize: 0x4C }
  - { offset: 0x9805C, size: 0x8, addend: 0x0, symName: '___38-[SCLAlertViewShowBuilder setupFluent]_block_invoke.812', symObjAddr: 0xAA24, symBinAddr: 0x20330, symSize: 0x6C }
  - { offset: 0x98094, size: 0x8, addend: 0x0, symName: '___38-[SCLAlertViewShowBuilder setupFluent]_block_invoke.812', symObjAddr: 0xAA24, symBinAddr: 0x20330, symSize: 0x6C }
  - { offset: 0x9809C, size: 0x8, addend: 0x0, symName: '-[SCLAlertViewShowBuilder showAlertView:]', symObjAddr: 0xAA90, symBinAddr: 0x2039C, symSize: 0x60 }
  - { offset: 0x980DD, size: 0x8, addend: 0x0, symName: '-[SCLAlertViewShowBuilder showAlertView:]', symObjAddr: 0xAA90, symBinAddr: 0x2039C, symSize: 0x60 }
  - { offset: 0x980E5, size: 0x8, addend: 0x0, symName: '-[SCLAlertViewShowBuilder showAlertView:onViewController:]', symObjAddr: 0xAAF0, symBinAddr: 0x203FC, symSize: 0x21C }
  - { offset: 0x98129, size: 0x8, addend: 0x0, symName: '-[SCLAlertViewShowBuilder showAlertView:onViewController:]', symObjAddr: 0xAAF0, symBinAddr: 0x203FC, symSize: 0x21C }
  - { offset: 0x98131, size: 0x8, addend: 0x0, symName: '-[SCLAlertViewShowBuilder parameterViewController]', symObjAddr: 0xAD0C, symBinAddr: 0x20618, symSize: 0x20 }
  - { offset: 0x98197, size: 0x8, addend: 0x0, symName: '-[SCLAlertViewShowBuilder parameterViewController]', symObjAddr: 0xAD0C, symBinAddr: 0x20618, symSize: 0x20 }
  - { offset: 0x9819F, size: 0x8, addend: 0x0, symName: '-[SCLAlertViewShowBuilder setParameterViewController:]', symObjAddr: 0xAD2C, symBinAddr: 0x20638, symSize: 0x14 }
  - { offset: 0x981D7, size: 0x8, addend: 0x0, symName: '-[SCLAlertViewShowBuilder setParameterViewController:]', symObjAddr: 0xAD2C, symBinAddr: 0x20638, symSize: 0x14 }
  - { offset: 0x981DF, size: 0x8, addend: 0x0, symName: '-[SCLAlertViewShowBuilder parameterImage]', symObjAddr: 0xAD40, symBinAddr: 0x2064C, symSize: 0x10 }
  - { offset: 0x98221, size: 0x8, addend: 0x0, symName: '-[SCLAlertViewShowBuilder parameterImage]', symObjAddr: 0xAD40, symBinAddr: 0x2064C, symSize: 0x10 }
  - { offset: 0x98229, size: 0x8, addend: 0x0, symName: '-[SCLAlertViewShowBuilder setParameterImage:]', symObjAddr: 0xAD50, symBinAddr: 0x2065C, symSize: 0xC }
  - { offset: 0x98261, size: 0x8, addend: 0x0, symName: '-[SCLAlertViewShowBuilder setParameterImage:]', symObjAddr: 0xAD50, symBinAddr: 0x2065C, symSize: 0xC }
  - { offset: 0x98269, size: 0x8, addend: 0x0, symName: '-[SCLAlertViewShowBuilder parameterColor]', symObjAddr: 0xAD5C, symBinAddr: 0x20668, symSize: 0x10 }
  - { offset: 0x982A9, size: 0x8, addend: 0x0, symName: '-[SCLAlertViewShowBuilder parameterColor]', symObjAddr: 0xAD5C, symBinAddr: 0x20668, symSize: 0x10 }
  - { offset: 0x982B1, size: 0x8, addend: 0x0, symName: '-[SCLAlertViewShowBuilder setParameterColor:]', symObjAddr: 0xAD6C, symBinAddr: 0x20678, symSize: 0xC }
  - { offset: 0x982E9, size: 0x8, addend: 0x0, symName: '-[SCLAlertViewShowBuilder setParameterColor:]', symObjAddr: 0xAD6C, symBinAddr: 0x20678, symSize: 0xC }
  - { offset: 0x982F1, size: 0x8, addend: 0x0, symName: '-[SCLAlertViewShowBuilder parameterTitle]', symObjAddr: 0xAD78, symBinAddr: 0x20684, symSize: 0x10 }
  - { offset: 0x98331, size: 0x8, addend: 0x0, symName: '-[SCLAlertViewShowBuilder parameterTitle]', symObjAddr: 0xAD78, symBinAddr: 0x20684, symSize: 0x10 }
  - { offset: 0x98339, size: 0x8, addend: 0x0, symName: '-[SCLAlertViewShowBuilder setParameterTitle:]', symObjAddr: 0xAD88, symBinAddr: 0x20694, symSize: 0xC }
  - { offset: 0x98371, size: 0x8, addend: 0x0, symName: '-[SCLAlertViewShowBuilder setParameterTitle:]', symObjAddr: 0xAD88, symBinAddr: 0x20694, symSize: 0xC }
  - { offset: 0x98379, size: 0x8, addend: 0x0, symName: '-[SCLAlertViewShowBuilder parameterSubTitle]', symObjAddr: 0xAD94, symBinAddr: 0x206A0, symSize: 0x10 }
  - { offset: 0x983B9, size: 0x8, addend: 0x0, symName: '-[SCLAlertViewShowBuilder parameterSubTitle]', symObjAddr: 0xAD94, symBinAddr: 0x206A0, symSize: 0x10 }
  - { offset: 0x983C1, size: 0x8, addend: 0x0, symName: '-[SCLAlertViewShowBuilder setParameterSubTitle:]', symObjAddr: 0xADA4, symBinAddr: 0x206B0, symSize: 0xC }
  - { offset: 0x983F9, size: 0x8, addend: 0x0, symName: '-[SCLAlertViewShowBuilder setParameterSubTitle:]', symObjAddr: 0xADA4, symBinAddr: 0x206B0, symSize: 0xC }
  - { offset: 0x98401, size: 0x8, addend: 0x0, symName: '-[SCLAlertViewShowBuilder parameterCompleteText]', symObjAddr: 0xADB0, symBinAddr: 0x206BC, symSize: 0x10 }
  - { offset: 0x98441, size: 0x8, addend: 0x0, symName: '-[SCLAlertViewShowBuilder parameterCompleteText]', symObjAddr: 0xADB0, symBinAddr: 0x206BC, symSize: 0x10 }
  - { offset: 0x98449, size: 0x8, addend: 0x0, symName: '-[SCLAlertViewShowBuilder setParameterCompleteText:]', symObjAddr: 0xADC0, symBinAddr: 0x206CC, symSize: 0xC }
  - { offset: 0x98481, size: 0x8, addend: 0x0, symName: '-[SCLAlertViewShowBuilder setParameterCompleteText:]', symObjAddr: 0xADC0, symBinAddr: 0x206CC, symSize: 0xC }
  - { offset: 0x98489, size: 0x8, addend: 0x0, symName: '-[SCLAlertViewShowBuilder parameterCloseButtonTitle]', symObjAddr: 0xADCC, symBinAddr: 0x206D8, symSize: 0x10 }
  - { offset: 0x984C9, size: 0x8, addend: 0x0, symName: '-[SCLAlertViewShowBuilder parameterCloseButtonTitle]', symObjAddr: 0xADCC, symBinAddr: 0x206D8, symSize: 0x10 }
  - { offset: 0x984D1, size: 0x8, addend: 0x0, symName: '-[SCLAlertViewShowBuilder setParameterCloseButtonTitle:]', symObjAddr: 0xADDC, symBinAddr: 0x206E8, symSize: 0xC }
  - { offset: 0x98509, size: 0x8, addend: 0x0, symName: '-[SCLAlertViewShowBuilder setParameterCloseButtonTitle:]', symObjAddr: 0xADDC, symBinAddr: 0x206E8, symSize: 0xC }
  - { offset: 0x98511, size: 0x8, addend: 0x0, symName: '-[SCLAlertViewShowBuilder parameterStyle]', symObjAddr: 0xADE8, symBinAddr: 0x206F4, symSize: 0x10 }
  - { offset: 0x98551, size: 0x8, addend: 0x0, symName: '-[SCLAlertViewShowBuilder parameterStyle]', symObjAddr: 0xADE8, symBinAddr: 0x206F4, symSize: 0x10 }
  - { offset: 0x98559, size: 0x8, addend: 0x0, symName: '-[SCLAlertViewShowBuilder setParameterStyle:]', symObjAddr: 0xADF8, symBinAddr: 0x20704, symSize: 0x10 }
  - { offset: 0x98591, size: 0x8, addend: 0x0, symName: '-[SCLAlertViewShowBuilder setParameterStyle:]', symObjAddr: 0xADF8, symBinAddr: 0x20704, symSize: 0x10 }
  - { offset: 0x98599, size: 0x8, addend: 0x0, symName: '-[SCLAlertViewShowBuilder parameterDuration]', symObjAddr: 0xAE08, symBinAddr: 0x20714, symSize: 0x10 }
  - { offset: 0x985D7, size: 0x8, addend: 0x0, symName: '-[SCLAlertViewShowBuilder parameterDuration]', symObjAddr: 0xAE08, symBinAddr: 0x20714, symSize: 0x10 }
  - { offset: 0x985DF, size: 0x8, addend: 0x0, symName: '-[SCLAlertViewShowBuilder setParameterDuration:]', symObjAddr: 0xAE18, symBinAddr: 0x20724, symSize: 0x10 }
  - { offset: 0x98615, size: 0x8, addend: 0x0, symName: '-[SCLAlertViewShowBuilder setParameterDuration:]', symObjAddr: 0xAE18, symBinAddr: 0x20724, symSize: 0x10 }
  - { offset: 0x9861D, size: 0x8, addend: 0x0, symName: '-[SCLAlertViewShowBuilder viewController]', symObjAddr: 0xAE28, symBinAddr: 0x20734, symSize: 0x10 }
  - { offset: 0x9865C, size: 0x8, addend: 0x0, symName: '-[SCLAlertViewShowBuilder viewController]', symObjAddr: 0xAE28, symBinAddr: 0x20734, symSize: 0x10 }
  - { offset: 0x98664, size: 0x8, addend: 0x0, symName: '-[SCLAlertViewShowBuilder setViewController:]', symObjAddr: 0xAE38, symBinAddr: 0x20744, symSize: 0xC }
  - { offset: 0x9869C, size: 0x8, addend: 0x0, symName: '-[SCLAlertViewShowBuilder setViewController:]', symObjAddr: 0xAE38, symBinAddr: 0x20744, symSize: 0xC }
  - { offset: 0x986A4, size: 0x8, addend: 0x0, symName: '-[SCLAlertViewShowBuilder image]', symObjAddr: 0xAE44, symBinAddr: 0x20750, symSize: 0x10 }
  - { offset: 0x986E4, size: 0x8, addend: 0x0, symName: '-[SCLAlertViewShowBuilder image]', symObjAddr: 0xAE44, symBinAddr: 0x20750, symSize: 0x10 }
  - { offset: 0x986EC, size: 0x8, addend: 0x0, symName: '-[SCLAlertViewShowBuilder setImage:]', symObjAddr: 0xAE54, symBinAddr: 0x20760, symSize: 0xC }
  - { offset: 0x98724, size: 0x8, addend: 0x0, symName: '-[SCLAlertViewShowBuilder setImage:]', symObjAddr: 0xAE54, symBinAddr: 0x20760, symSize: 0xC }
  - { offset: 0x9872C, size: 0x8, addend: 0x0, symName: '-[SCLAlertViewShowBuilder color]', symObjAddr: 0xAE60, symBinAddr: 0x2076C, symSize: 0x10 }
  - { offset: 0x9876C, size: 0x8, addend: 0x0, symName: '-[SCLAlertViewShowBuilder color]', symObjAddr: 0xAE60, symBinAddr: 0x2076C, symSize: 0x10 }
  - { offset: 0x98774, size: 0x8, addend: 0x0, symName: '-[SCLAlertViewShowBuilder setColor:]', symObjAddr: 0xAE70, symBinAddr: 0x2077C, symSize: 0xC }
  - { offset: 0x987AC, size: 0x8, addend: 0x0, symName: '-[SCLAlertViewShowBuilder setColor:]', symObjAddr: 0xAE70, symBinAddr: 0x2077C, symSize: 0xC }
  - { offset: 0x987B4, size: 0x8, addend: 0x0, symName: '-[SCLAlertViewShowBuilder title]', symObjAddr: 0xAE7C, symBinAddr: 0x20788, symSize: 0x10 }
  - { offset: 0x987F4, size: 0x8, addend: 0x0, symName: '-[SCLAlertViewShowBuilder title]', symObjAddr: 0xAE7C, symBinAddr: 0x20788, symSize: 0x10 }
  - { offset: 0x987FC, size: 0x8, addend: 0x0, symName: '-[SCLAlertViewShowBuilder setTitle:]', symObjAddr: 0xAE8C, symBinAddr: 0x20798, symSize: 0xC }
  - { offset: 0x98834, size: 0x8, addend: 0x0, symName: '-[SCLAlertViewShowBuilder setTitle:]', symObjAddr: 0xAE8C, symBinAddr: 0x20798, symSize: 0xC }
  - { offset: 0x9883C, size: 0x8, addend: 0x0, symName: '-[SCLAlertViewShowBuilder subTitle]', symObjAddr: 0xAE98, symBinAddr: 0x207A4, symSize: 0x10 }
  - { offset: 0x9887C, size: 0x8, addend: 0x0, symName: '-[SCLAlertViewShowBuilder subTitle]', symObjAddr: 0xAE98, symBinAddr: 0x207A4, symSize: 0x10 }
  - { offset: 0x98884, size: 0x8, addend: 0x0, symName: '-[SCLAlertViewShowBuilder setSubTitle:]', symObjAddr: 0xAEA8, symBinAddr: 0x207B4, symSize: 0xC }
  - { offset: 0x988BC, size: 0x8, addend: 0x0, symName: '-[SCLAlertViewShowBuilder setSubTitle:]', symObjAddr: 0xAEA8, symBinAddr: 0x207B4, symSize: 0xC }
  - { offset: 0x988C4, size: 0x8, addend: 0x0, symName: '-[SCLAlertViewShowBuilder completeText]', symObjAddr: 0xAEB4, symBinAddr: 0x207C0, symSize: 0x10 }
  - { offset: 0x98904, size: 0x8, addend: 0x0, symName: '-[SCLAlertViewShowBuilder completeText]', symObjAddr: 0xAEB4, symBinAddr: 0x207C0, symSize: 0x10 }
  - { offset: 0x9890C, size: 0x8, addend: 0x0, symName: '-[SCLAlertViewShowBuilder setCompleteText:]', symObjAddr: 0xAEC4, symBinAddr: 0x207D0, symSize: 0xC }
  - { offset: 0x98944, size: 0x8, addend: 0x0, symName: '-[SCLAlertViewShowBuilder setCompleteText:]', symObjAddr: 0xAEC4, symBinAddr: 0x207D0, symSize: 0xC }
  - { offset: 0x9894C, size: 0x8, addend: 0x0, symName: '-[SCLAlertViewShowBuilder style]', symObjAddr: 0xAED0, symBinAddr: 0x207DC, symSize: 0x10 }
  - { offset: 0x9898C, size: 0x8, addend: 0x0, symName: '-[SCLAlertViewShowBuilder style]', symObjAddr: 0xAED0, symBinAddr: 0x207DC, symSize: 0x10 }
  - { offset: 0x98994, size: 0x8, addend: 0x0, symName: '-[SCLAlertViewShowBuilder setStyle:]', symObjAddr: 0xAEE0, symBinAddr: 0x207EC, symSize: 0xC }
  - { offset: 0x989CC, size: 0x8, addend: 0x0, symName: '-[SCLAlertViewShowBuilder setStyle:]', symObjAddr: 0xAEE0, symBinAddr: 0x207EC, symSize: 0xC }
  - { offset: 0x989D4, size: 0x8, addend: 0x0, symName: '-[SCLAlertViewShowBuilder closeButtonTitle]', symObjAddr: 0xAEEC, symBinAddr: 0x207F8, symSize: 0x10 }
  - { offset: 0x98A14, size: 0x8, addend: 0x0, symName: '-[SCLAlertViewShowBuilder closeButtonTitle]', symObjAddr: 0xAEEC, symBinAddr: 0x207F8, symSize: 0x10 }
  - { offset: 0x98A1C, size: 0x8, addend: 0x0, symName: '-[SCLAlertViewShowBuilder setCloseButtonTitle:]', symObjAddr: 0xAEFC, symBinAddr: 0x20808, symSize: 0xC }
  - { offset: 0x98A54, size: 0x8, addend: 0x0, symName: '-[SCLAlertViewShowBuilder setCloseButtonTitle:]', symObjAddr: 0xAEFC, symBinAddr: 0x20808, symSize: 0xC }
  - { offset: 0x98A5C, size: 0x8, addend: 0x0, symName: '-[SCLAlertViewShowBuilder duration]', symObjAddr: 0xAF08, symBinAddr: 0x20814, symSize: 0x10 }
  - { offset: 0x98A9C, size: 0x8, addend: 0x0, symName: '-[SCLAlertViewShowBuilder duration]', symObjAddr: 0xAF08, symBinAddr: 0x20814, symSize: 0x10 }
  - { offset: 0x98AA4, size: 0x8, addend: 0x0, symName: '-[SCLAlertViewShowBuilder setDuration:]', symObjAddr: 0xAF18, symBinAddr: 0x20824, symSize: 0xC }
  - { offset: 0x98ADC, size: 0x8, addend: 0x0, symName: '-[SCLAlertViewShowBuilder setDuration:]', symObjAddr: 0xAF18, symBinAddr: 0x20824, symSize: 0xC }
  - { offset: 0x98AE4, size: 0x8, addend: 0x0, symName: '-[SCLAlertViewShowBuilder show]', symObjAddr: 0xAF24, symBinAddr: 0x20830, symSize: 0x10 }
  - { offset: 0x98B24, size: 0x8, addend: 0x0, symName: '-[SCLAlertViewShowBuilder show]', symObjAddr: 0xAF24, symBinAddr: 0x20830, symSize: 0x10 }
  - { offset: 0x98B2C, size: 0x8, addend: 0x0, symName: '-[SCLAlertViewShowBuilder setShow:]', symObjAddr: 0xAF34, symBinAddr: 0x20840, symSize: 0xC }
  - { offset: 0x98B64, size: 0x8, addend: 0x0, symName: '-[SCLAlertViewShowBuilder setShow:]', symObjAddr: 0xAF34, symBinAddr: 0x20840, symSize: 0xC }
  - { offset: 0x98B6C, size: 0x8, addend: 0x0, symName: '-[SCLAlertViewShowBuilder .cxx_destruct]', symObjAddr: 0xAF40, symBinAddr: 0x2084C, symSize: 0x168 }
  - { offset: 0x98BAC, size: 0x8, addend: 0x0, symName: '-[SCLAlertViewShowBuilder .cxx_destruct]', symObjAddr: 0xAF40, symBinAddr: 0x2084C, symSize: 0x168 }
  - { offset: 0x9CD9B, size: 0x8, addend: 0x0, symName: '-[SCLAlertViewResponder init:]', symObjAddr: 0x0, symBinAddr: 0x209B4, symSize: 0x24 }
  - { offset: 0xA1361, size: 0x8, addend: 0x0, symName: '-[SCLAlertViewResponder init:]', symObjAddr: 0x0, symBinAddr: 0x209B4, symSize: 0x24 }
  - { offset: 0xA1369, size: 0x8, addend: 0x0, symName: '-[SCLAlertViewResponder setTitletitle:]', symObjAddr: 0x24, symBinAddr: 0x209D8, symSize: 0x70 }
  - { offset: 0xA13AF, size: 0x8, addend: 0x0, symName: '-[SCLAlertViewResponder setTitletitle:]', symObjAddr: 0x24, symBinAddr: 0x209D8, symSize: 0x70 }
  - { offset: 0xA13B7, size: 0x8, addend: 0x0, symName: '-[SCLAlertViewResponder setSubTitle:]', symObjAddr: 0x94, symBinAddr: 0x20A48, symSize: 0x70 }
  - { offset: 0xA13F9, size: 0x8, addend: 0x0, symName: '-[SCLAlertViewResponder setSubTitle:]', symObjAddr: 0x94, symBinAddr: 0x20A48, symSize: 0x70 }
  - { offset: 0xA1401, size: 0x8, addend: 0x0, symName: '-[SCLAlertViewResponder close]', symObjAddr: 0x104, symBinAddr: 0x20AB8, symSize: 0x30 }
  - { offset: 0xA1443, size: 0x8, addend: 0x0, symName: '-[SCLAlertViewResponder close]', symObjAddr: 0x104, symBinAddr: 0x20AB8, symSize: 0x30 }
  - { offset: 0xA144B, size: 0x8, addend: 0x0, symName: '-[SCLAlertViewResponder alertview]', symObjAddr: 0x134, symBinAddr: 0x20AE8, symSize: 0xC }
  - { offset: 0xA147D, size: 0x8, addend: 0x0, symName: '-[SCLAlertViewResponder alertview]', symObjAddr: 0x134, symBinAddr: 0x20AE8, symSize: 0xC }
  - { offset: 0xA1485, size: 0x8, addend: 0x0, symName: '-[SCLAlertViewResponder setAlertview:]', symObjAddr: 0x140, symBinAddr: 0x20AF4, symSize: 0x8 }
  - { offset: 0xA14BC, size: 0x8, addend: 0x0, symName: '-[SCLAlertViewResponder setAlertview:]', symObjAddr: 0x140, symBinAddr: 0x20AF4, symSize: 0x8 }
  - { offset: 0xA14C4, size: 0x8, addend: 0x0, symName: '-[SCLAlertViewResponder .cxx_destruct]', symObjAddr: 0x148, symBinAddr: 0x20AFC, symSize: 0xC }
  - { offset: 0xA1503, size: 0x8, addend: 0x0, symName: '-[SCLAlertViewResponder .cxx_destruct]', symObjAddr: 0x148, symBinAddr: 0x20AFC, symSize: 0xC }
  - { offset: 0xA157E, size: 0x8, addend: 0x0, symName: '+[SCLAlertViewStyleKit initialize]', symObjAddr: 0x0, symBinAddr: 0x20B08, symSize: 0x4 }
  - { offset: 0xA159C, size: 0x8, addend: 0x0, symName: _imageOfCheckmark, symObjAddr: 0x68B0, symBinAddr: 0x37E830, symSize: 0x0 }
  - { offset: 0xA24B3, size: 0x8, addend: 0x0, symName: _imageOfCross, symObjAddr: 0x68B8, symBinAddr: 0x37E838, symSize: 0x0 }
  - { offset: 0xA24C9, size: 0x8, addend: 0x0, symName: _imageOfNotice, symObjAddr: 0x68C0, symBinAddr: 0x37E840, symSize: 0x0 }
  - { offset: 0xA24DF, size: 0x8, addend: 0x0, symName: _imageOfWarning, symObjAddr: 0x68C8, symBinAddr: 0x37E848, symSize: 0x0 }
  - { offset: 0xA24F5, size: 0x8, addend: 0x0, symName: _imageOfInfo, symObjAddr: 0x68D0, symBinAddr: 0x37E850, symSize: 0x0 }
  - { offset: 0xA250B, size: 0x8, addend: 0x0, symName: _imageOfEdit, symObjAddr: 0x68D8, symBinAddr: 0x37E858, symSize: 0x0 }
  - { offset: 0xA2521, size: 0x8, addend: 0x0, symName: _imageOfQuestion, symObjAddr: 0x68E0, symBinAddr: 0x37E860, symSize: 0x0 }
  - { offset: 0xA2579, size: 0x8, addend: 0x0, symName: '+[SCLAlertViewStyleKit initialize]', symObjAddr: 0x0, symBinAddr: 0x20B08, symSize: 0x4 }
  - { offset: 0xA2581, size: 0x8, addend: 0x0, symName: '+[SCLAlertViewStyleKit drawCheckmark]', symObjAddr: 0x4, symBinAddr: 0x20B0C, symSize: 0x238 }
  - { offset: 0xA25AF, size: 0x8, addend: 0x0, symName: '+[SCLAlertViewStyleKit drawCheckmark]', symObjAddr: 0x4, symBinAddr: 0x20B0C, symSize: 0x238 }
  - { offset: 0xA25B7, size: 0x8, addend: 0x0, symName: '+[SCLAlertViewStyleKit drawCross]', symObjAddr: 0x23C, symBinAddr: 0x20D44, symSize: 0xCC }
  - { offset: 0xA25F5, size: 0x8, addend: 0x0, symName: '+[SCLAlertViewStyleKit drawCross]', symObjAddr: 0x23C, symBinAddr: 0x20D44, symSize: 0xCC }
  - { offset: 0xA25FD, size: 0x8, addend: 0x0, symName: '+[SCLAlertViewStyleKit drawNotice]', symObjAddr: 0x308, symBinAddr: 0x20E10, symSize: 0x4EC }
  - { offset: 0xA263B, size: 0x8, addend: 0x0, symName: '+[SCLAlertViewStyleKit drawNotice]', symObjAddr: 0x308, symBinAddr: 0x20E10, symSize: 0x4EC }
  - { offset: 0xA2643, size: 0x8, addend: 0x0, symName: '+[SCLAlertViewStyleKit drawWarning]', symObjAddr: 0x7F4, symBinAddr: 0x212FC, symSize: 0x458 }
  - { offset: 0xA2681, size: 0x8, addend: 0x0, symName: '+[SCLAlertViewStyleKit drawWarning]', symObjAddr: 0x7F4, symBinAddr: 0x212FC, symSize: 0x458 }
  - { offset: 0xA2689, size: 0x8, addend: 0x0, symName: '+[SCLAlertViewStyleKit drawInfo]', symObjAddr: 0xC4C, symBinAddr: 0x21754, symSize: 0x2AC }
  - { offset: 0xA26E7, size: 0x8, addend: 0x0, symName: '+[SCLAlertViewStyleKit drawInfo]', symObjAddr: 0xC4C, symBinAddr: 0x21754, symSize: 0x2AC }
  - { offset: 0xA26EF, size: 0x8, addend: 0x0, symName: '+[SCLAlertViewStyleKit drawEdit]', symObjAddr: 0xEF8, symBinAddr: 0x21A00, symSize: 0x394 }
  - { offset: 0xA273D, size: 0x8, addend: 0x0, symName: '+[SCLAlertViewStyleKit drawEdit]', symObjAddr: 0xEF8, symBinAddr: 0x21A00, symSize: 0x394 }
  - { offset: 0xA2745, size: 0x8, addend: 0x0, symName: '+[SCLAlertViewStyleKit drawQuestion]', symObjAddr: 0x128C, symBinAddr: 0x21D94, symSize: 0x318 }
  - { offset: 0xA2793, size: 0x8, addend: 0x0, symName: '+[SCLAlertViewStyleKit drawQuestion]', symObjAddr: 0x128C, symBinAddr: 0x21D94, symSize: 0x318 }
  - { offset: 0xA279B, size: 0x8, addend: 0x0, symName: '+[SCLAlertViewStyleKit imageOfCheckmark]', symObjAddr: 0x15A4, symBinAddr: 0x220AC, symSize: 0x6C }
  - { offset: 0xA27E9, size: 0x8, addend: 0x0, symName: '+[SCLAlertViewStyleKit imageOfCheckmark]', symObjAddr: 0x15A4, symBinAddr: 0x220AC, symSize: 0x6C }
  - { offset: 0xA27F1, size: 0x8, addend: 0x0, symName: '+[SCLAlertViewStyleKit imageOfCross]', symObjAddr: 0x1610, symBinAddr: 0x22118, symSize: 0x6C }
  - { offset: 0xA2824, size: 0x8, addend: 0x0, symName: '+[SCLAlertViewStyleKit imageOfCross]', symObjAddr: 0x1610, symBinAddr: 0x22118, symSize: 0x6C }
  - { offset: 0xA282C, size: 0x8, addend: 0x0, symName: '+[SCLAlertViewStyleKit imageOfNotice]', symObjAddr: 0x167C, symBinAddr: 0x22184, symSize: 0x6C }
  - { offset: 0xA285F, size: 0x8, addend: 0x0, symName: '+[SCLAlertViewStyleKit imageOfNotice]', symObjAddr: 0x167C, symBinAddr: 0x22184, symSize: 0x6C }
  - { offset: 0xA2867, size: 0x8, addend: 0x0, symName: '+[SCLAlertViewStyleKit imageOfWarning]', symObjAddr: 0x16E8, symBinAddr: 0x221F0, symSize: 0x6C }
  - { offset: 0xA289A, size: 0x8, addend: 0x0, symName: '+[SCLAlertViewStyleKit imageOfWarning]', symObjAddr: 0x16E8, symBinAddr: 0x221F0, symSize: 0x6C }
  - { offset: 0xA28A2, size: 0x8, addend: 0x0, symName: '+[SCLAlertViewStyleKit imageOfInfo]', symObjAddr: 0x1754, symBinAddr: 0x2225C, symSize: 0x6C }
  - { offset: 0xA28D5, size: 0x8, addend: 0x0, symName: '+[SCLAlertViewStyleKit imageOfInfo]', symObjAddr: 0x1754, symBinAddr: 0x2225C, symSize: 0x6C }
  - { offset: 0xA28DD, size: 0x8, addend: 0x0, symName: '+[SCLAlertViewStyleKit imageOfEdit]', symObjAddr: 0x17C0, symBinAddr: 0x222C8, symSize: 0x6C }
  - { offset: 0xA2910, size: 0x8, addend: 0x0, symName: '+[SCLAlertViewStyleKit imageOfEdit]', symObjAddr: 0x17C0, symBinAddr: 0x222C8, symSize: 0x6C }
  - { offset: 0xA2918, size: 0x8, addend: 0x0, symName: '+[SCLAlertViewStyleKit imageOfQuestion]', symObjAddr: 0x182C, symBinAddr: 0x22334, symSize: 0x6C }
  - { offset: 0xA294B, size: 0x8, addend: 0x0, symName: '+[SCLAlertViewStyleKit imageOfQuestion]', symObjAddr: 0x182C, symBinAddr: 0x22334, symSize: 0x6C }
  - { offset: 0xA2D42, size: 0x8, addend: 0x0, symName: '-[SCLButton init]', symObjAddr: 0x0, symBinAddr: 0x223A0, symSize: 0x58 }
  - { offset: 0xA6455, size: 0x8, addend: 0x0, symName: '-[SCLButton init]', symObjAddr: 0x0, symBinAddr: 0x223A0, symSize: 0x58 }
  - { offset: 0xA645D, size: 0x8, addend: 0x0, symName: '-[SCLButton initWithWindowWidth:]', symObjAddr: 0x58, symBinAddr: 0x223F8, symSize: 0x60 }
  - { offset: 0xA6493, size: 0x8, addend: 0x0, symName: '-[SCLButton initWithWindowWidth:]', symObjAddr: 0x58, symBinAddr: 0x223F8, symSize: 0x60 }
  - { offset: 0xA649B, size: 0x8, addend: 0x0, symName: '-[SCLButton initWithCoder:]', symObjAddr: 0xB8, symBinAddr: 0x22458, symSize: 0x58 }
  - { offset: 0xA64E1, size: 0x8, addend: 0x0, symName: '-[SCLButton initWithCoder:]', symObjAddr: 0xB8, symBinAddr: 0x22458, symSize: 0x58 }
  - { offset: 0xA64E9, size: 0x8, addend: 0x0, symName: '-[SCLButton initWithFrame:]', symObjAddr: 0x110, symBinAddr: 0x224B0, symSize: 0x58 }
  - { offset: 0xA652F, size: 0x8, addend: 0x0, symName: '-[SCLButton initWithFrame:]', symObjAddr: 0x110, symBinAddr: 0x224B0, symSize: 0x58 }
  - { offset: 0xA6537, size: 0x8, addend: 0x0, symName: '-[SCLButton setupWithWindowWidth:]', symObjAddr: 0x168, symBinAddr: 0x22508, symSize: 0xA0 }
  - { offset: 0xA6579, size: 0x8, addend: 0x0, symName: '-[SCLButton setupWithWindowWidth:]', symObjAddr: 0x168, symBinAddr: 0x22508, symSize: 0xA0 }
  - { offset: 0xA6581, size: 0x8, addend: 0x0, symName: '-[SCLButton adjustWidthWithWindowWidth:numberOfButtons:]', symObjAddr: 0x208, symBinAddr: 0x225A8, symSize: 0x38 }
  - { offset: 0xA65C3, size: 0x8, addend: 0x0, symName: '-[SCLButton adjustWidthWithWindowWidth:numberOfButtons:]', symObjAddr: 0x208, symBinAddr: 0x225A8, symSize: 0x38 }
  - { offset: 0xA65CB, size: 0x8, addend: 0x0, symName: '-[SCLButton setTitle:forState:]', symObjAddr: 0x240, symBinAddr: 0x225E0, symSize: 0x104 }
  - { offset: 0xA6639, size: 0x8, addend: 0x0, symName: '-[SCLButton setTitle:forState:]', symObjAddr: 0x240, symBinAddr: 0x225E0, symSize: 0x104 }
  - { offset: 0xA6641, size: 0x8, addend: 0x0, symName: '-[SCLButton setHighlighted:]', symObjAddr: 0x344, symBinAddr: 0x226E4, symSize: 0x8C }
  - { offset: 0xA66D5, size: 0x8, addend: 0x0, symName: '-[SCLButton setHighlighted:]', symObjAddr: 0x344, symBinAddr: 0x226E4, symSize: 0x8C }
  - { offset: 0xA66DD, size: 0x8, addend: 0x0, symName: '-[SCLButton setDefaultBackgroundColor:]', symObjAddr: 0x3D0, symBinAddr: 0x22770, symSize: 0x50 }
  - { offset: 0xA671B, size: 0x8, addend: 0x0, symName: '-[SCLButton setDefaultBackgroundColor:]', symObjAddr: 0x3D0, symBinAddr: 0x22770, symSize: 0x50 }
  - { offset: 0xA6723, size: 0x8, addend: 0x0, symName: '-[SCLButton setTimer:]', symObjAddr: 0x420, symBinAddr: 0x227C0, symSize: 0xB0 }
  - { offset: 0xA6765, size: 0x8, addend: 0x0, symName: '-[SCLButton setTimer:]', symObjAddr: 0x420, symBinAddr: 0x227C0, symSize: 0xB0 }
  - { offset: 0xA676D, size: 0x8, addend: 0x0, symName: '-[SCLButton parseConfig:]', symObjAddr: 0x4D0, symBinAddr: 0x22870, symSize: 0x2E4 }
  - { offset: 0xA67AF, size: 0x8, addend: 0x0, symName: '-[SCLButton parseConfig:]', symObjAddr: 0x4D0, symBinAddr: 0x22870, symSize: 0x2E4 }
  - { offset: 0xA67B7, size: 0x8, addend: 0x0, symName: '-[SCLButton darkerColorForColor:]', symObjAddr: 0x7B4, symBinAddr: 0x22B54, symSize: 0x8C }
  - { offset: 0xA67F9, size: 0x8, addend: 0x0, symName: '-[SCLButton darkerColorForColor:]', symObjAddr: 0x7B4, symBinAddr: 0x22B54, symSize: 0x8C }
  - { offset: 0xA6801, size: 0x8, addend: 0x0, symName: '-[SCLButton lighterColorForColor:]', symObjAddr: 0x840, symBinAddr: 0x22BE0, symSize: 0x80 }
  - { offset: 0xA6915, size: 0x8, addend: 0x0, symName: '-[SCLButton lighterColorForColor:]', symObjAddr: 0x840, symBinAddr: 0x22BE0, symSize: 0x80 }
  - { offset: 0xA691D, size: 0x8, addend: 0x0, symName: '-[SCLButton actionType]', symObjAddr: 0x8C0, symBinAddr: 0x22C60, symSize: 0x10 }
  - { offset: 0xA6A31, size: 0x8, addend: 0x0, symName: '-[SCLButton actionType]', symObjAddr: 0x8C0, symBinAddr: 0x22C60, symSize: 0x10 }
  - { offset: 0xA6A39, size: 0x8, addend: 0x0, symName: '-[SCLButton setActionType:]', symObjAddr: 0x8D0, symBinAddr: 0x22C70, symSize: 0x10 }
  - { offset: 0xA6A70, size: 0x8, addend: 0x0, symName: '-[SCLButton setActionType:]', symObjAddr: 0x8D0, symBinAddr: 0x22C70, symSize: 0x10 }
  - { offset: 0xA6A78, size: 0x8, addend: 0x0, symName: '-[SCLButton actionBlock]', symObjAddr: 0x8E0, symBinAddr: 0x22C80, symSize: 0x10 }
  - { offset: 0xA6AB5, size: 0x8, addend: 0x0, symName: '-[SCLButton actionBlock]', symObjAddr: 0x8E0, symBinAddr: 0x22C80, symSize: 0x10 }
  - { offset: 0xA6ABD, size: 0x8, addend: 0x0, symName: '-[SCLButton setActionBlock:]', symObjAddr: 0x8F0, symBinAddr: 0x22C90, symSize: 0xC }
  - { offset: 0xA6AF4, size: 0x8, addend: 0x0, symName: '-[SCLButton setActionBlock:]', symObjAddr: 0x8F0, symBinAddr: 0x22C90, symSize: 0xC }
  - { offset: 0xA6AFC, size: 0x8, addend: 0x0, symName: '-[SCLButton validationBlock]', symObjAddr: 0x8FC, symBinAddr: 0x22C9C, symSize: 0x10 }
  - { offset: 0xA6B3B, size: 0x8, addend: 0x0, symName: '-[SCLButton validationBlock]', symObjAddr: 0x8FC, symBinAddr: 0x22C9C, symSize: 0x10 }
  - { offset: 0xA6B43, size: 0x8, addend: 0x0, symName: '-[SCLButton setValidationBlock:]', symObjAddr: 0x90C, symBinAddr: 0x22CAC, symSize: 0xC }
  - { offset: 0xA6B7A, size: 0x8, addend: 0x0, symName: '-[SCLButton setValidationBlock:]', symObjAddr: 0x90C, symBinAddr: 0x22CAC, symSize: 0xC }
  - { offset: 0xA6B82, size: 0x8, addend: 0x0, symName: '-[SCLButton completeButtonFormatBlock]', symObjAddr: 0x918, symBinAddr: 0x22CB8, symSize: 0x10 }
  - { offset: 0xA6BC1, size: 0x8, addend: 0x0, symName: '-[SCLButton completeButtonFormatBlock]', symObjAddr: 0x918, symBinAddr: 0x22CB8, symSize: 0x10 }
  - { offset: 0xA6BC9, size: 0x8, addend: 0x0, symName: '-[SCLButton setCompleteButtonFormatBlock:]', symObjAddr: 0x928, symBinAddr: 0x22CC8, symSize: 0xC }
  - { offset: 0xA6C00, size: 0x8, addend: 0x0, symName: '-[SCLButton setCompleteButtonFormatBlock:]', symObjAddr: 0x928, symBinAddr: 0x22CC8, symSize: 0xC }
  - { offset: 0xA6C08, size: 0x8, addend: 0x0, symName: '-[SCLButton buttonFormatBlock]', symObjAddr: 0x934, symBinAddr: 0x22CD4, symSize: 0x10 }
  - { offset: 0xA6C47, size: 0x8, addend: 0x0, symName: '-[SCLButton buttonFormatBlock]', symObjAddr: 0x934, symBinAddr: 0x22CD4, symSize: 0x10 }
  - { offset: 0xA6C4F, size: 0x8, addend: 0x0, symName: '-[SCLButton setButtonFormatBlock:]', symObjAddr: 0x944, symBinAddr: 0x22CE4, symSize: 0xC }
  - { offset: 0xA6C86, size: 0x8, addend: 0x0, symName: '-[SCLButton setButtonFormatBlock:]', symObjAddr: 0x944, symBinAddr: 0x22CE4, symSize: 0xC }
  - { offset: 0xA6C8E, size: 0x8, addend: 0x0, symName: '-[SCLButton defaultBackgroundColor]', symObjAddr: 0x950, symBinAddr: 0x22CF0, symSize: 0x10 }
  - { offset: 0xA6CCD, size: 0x8, addend: 0x0, symName: '-[SCLButton defaultBackgroundColor]', symObjAddr: 0x950, symBinAddr: 0x22CF0, symSize: 0x10 }
  - { offset: 0xA6CD5, size: 0x8, addend: 0x0, symName: '-[SCLButton target]', symObjAddr: 0x960, symBinAddr: 0x22D00, symSize: 0x10 }
  - { offset: 0xA6D0C, size: 0x8, addend: 0x0, symName: '-[SCLButton target]', symObjAddr: 0x960, symBinAddr: 0x22D00, symSize: 0x10 }
  - { offset: 0xA6D14, size: 0x8, addend: 0x0, symName: '-[SCLButton setTarget:]', symObjAddr: 0x970, symBinAddr: 0x22D10, symSize: 0xC }
  - { offset: 0xA6D4B, size: 0x8, addend: 0x0, symName: '-[SCLButton setTarget:]', symObjAddr: 0x970, symBinAddr: 0x22D10, symSize: 0xC }
  - { offset: 0xA6D53, size: 0x8, addend: 0x0, symName: '-[SCLButton selector]', symObjAddr: 0x97C, symBinAddr: 0x22D1C, symSize: 0x10 }
  - { offset: 0xA6D92, size: 0x8, addend: 0x0, symName: '-[SCLButton selector]', symObjAddr: 0x97C, symBinAddr: 0x22D1C, symSize: 0x10 }
  - { offset: 0xA6D9A, size: 0x8, addend: 0x0, symName: '-[SCLButton setSelector:]', symObjAddr: 0x98C, symBinAddr: 0x22D2C, symSize: 0x10 }
  - { offset: 0xA6DD1, size: 0x8, addend: 0x0, symName: '-[SCLButton setSelector:]', symObjAddr: 0x98C, symBinAddr: 0x22D2C, symSize: 0x10 }
  - { offset: 0xA6DD9, size: 0x8, addend: 0x0, symName: '-[SCLButton timer]', symObjAddr: 0x99C, symBinAddr: 0x22D3C, symSize: 0x10 }
  - { offset: 0xA6E16, size: 0x8, addend: 0x0, symName: '-[SCLButton timer]', symObjAddr: 0x99C, symBinAddr: 0x22D3C, symSize: 0x10 }
  - { offset: 0xA6E1E, size: 0x8, addend: 0x0, symName: '-[SCLButton .cxx_destruct]', symObjAddr: 0x9AC, symBinAddr: 0x22D4C, symSize: 0xA4 }
  - { offset: 0xA6E55, size: 0x8, addend: 0x0, symName: '-[SCLButton .cxx_destruct]', symObjAddr: 0x9AC, symBinAddr: 0x22D4C, symSize: 0xA4 }
  - { offset: 0xA6EDD, size: 0x8, addend: 0x0, symName: '-[SCLSwitchView init]', symObjAddr: 0x0, symBinAddr: 0x22DF0, symSize: 0x50 }
  - { offset: 0xA92A6, size: 0x8, addend: 0x0, symName: '-[SCLSwitchView init]', symObjAddr: 0x0, symBinAddr: 0x22DF0, symSize: 0x50 }
  - { offset: 0xA92AE, size: 0x8, addend: 0x0, symName: '-[SCLSwitchView initWithCoder:]', symObjAddr: 0x50, symBinAddr: 0x22E40, symSize: 0x50 }
  - { offset: 0xA92E4, size: 0x8, addend: 0x0, symName: '-[SCLSwitchView initWithCoder:]', symObjAddr: 0x50, symBinAddr: 0x22E40, symSize: 0x50 }
  - { offset: 0xA92EC, size: 0x8, addend: 0x0, symName: '-[SCLSwitchView initWithFrame:]', symObjAddr: 0xA0, symBinAddr: 0x22E90, symSize: 0x50 }
  - { offset: 0xA9332, size: 0x8, addend: 0x0, symName: '-[SCLSwitchView initWithFrame:]', symObjAddr: 0xA0, symBinAddr: 0x22E90, symSize: 0x50 }
  - { offset: 0xA933A, size: 0x8, addend: 0x0, symName: '-[SCLSwitchView setup]', symObjAddr: 0xF0, symBinAddr: 0x22EE0, symSize: 0x2F4 }
  - { offset: 0xA937C, size: 0x8, addend: 0x0, symName: '-[SCLSwitchView setup]', symObjAddr: 0xF0, symBinAddr: 0x22EE0, symSize: 0x2F4 }
  - { offset: 0xA9384, size: 0x8, addend: 0x0, symName: '-[SCLSwitchView tintColor]', symObjAddr: 0x3E4, symBinAddr: 0x231D4, symSize: 0x44 }
  - { offset: 0xA9406, size: 0x8, addend: 0x0, symName: '-[SCLSwitchView tintColor]', symObjAddr: 0x3E4, symBinAddr: 0x231D4, symSize: 0x44 }
  - { offset: 0xA940E, size: 0x8, addend: 0x0, symName: '-[SCLSwitchView labelColor]', symObjAddr: 0x428, symBinAddr: 0x23218, symSize: 0x44 }
  - { offset: 0xA9444, size: 0x8, addend: 0x0, symName: '-[SCLSwitchView labelColor]', symObjAddr: 0x428, symBinAddr: 0x23218, symSize: 0x44 }
  - { offset: 0xA944C, size: 0x8, addend: 0x0, symName: '-[SCLSwitchView labelFont]', symObjAddr: 0x46C, symBinAddr: 0x2325C, symSize: 0x44 }
  - { offset: 0xA9482, size: 0x8, addend: 0x0, symName: '-[SCLSwitchView labelFont]', symObjAddr: 0x46C, symBinAddr: 0x2325C, symSize: 0x44 }
  - { offset: 0xA948A, size: 0x8, addend: 0x0, symName: '-[SCLSwitchView labelText]', symObjAddr: 0x4B0, symBinAddr: 0x232A0, symSize: 0x44 }
  - { offset: 0xA94C0, size: 0x8, addend: 0x0, symName: '-[SCLSwitchView labelText]', symObjAddr: 0x4B0, symBinAddr: 0x232A0, symSize: 0x44 }
  - { offset: 0xA94C8, size: 0x8, addend: 0x0, symName: '-[SCLSwitchView isSelected]', symObjAddr: 0x4F4, symBinAddr: 0x232E4, symSize: 0x3C }
  - { offset: 0xA94FE, size: 0x8, addend: 0x0, symName: '-[SCLSwitchView isSelected]', symObjAddr: 0x4F4, symBinAddr: 0x232E4, symSize: 0x3C }
  - { offset: 0xA9506, size: 0x8, addend: 0x0, symName: '-[SCLSwitchView setTintColor:]', symObjAddr: 0x530, symBinAddr: 0x23320, symSize: 0x50 }
  - { offset: 0xA953C, size: 0x8, addend: 0x0, symName: '-[SCLSwitchView setTintColor:]', symObjAddr: 0x530, symBinAddr: 0x23320, symSize: 0x50 }
  - { offset: 0xA9544, size: 0x8, addend: 0x0, symName: '-[SCLSwitchView setLabelColor:]', symObjAddr: 0x580, symBinAddr: 0x23370, symSize: 0x50 }
  - { offset: 0xA9586, size: 0x8, addend: 0x0, symName: '-[SCLSwitchView setLabelColor:]', symObjAddr: 0x580, symBinAddr: 0x23370, symSize: 0x50 }
  - { offset: 0xA958E, size: 0x8, addend: 0x0, symName: '-[SCLSwitchView setLabelFont:]', symObjAddr: 0x5D0, symBinAddr: 0x233C0, symSize: 0x50 }
  - { offset: 0xA95D0, size: 0x8, addend: 0x0, symName: '-[SCLSwitchView setLabelFont:]', symObjAddr: 0x5D0, symBinAddr: 0x233C0, symSize: 0x50 }
  - { offset: 0xA95D8, size: 0x8, addend: 0x0, symName: '-[SCLSwitchView setLabelText:]', symObjAddr: 0x620, symBinAddr: 0x23410, symSize: 0x50 }
  - { offset: 0xA961A, size: 0x8, addend: 0x0, symName: '-[SCLSwitchView setLabelText:]', symObjAddr: 0x620, symBinAddr: 0x23410, symSize: 0x50 }
  - { offset: 0xA9622, size: 0x8, addend: 0x0, symName: '-[SCLSwitchView setSelected:]', symObjAddr: 0x670, symBinAddr: 0x23460, symSize: 0x38 }
  - { offset: 0xA9664, size: 0x8, addend: 0x0, symName: '-[SCLSwitchView setSelected:]', symObjAddr: 0x670, symBinAddr: 0x23460, symSize: 0x38 }
  - { offset: 0xA966C, size: 0x8, addend: 0x0, symName: '-[SCLSwitchView switchKnob]', symObjAddr: 0x6A8, symBinAddr: 0x23498, symSize: 0x10 }
  - { offset: 0xA96AA, size: 0x8, addend: 0x0, symName: '-[SCLSwitchView switchKnob]', symObjAddr: 0x6A8, symBinAddr: 0x23498, symSize: 0x10 }
  - { offset: 0xA96B2, size: 0x8, addend: 0x0, symName: '-[SCLSwitchView setSwitchKnob:]', symObjAddr: 0x6B8, symBinAddr: 0x234A8, symSize: 0x14 }
  - { offset: 0xA96E9, size: 0x8, addend: 0x0, symName: '-[SCLSwitchView setSwitchKnob:]', symObjAddr: 0x6B8, symBinAddr: 0x234A8, symSize: 0x14 }
  - { offset: 0xA96F1, size: 0x8, addend: 0x0, symName: '-[SCLSwitchView switchLabel]', symObjAddr: 0x6CC, symBinAddr: 0x234BC, symSize: 0x10 }
  - { offset: 0xA9732, size: 0x8, addend: 0x0, symName: '-[SCLSwitchView switchLabel]', symObjAddr: 0x6CC, symBinAddr: 0x234BC, symSize: 0x10 }
  - { offset: 0xA973A, size: 0x8, addend: 0x0, symName: '-[SCLSwitchView setSwitchLabel:]', symObjAddr: 0x6DC, symBinAddr: 0x234CC, symSize: 0x14 }
  - { offset: 0xA9771, size: 0x8, addend: 0x0, symName: '-[SCLSwitchView setSwitchLabel:]', symObjAddr: 0x6DC, symBinAddr: 0x234CC, symSize: 0x14 }
  - { offset: 0xA9779, size: 0x8, addend: 0x0, symName: '-[SCLSwitchView .cxx_destruct]', symObjAddr: 0x6F0, symBinAddr: 0x234E0, symSize: 0x40 }
  - { offset: 0xA97BA, size: 0x8, addend: 0x0, symName: '-[SCLSwitchView .cxx_destruct]', symObjAddr: 0x6F0, symBinAddr: 0x234E0, symSize: 0x40 }
  - { offset: 0xA9858, size: 0x8, addend: 0x0, symName: '-[SCLTextView init]', symObjAddr: 0x0, symBinAddr: 0x23520, symSize: 0x50 }
  - { offset: 0xABA92, size: 0x8, addend: 0x0, symName: '-[SCLTextView init]', symObjAddr: 0x0, symBinAddr: 0x23520, symSize: 0x50 }
  - { offset: 0xABA9A, size: 0x8, addend: 0x0, symName: '-[SCLTextView initWithCoder:]', symObjAddr: 0x50, symBinAddr: 0x23570, symSize: 0x50 }
  - { offset: 0xABAD0, size: 0x8, addend: 0x0, symName: '-[SCLTextView initWithCoder:]', symObjAddr: 0x50, symBinAddr: 0x23570, symSize: 0x50 }
  - { offset: 0xABAD8, size: 0x8, addend: 0x0, symName: '-[SCLTextView initWithFrame:]', symObjAddr: 0xA0, symBinAddr: 0x235C0, symSize: 0x50 }
  - { offset: 0xABB1E, size: 0x8, addend: 0x0, symName: '-[SCLTextView initWithFrame:]', symObjAddr: 0xA0, symBinAddr: 0x235C0, symSize: 0x50 }
  - { offset: 0xABB26, size: 0x8, addend: 0x0, symName: '-[SCLTextView setup]', symObjAddr: 0xF0, symBinAddr: 0x23610, symSize: 0xA4 }
  - { offset: 0xABB68, size: 0x8, addend: 0x0, symName: '-[SCLTextView setup]', symObjAddr: 0xF0, symBinAddr: 0x23610, symSize: 0xA4 }
  - { offset: 0xABC05, size: 0x8, addend: 0x0, symName: '-[SCLTimerDisplay initWithFrame:]', symObjAddr: 0x0, symBinAddr: 0x236B4, symSize: 0x80 }
  - { offset: 0xAD086, size: 0x8, addend: 0x0, symName: '-[SCLTimerDisplay initWithFrame:]', symObjAddr: 0x0, symBinAddr: 0x236B4, symSize: 0x80 }
  - { offset: 0xAD08E, size: 0x8, addend: 0x0, symName: '-[SCLTimerDisplay initWithOrigin:radius:]', symObjAddr: 0x80, symBinAddr: 0x23734, symSize: 0x8 }
  - { offset: 0xAD0D0, size: 0x8, addend: 0x0, symName: '-[SCLTimerDisplay initWithOrigin:radius:]', symObjAddr: 0x80, symBinAddr: 0x23734, symSize: 0x8 }
  - { offset: 0xAD0D8, size: 0x8, addend: 0x0, symName: '-[SCLTimerDisplay initWithOrigin:radius:lineWidth:]', symObjAddr: 0x88, symBinAddr: 0x2373C, symSize: 0x1D4 }
  - { offset: 0xAD126, size: 0x8, addend: 0x0, symName: '-[SCLTimerDisplay initWithOrigin:radius:lineWidth:]', symObjAddr: 0x88, symBinAddr: 0x2373C, symSize: 0x1D4 }
  - { offset: 0xAD12E, size: 0x8, addend: 0x0, symName: '-[SCLTimerDisplay updateFrame:]', symObjAddr: 0x25C, symBinAddr: 0x23910, symSize: 0x9C }
  - { offset: 0xAD194, size: 0x8, addend: 0x0, symName: '-[SCLTimerDisplay updateFrame:]', symObjAddr: 0x25C, symBinAddr: 0x23910, symSize: 0x9C }
  - { offset: 0xAD19C, size: 0x8, addend: 0x0, symName: '-[SCLTimerDisplay drawRect:]', symObjAddr: 0x2F8, symBinAddr: 0x239AC, symSize: 0x124 }
  - { offset: 0xAD20E, size: 0x8, addend: 0x0, symName: '-[SCLTimerDisplay drawRect:]', symObjAddr: 0x2F8, symBinAddr: 0x239AC, symSize: 0x124 }
  - { offset: 0xAD216, size: 0x8, addend: 0x0, symName: '-[SCLTimerDisplay startTimerWithTimeLimit:completed:]', symObjAddr: 0x41C, symBinAddr: 0x23AD0, symSize: 0xF0 }
  - { offset: 0xAD264, size: 0x8, addend: 0x0, symName: '-[SCLTimerDisplay startTimerWithTimeLimit:completed:]', symObjAddr: 0x41C, symBinAddr: 0x23AD0, symSize: 0xF0 }
  - { offset: 0xAD26C, size: 0x8, addend: 0x0, symName: '-[SCLTimerDisplay cancelTimer]', symObjAddr: 0x50C, symBinAddr: 0x23BC0, symSize: 0x10 }
  - { offset: 0xAD2BE, size: 0x8, addend: 0x0, symName: '-[SCLTimerDisplay cancelTimer]', symObjAddr: 0x50C, symBinAddr: 0x23BC0, symSize: 0x10 }
  - { offset: 0xAD2C6, size: 0x8, addend: 0x0, symName: '-[SCLTimerDisplay stopTimer]', symObjAddr: 0x51C, symBinAddr: 0x23BD0, symSize: 0x4C }
  - { offset: 0xAD2F8, size: 0x8, addend: 0x0, symName: '-[SCLTimerDisplay stopTimer]', symObjAddr: 0x51C, symBinAddr: 0x23BD0, symSize: 0x4C }
  - { offset: 0xAD300, size: 0x8, addend: 0x0, symName: '-[SCLTimerDisplay updateTimerButton:]', symObjAddr: 0x568, symBinAddr: 0x23C1C, symSize: 0xFC }
  - { offset: 0xAD332, size: 0x8, addend: 0x0, symName: '-[SCLTimerDisplay updateTimerButton:]', symObjAddr: 0x568, symBinAddr: 0x23C1C, symSize: 0xFC }
  - { offset: 0xAD33A, size: 0x8, addend: 0x0, symName: '-[SCLTimerDisplay currentAngle]', symObjAddr: 0x664, symBinAddr: 0x23D18, symSize: 0x10 }
  - { offset: 0xAD37C, size: 0x8, addend: 0x0, symName: '-[SCLTimerDisplay currentAngle]', symObjAddr: 0x664, symBinAddr: 0x23D18, symSize: 0x10 }
  - { offset: 0xAD384, size: 0x8, addend: 0x0, symName: '-[SCLTimerDisplay setCurrentAngle:]', symObjAddr: 0x674, symBinAddr: 0x23D28, symSize: 0x10 }
  - { offset: 0xAD3B9, size: 0x8, addend: 0x0, symName: '-[SCLTimerDisplay setCurrentAngle:]', symObjAddr: 0x674, symBinAddr: 0x23D28, symSize: 0x10 }
  - { offset: 0xAD3C1, size: 0x8, addend: 0x0, symName: '-[SCLTimerDisplay buttonIndex]', symObjAddr: 0x684, symBinAddr: 0x23D38, symSize: 0x10 }
  - { offset: 0xAD3FF, size: 0x8, addend: 0x0, symName: '-[SCLTimerDisplay buttonIndex]', symObjAddr: 0x684, symBinAddr: 0x23D38, symSize: 0x10 }
  - { offset: 0xAD407, size: 0x8, addend: 0x0, symName: '-[SCLTimerDisplay setButtonIndex:]', symObjAddr: 0x694, symBinAddr: 0x23D48, symSize: 0x10 }
  - { offset: 0xAD43E, size: 0x8, addend: 0x0, symName: '-[SCLTimerDisplay setButtonIndex:]', symObjAddr: 0x694, symBinAddr: 0x23D48, symSize: 0x10 }
  - { offset: 0xAD446, size: 0x8, addend: 0x0, symName: '-[SCLTimerDisplay color]', symObjAddr: 0x6A4, symBinAddr: 0x23D58, symSize: 0x10 }
  - { offset: 0xAD483, size: 0x8, addend: 0x0, symName: '-[SCLTimerDisplay color]', symObjAddr: 0x6A4, symBinAddr: 0x23D58, symSize: 0x10 }
  - { offset: 0xAD48B, size: 0x8, addend: 0x0, symName: '-[SCLTimerDisplay setColor:]', symObjAddr: 0x6B4, symBinAddr: 0x23D68, symSize: 0x14 }
  - { offset: 0xAD4C2, size: 0x8, addend: 0x0, symName: '-[SCLTimerDisplay setColor:]', symObjAddr: 0x6B4, symBinAddr: 0x23D68, symSize: 0x14 }
  - { offset: 0xAD4CA, size: 0x8, addend: 0x0, symName: '-[SCLTimerDisplay reverse]', symObjAddr: 0x6C8, symBinAddr: 0x23D7C, symSize: 0x10 }
  - { offset: 0xAD50B, size: 0x8, addend: 0x0, symName: '-[SCLTimerDisplay reverse]', symObjAddr: 0x6C8, symBinAddr: 0x23D7C, symSize: 0x10 }
  - { offset: 0xAD513, size: 0x8, addend: 0x0, symName: '-[SCLTimerDisplay setReverse:]', symObjAddr: 0x6D8, symBinAddr: 0x23D8C, symSize: 0x10 }
  - { offset: 0xAD54A, size: 0x8, addend: 0x0, symName: '-[SCLTimerDisplay setReverse:]', symObjAddr: 0x6D8, symBinAddr: 0x23D8C, symSize: 0x10 }
  - { offset: 0xAD552, size: 0x8, addend: 0x0, symName: '-[SCLTimerDisplay countLabel]', symObjAddr: 0x6E8, symBinAddr: 0x23D9C, symSize: 0x10 }
  - { offset: 0xAD58D, size: 0x8, addend: 0x0, symName: '-[SCLTimerDisplay countLabel]', symObjAddr: 0x6E8, symBinAddr: 0x23D9C, symSize: 0x10 }
  - { offset: 0xAD595, size: 0x8, addend: 0x0, symName: '-[SCLTimerDisplay setCountLabel:]', symObjAddr: 0x6F8, symBinAddr: 0x23DAC, symSize: 0x14 }
  - { offset: 0xAD5CC, size: 0x8, addend: 0x0, symName: '-[SCLTimerDisplay setCountLabel:]', symObjAddr: 0x6F8, symBinAddr: 0x23DAC, symSize: 0x14 }
  - { offset: 0xAD5D4, size: 0x8, addend: 0x0, symName: '-[SCLTimerDisplay .cxx_destruct]', symObjAddr: 0x70C, symBinAddr: 0x23DC0, symSize: 0x68 }
  - { offset: 0xAD615, size: 0x8, addend: 0x0, symName: '-[SCLTimerDisplay .cxx_destruct]', symObjAddr: 0x70C, symBinAddr: 0x23DC0, symSize: 0x68 }
  - { offset: 0xAD759, size: 0x8, addend: 0x0, symName: '-[UIImage(ImageEffects) applyLightEffect]', symObjAddr: 0x0, symBinAddr: 0x23E28, symSize: 0x74 }
  - { offset: 0xAD76B, size: 0x8, addend: 0x0, symName: '-[UIImage(ImageEffects) applyTintEffectWithColor:]', symObjAddr: 0x164, symBinAddr: 0x23F8C, symSize: 0x110 }
  - { offset: 0xAD773, size: 0x8, addend: 0x0, symName: '-[UIImage(ImageEffects) applyBlurWithRadius:tintColor:saturationDeltaFactor:maskImage:]', symObjAddr: 0x274, symBinAddr: 0x2409C, symSize: 0x710 }
  - { offset: 0xAD870, size: 0x8, addend: 0x0, symName: '-[UIImage(ImageEffects) applyBlurWithRadius:tintColor:saturationDeltaFactor:maskImage:]', symObjAddr: 0x274, symBinAddr: 0x2409C, symSize: 0x710 }
  - { offset: 0xAD878, size: 0x8, addend: 0x0, symName: '+[UIImage(ImageEffects) imageWithColor:]', symObjAddr: 0x984, symBinAddr: 0x247AC, symSize: 0x94 }
  - { offset: 0xAE096, size: 0x8, addend: 0x0, symName: '-[UIImage(ImageEffects) applyLightEffect]', symObjAddr: 0x0, symBinAddr: 0x23E28, symSize: 0x74 }
  - { offset: 0xAE09E, size: 0x8, addend: 0x0, symName: '-[UIImage(ImageEffects) applyExtraLightEffect]', symObjAddr: 0x74, symBinAddr: 0x23E9C, symSize: 0x78 }
  - { offset: 0xAE0E4, size: 0x8, addend: 0x0, symName: '-[UIImage(ImageEffects) applyExtraLightEffect]', symObjAddr: 0x74, symBinAddr: 0x23E9C, symSize: 0x78 }
  - { offset: 0xAE0EC, size: 0x8, addend: 0x0, symName: '-[UIImage(ImageEffects) applyDarkEffect]', symObjAddr: 0xEC, symBinAddr: 0x23F14, symSize: 0x78 }
  - { offset: 0xAE132, size: 0x8, addend: 0x0, symName: '-[UIImage(ImageEffects) applyDarkEffect]', symObjAddr: 0xEC, symBinAddr: 0x23F14, symSize: 0x78 }
  - { offset: 0xAE13A, size: 0x8, addend: 0x0, symName: '-[UIImage(ImageEffects) applyTintEffectWithColor:]', symObjAddr: 0x164, symBinAddr: 0x23F8C, symSize: 0x110 }
  - { offset: 0xAE180, size: 0x8, addend: 0x0, symName: '+[UIImage(ImageEffects) imageWithColor:]', symObjAddr: 0x984, symBinAddr: 0x247AC, symSize: 0x94 }
  - { offset: 0xAE188, size: 0x8, addend: 0x0, symName: '+[UIImage(ImageEffects) convertViewToImage]', symObjAddr: 0xA18, symBinAddr: 0x24840, symSize: 0xB8 }
  - { offset: 0xAE1FF, size: 0x8, addend: 0x0, symName: '+[UIImage(ImageEffects) convertViewToImage]', symObjAddr: 0xA18, symBinAddr: 0x24840, symSize: 0xB8 }
  - { offset: 0xAE207, size: 0x8, addend: 0x0, symName: '+[UIImage(ImageEffects) convertViewToImage:]', symObjAddr: 0xAD0, symBinAddr: 0x248F8, symSize: 0xA8 }
  - { offset: 0xAE27E, size: 0x8, addend: 0x0, symName: '+[UIImage(ImageEffects) convertViewToImage:]', symObjAddr: 0xAD0, symBinAddr: 0x248F8, symSize: 0xA8 }
  - { offset: 0xB061F, size: 0x8, addend: 0x0, symName: __Z6va2rvaP14mach_header_64y, symObjAddr: 0x0, symBinAddr: 0x249A0, symSize: 0x84 }
  - { offset: 0xB06B7, size: 0x8, addend: 0x0, symName: _macho, symObjAddr: 0x1CF0, symBinAddr: 0xF7D38, symSize: 0x0 }
  - { offset: 0xB070C, size: 0x8, addend: 0x0, symName: __Z21StaticInlineHookPatchPcyS_, symObjAddr: 0xA84, symBinAddr: 0x25424, symSize: 0x594 }
  - { offset: 0xB0714, size: 0x8, addend: 0x0, symName: __Z9saveMachoPc, symObjAddr: 0x1018, symBinAddr: 0x259B8, symSize: 0x144 }
  - { offset: 0xB0745, size: 0x8, addend: 0x0, symName: __ZZ21StaticInlineHookPatchPcyS_E22gStaticInlineHookMachO, symObjAddr: 0x158E0, symBinAddr: 0x37E868, symSize: 0x0 }
  - { offset: 0xB4FA0, size: 0x8, addend: 0x0, symName: __Z6va2rvaP14mach_header_64y, symObjAddr: 0x0, symBinAddr: 0x249A0, symSize: 0x84 }
  - { offset: 0xB4FA8, size: 0x8, addend: 0x0, symName: __Z8rva2dataP14mach_header_64y, symObjAddr: 0x84, symBinAddr: 0x24A24, symSize: 0xB8 }
  - { offset: 0xB5061, size: 0x8, addend: 0x0, symName: __Z8rva2dataP14mach_header_64y, symObjAddr: 0x84, symBinAddr: 0x24A24, symSize: 0xB8 }
  - { offset: 0xB5069, size: 0x8, addend: 0x0, symName: __Z15load_macho_dataP8NSString, symObjAddr: 0x13C, symBinAddr: 0x24ADC, symSize: 0x274 }
  - { offset: 0xB51BE, size: 0x8, addend: 0x0, symName: __Z15load_macho_dataP8NSString, symObjAddr: 0x13C, symBinAddr: 0x24ADC, symSize: 0x274 }
  - { offset: 0xB51C6, size: 0x8, addend: 0x0, symName: __Z16add_hook_sectionP13NSMutableData, symObjAddr: 0x3B0, symBinAddr: 0x24D50, symSize: 0x544 }
  - { offset: 0xB5330, size: 0x8, addend: 0x0, symName: __Z16add_hook_sectionP13NSMutableData, symObjAddr: 0x3B0, symBinAddr: 0x24D50, symSize: 0x544 }
  - { offset: 0xB5338, size: 0x8, addend: 0x0, symName: __Z9hex2bytesPcPh, symObjAddr: 0x8F4, symBinAddr: 0x25294, symSize: 0x100 }
  - { offset: 0xB55E6, size: 0x8, addend: 0x0, symName: __Z9hex2bytesPcPh, symObjAddr: 0x8F4, symBinAddr: 0x25294, symSize: 0x100 }
  - { offset: 0xB55EE, size: 0x8, addend: 0x0, symName: __Z15calc_patch_hashyPc, symObjAddr: 0x9F4, symBinAddr: 0x25394, symSize: 0x90 }
  - { offset: 0xB56E4, size: 0x8, addend: 0x0, symName: __Z15calc_patch_hashyPc, symObjAddr: 0x9F4, symBinAddr: 0x25394, symSize: 0x90 }
  - { offset: 0xB56EC, size: 0x8, addend: 0x0, symName: __Z21StaticInlineHookPatchPcyS_, symObjAddr: 0xA84, symBinAddr: 0x25424, symSize: 0x594 }
  - { offset: 0xB5734, size: 0x8, addend: 0x0, symName: __Z9saveMachoPc, symObjAddr: 0x1018, symBinAddr: 0x259B8, symSize: 0x144 }
  - { offset: 0xB573C, size: 0x8, addend: 0x0, symName: __Z19find_module_by_pathPc, symObjAddr: 0x115C, symBinAddr: 0x25AFC, symSize: 0x17C }
  - { offset: 0xB577C, size: 0x8, addend: 0x0, symName: __Z19find_module_by_pathPc, symObjAddr: 0x115C, symBinAddr: 0x25AFC, symSize: 0x17C }
  - { offset: 0xB5784, size: 0x8, addend: 0x0, symName: __Z15find_hook_blockPvy, symObjAddr: 0x12D8, symBinAddr: 0x25C78, symSize: 0x104 }
  - { offset: 0xB5824, size: 0x8, addend: 0x0, symName: __Z15find_hook_blockPvy, symObjAddr: 0x12D8, symBinAddr: 0x25C78, symSize: 0x104 }
  - { offset: 0xB582C, size: 0x8, addend: 0x0, symName: __Z24StaticInlineHookFunctionPcyPv, symObjAddr: 0x13DC, symBinAddr: 0x25D7C, symSize: 0x4C }
  - { offset: 0xB593C, size: 0x8, addend: 0x0, symName: __Z24StaticInlineHookFunctionPcyPv, symObjAddr: 0x13DC, symBinAddr: 0x25D7C, symSize: 0x4C }
  - { offset: 0xB5944, size: 0x8, addend: 0x0, symName: __Z15ActiveCodePatchPcyS_, symObjAddr: 0x1428, symBinAddr: 0x25DC8, symSize: 0x7C }
  - { offset: 0xB59C8, size: 0x8, addend: 0x0, symName: __Z15ActiveCodePatchPcyS_, symObjAddr: 0x1428, symBinAddr: 0x25DC8, symSize: 0x7C }
  - { offset: 0xB59D0, size: 0x8, addend: 0x0, symName: __Z17DeactiveCodePatchPcyS_, symObjAddr: 0x14A4, symBinAddr: 0x25E44, symSize: 0x68 }
  - { offset: 0xB5A54, size: 0x8, addend: 0x0, symName: __Z17DeactiveCodePatchPcyS_, symObjAddr: 0x14A4, symBinAddr: 0x25E44, symSize: 0x68 }
  - { offset: 0xB5A5C, size: 0x8, addend: 0x0, symName: __Z13getRealOffsety, symObjAddr: 0x150C, symBinAddr: 0x25EAC, symSize: 0x10 }
  - { offset: 0xB5AE0, size: 0x8, addend: 0x0, symName: __Z13getRealOffsety, symObjAddr: 0x150C, symBinAddr: 0x25EAC, symSize: 0x10 }
  - { offset: 0xB5AE8, size: 0x8, addend: 0x0, symName: __Z11patchOffsetyNSt3__112basic_stringIcNS_11char_traitsIcEENS_9allocatorIcEEEE, symObjAddr: 0x151C, symBinAddr: 0x25EBC, symSize: 0xB8 }
  - { offset: 0xB5CB1, size: 0x8, addend: 0x0, symName: __Z11patchOffsetyNSt3__112basic_stringIcNS_11char_traitsIcEENS_9allocatorIcEEEE, symObjAddr: 0x151C, symBinAddr: 0x25EBC, symSize: 0xB8 }
  - { offset: 0xB64EF, size: 0x8, addend: 0x0, symName: __Z10LightThemev, symObjAddr: 0x0, symBinAddr: 0x25F74, symSize: 0x21C }
  - { offset: 0xB6500, size: 0x8, addend: 0x0, symName: __Z12ToggleWidgetPKcS0_PbS1_, symObjAddr: 0x78C, symBinAddr: 0x26700, symSize: 0xCD0 }
  - { offset: 0xB6537, size: 0x8, addend: 0x0, symName: __MergedGlobals, symObjAddr: 0x8E1D8, symBinAddr: 0x37E878, symSize: 0x0 }
  - { offset: 0xB6553, size: 0x8, addend: 0x0, symName: __MergedGlobals, symObjAddr: 0x8E1D8, symBinAddr: 0x37E878, symSize: 0x0 }
  - { offset: 0xCAB1A, size: 0x8, addend: 0x0, symName: __ZNSt3__1L19piecewise_constructE, symObjAddr: 0x67E8, symBinAddr: 0xA8928, symSize: 0x0 }
  - { offset: 0xCC8F1, size: 0x8, addend: 0x0, symName: __ZNSt3__1lsB8nn200100IcNS_11char_traitsIcEEEERNS_13basic_ostreamIT_T0_EES7_RKNS_9__iom_t10IS4_EE, symObjAddr: 0x2CB0, symBinAddr: 0x28BFC, symSize: 0x164 }
  - { offset: 0xCC8F9, size: 0x8, addend: 0x0, symName: __ZNSt3__119basic_ostringstreamIcNS_11char_traitsIcEENS_9allocatorIcEEED1Ev, symObjAddr: 0x2E14, symBinAddr: 0x28D60, symSize: 0x8C }
  - { offset: 0xCEE87, size: 0x8, addend: 0x0, symName: __ZNSt3__119__allocate_at_leastB8nn200100INS_9allocatorI6OutputEEEENS_19__allocation_resultINS_16allocator_traitsIT_E7pointerEEERS6_m, symObjAddr: 0x5C94, symBinAddr: 0x2B104, symSize: 0x48 }
  - { offset: 0xCEE8F, size: 0x8, addend: 0x0, symName: __ZNSt3__134__uninitialized_allocator_relocateB8nn200100INS_9allocatorI6OutputEEPS2_EEvRT_T0_S7_S7_, symObjAddr: 0x5CDC, symBinAddr: 0x2B14C, symSize: 0x9C }
  - { offset: 0xCEFDA, size: 0x8, addend: 0x0, symName: __ZNSt3__134__uninitialized_allocator_relocateB8nn200100INS_9allocatorI6OutputEEPS2_EEvRT_T0_S7_S7_, symObjAddr: 0x5CDC, symBinAddr: 0x2B14C, symSize: 0x9C }
  - { offset: 0xCEFE2, size: 0x8, addend: 0x0, symName: __ZNSt3__19allocatorI6OutputE7destroyB8nn200100EPS1_, symObjAddr: 0x5D78, symBinAddr: 0x2B1E8, symSize: 0x44 }
  - { offset: 0xCF049, size: 0x8, addend: 0x0, symName: __ZNSt3__134__uninitialized_allocator_relocateB8nn200100INS_9allocatorI6OutputEEPS2_EEvRT_T0_S7_S7_, symObjAddr: 0x5CDC, symBinAddr: 0x2B14C, symSize: 0x9C }
  - { offset: 0xCFED9, size: 0x8, addend: 0x0, symName: __Z12ToggleButtonPKcPb, symObjAddr: 0x1484, symBinAddr: 0x273D0, symSize: 0x600 }
  - { offset: 0xCFEE1, size: 0x8, addend: 0x0, symName: __ZNSt3__13mapIibNS_4lessIiEENS_9allocatorINS_4pairIKibEEEEED1B8nn200100Ev, symObjAddr: 0x1A84, symBinAddr: 0x279D0, symSize: 0x28 }
  - { offset: 0xCFF10, size: 0x8, addend: 0x0, symName: __MergedGlobals, symObjAddr: 0x8E1D8, symBinAddr: 0x37E878, symSize: 0x0 }
  - { offset: 0xCFF2C, size: 0x8, addend: 0x0, symName: __MergedGlobals, symObjAddr: 0x8E1D8, symBinAddr: 0x37E878, symSize: 0x0 }
  - { offset: 0xCFF49, size: 0x8, addend: 0x0, symName: __MergedGlobals, symObjAddr: 0x8E1D8, symBinAddr: 0x37E878, symSize: 0x0 }
  - { offset: 0xD11CB, size: 0x8, addend: 0x0, symName: __Z16ToggleButtonMiniPKcPb, symObjAddr: 0x1AD4, symBinAddr: 0x27A20, symSize: 0x6D4 }
  - { offset: 0xD11D3, size: 0x8, addend: 0x0, symName: __Z15SliderFloatMiniPKcPfffb, symObjAddr: 0x21A8, symBinAddr: 0x280F4, symSize: 0x1F4 }
  - { offset: 0xD1204, size: 0x8, addend: 0x0, symName: __MergedGlobals, symObjAddr: 0x8E1D8, symBinAddr: 0x37E878, symSize: 0x0 }
  - { offset: 0xD1222, size: 0x8, addend: 0x0, symName: __MergedGlobals, symObjAddr: 0x8E1D8, symBinAddr: 0x37E878, symSize: 0x0 }
  - { offset: 0xD1240, size: 0x8, addend: 0x0, symName: __MergedGlobals, symObjAddr: 0x8E1D8, symBinAddr: 0x37E878, symSize: 0x0 }
  - { offset: 0xD1CA1, size: 0x8, addend: 0x0, symName: __Z13TextInputMiniPKcRNSt3__112basic_stringIcNS1_11char_traitsIcEENS1_9allocatorIcEEEEb, symObjAddr: 0x27AC, symBinAddr: 0x286F8, symSize: 0x34C }
  - { offset: 0xD1CA9, size: 0x8, addend: 0x0, symName: __ZNSt3__113unordered_mapINS_12basic_stringIcNS_11char_traitsIcEENS_9allocatorIcEEEEA256_cNS_4hashIS6_EENS_8equal_toIS6_EENS4_INS_4pairIKS6_S7_EEEEED1B8nn200100Ev, symObjAddr: 0x2AF8, symBinAddr: 0x28A44, symSize: 0x4 }
  - { offset: 0xD1CDA, size: 0x8, addend: 0x0, symName: __MergedGlobals, symObjAddr: 0x8E1D8, symBinAddr: 0x37E878, symSize: 0x0 }
  - { offset: 0xD35C0, size: 0x8, addend: 0x0, symName: __ZN7Console8instanceE, symObjAddr: 0x8E1D0, symBinAddr: 0x37E470, symSize: 0x0 }
  - { offset: 0xD3F79, size: 0x8, addend: 0x0, symName: __Z10LightThemev, symObjAddr: 0x0, symBinAddr: 0x25F74, symSize: 0x21C }
  - { offset: 0xD3F81, size: 0x8, addend: 0x0, symName: __Z15CopyToClipboardPKc, symObjAddr: 0x21C, symBinAddr: 0x26190, symSize: 0x94 }
  - { offset: 0xD4440, size: 0x8, addend: 0x0, symName: __Z15CopyToClipboardPKc, symObjAddr: 0x21C, symBinAddr: 0x26190, symSize: 0x94 }
  - { offset: 0xD4448, size: 0x8, addend: 0x0, symName: __Z16saveBoolSettingsPKcb, symObjAddr: 0x2B0, symBinAddr: 0x26224, symSize: 0xA4 }
  - { offset: 0xD4485, size: 0x8, addend: 0x0, symName: __Z16saveBoolSettingsPKcb, symObjAddr: 0x2B0, symBinAddr: 0x26224, symSize: 0xA4 }
  - { offset: 0xD448D, size: 0x8, addend: 0x0, symName: __Z16loadBoolSettingsPKcb, symObjAddr: 0x354, symBinAddr: 0x262C8, symSize: 0xF8 }
  - { offset: 0xD44D9, size: 0x8, addend: 0x0, symName: __Z16loadBoolSettingsPKcb, symObjAddr: 0x354, symBinAddr: 0x262C8, symSize: 0xF8 }
  - { offset: 0xD44E1, size: 0x8, addend: 0x0, symName: __Z14saveIntSettingPKci, symObjAddr: 0x44C, symBinAddr: 0x263C0, symSize: 0xA4 }
  - { offset: 0xD4535, size: 0x8, addend: 0x0, symName: __Z14saveIntSettingPKci, symObjAddr: 0x44C, symBinAddr: 0x263C0, symSize: 0xA4 }
  - { offset: 0xD453D, size: 0x8, addend: 0x0, symName: __Z14loadIntSettingPKci, symObjAddr: 0x4F0, symBinAddr: 0x26464, symSize: 0xF8 }
  - { offset: 0xD458D, size: 0x8, addend: 0x0, symName: __Z14loadIntSettingPKci, symObjAddr: 0x4F0, symBinAddr: 0x26464, symSize: 0xF8 }
  - { offset: 0xD4595, size: 0x8, addend: 0x0, symName: __Z16saveFloatSettingPKcf, symObjAddr: 0x5E8, symBinAddr: 0x2655C, symSize: 0xAC }
  - { offset: 0xD45ED, size: 0x8, addend: 0x0, symName: __Z16saveFloatSettingPKcf, symObjAddr: 0x5E8, symBinAddr: 0x2655C, symSize: 0xAC }
  - { offset: 0xD45F5, size: 0x8, addend: 0x0, symName: __Z17loadFloatSettingsPKcf, symObjAddr: 0x694, symBinAddr: 0x26608, symSize: 0xF8 }
  - { offset: 0xD4645, size: 0x8, addend: 0x0, symName: __Z17loadFloatSettingsPKcf, symObjAddr: 0x694, symBinAddr: 0x26608, symSize: 0xF8 }
  - { offset: 0xD464D, size: 0x8, addend: 0x0, symName: __Z12ToggleWidgetPKcS0_PbS1_, symObjAddr: 0x78C, symBinAddr: 0x26700, symSize: 0xCD0 }
  - { offset: 0xD4F98, size: 0x8, addend: 0x0, symName: __ZNSt3__13mapIibNS_4lessIiEENS_9allocatorINS_4pairIKibEEEEED1B8nn200100Ev, symObjAddr: 0x1A84, symBinAddr: 0x279D0, symSize: 0x28 }
  - { offset: 0xD4FA0, size: 0x8, addend: 0x0, symName: __ZNSt3__13mapIifNS_4lessIiEENS_9allocatorINS_4pairIKifEEEEED1B8nn200100Ev, symObjAddr: 0x1AAC, symBinAddr: 0x279F8, symSize: 0x28 }
  - { offset: 0xD510A, size: 0x8, addend: 0x0, symName: __ZNSt3__13mapIifNS_4lessIiEENS_9allocatorINS_4pairIKifEEEEED1B8nn200100Ev, symObjAddr: 0x1AAC, symBinAddr: 0x279F8, symSize: 0x28 }
  - { offset: 0xD5112, size: 0x8, addend: 0x0, symName: __Z16ToggleButtonMiniPKcPb, symObjAddr: 0x1AD4, symBinAddr: 0x27A20, symSize: 0x6D4 }
  - { offset: 0xD51E4, size: 0x8, addend: 0x0, symName: __Z15SliderFloatMiniPKcPfffb, symObjAddr: 0x21A8, symBinAddr: 0x280F4, symSize: 0x1F4 }
  - { offset: 0xD51EC, size: 0x8, addend: 0x0, symName: __Z13SliderIntMiniPKcPiiib, symObjAddr: 0x239C, symBinAddr: 0x282E8, symSize: 0x1F0 }
  - { offset: 0xD5AA5, size: 0x8, addend: 0x0, symName: __Z13SliderIntMiniPKcPiiib, symObjAddr: 0x239C, symBinAddr: 0x282E8, symSize: 0x1F0 }
  - { offset: 0xD5AAD, size: 0x8, addend: 0x0, symName: __Z12IntInputMiniPKcPiii, symObjAddr: 0x258C, symBinAddr: 0x284D8, symSize: 0x19C }
  - { offset: 0xD6349, size: 0x8, addend: 0x0, symName: __Z12IntInputMiniPKcPiii, symObjAddr: 0x258C, symBinAddr: 0x284D8, symSize: 0x19C }
  - { offset: 0xD6351, size: 0x8, addend: 0x0, symName: __Z13isValidNumberRKNSt3__112basic_stringIcNS_11char_traitsIcEENS_9allocatorIcEEEE, symObjAddr: 0x2728, symBinAddr: 0x28674, symSize: 0x84 }
  - { offset: 0xD6B87, size: 0x8, addend: 0x0, symName: __Z13isValidNumberRKNSt3__112basic_stringIcNS_11char_traitsIcEENS_9allocatorIcEEEE, symObjAddr: 0x2728, symBinAddr: 0x28674, symSize: 0x84 }
  - { offset: 0xD6B8F, size: 0x8, addend: 0x0, symName: __Z13TextInputMiniPKcRNSt3__112basic_stringIcNS1_11char_traitsIcEENS1_9allocatorIcEEEEb, symObjAddr: 0x27AC, symBinAddr: 0x286F8, symSize: 0x34C }
  - { offset: 0xD6C1A, size: 0x8, addend: 0x0, symName: __Z13isValidNumberRKNSt3__112basic_stringIcNS_11char_traitsIcEENS_9allocatorIcEEEE, symObjAddr: 0x2728, symBinAddr: 0x28674, symSize: 0x84 }
  - { offset: 0xD6E01, size: 0x8, addend: 0x0, symName: __ZNSt3__113unordered_mapINS_12basic_stringIcNS_11char_traitsIcEENS_9allocatorIcEEEEA256_cNS_4hashIS6_EENS_8equal_toIS6_EENS4_INS_4pairIKS6_S7_EEEEED1B8nn200100Ev, symObjAddr: 0x2AF8, symBinAddr: 0x28A44, symSize: 0x4 }
  - { offset: 0xD6E09, size: 0x8, addend: 0x0, symName: __ZN7Console14getCurrentTimeEv, symObjAddr: 0x2AFC, symBinAddr: 0x28A48, symSize: 0x100 }
  - { offset: 0xD6E3D, size: 0x8, addend: 0x0, symName: __ZNSt3__113unordered_mapINS_12basic_stringIcNS_11char_traitsIcEENS_9allocatorIcEEEEA256_cNS_4hashIS6_EENS_8equal_toIS6_EENS4_INS_4pairIKS6_S7_EEEEED1B8nn200100Ev, symObjAddr: 0x2AF8, symBinAddr: 0x28A44, symSize: 0x4 }
  - { offset: 0xD6E45, size: 0x8, addend: 0x0, symName: __ZN7Console14getCurrentTimeEv, symObjAddr: 0x2AFC, symBinAddr: 0x28A48, symSize: 0x100 }
  - { offset: 0xD6E65, size: 0x8, addend: 0x0, symName: __ZNSt3__113unordered_mapINS_12basic_stringIcNS_11char_traitsIcEENS_9allocatorIcEEEEA256_cNS_4hashIS6_EENS_8equal_toIS6_EENS4_INS_4pairIKS6_S7_EEEEED1B8nn200100Ev, symObjAddr: 0x2AF8, symBinAddr: 0x28A44, symSize: 0x4 }
  - { offset: 0xD6E6D, size: 0x8, addend: 0x0, symName: __ZN7Console14getCurrentTimeEv, symObjAddr: 0x2AFC, symBinAddr: 0x28A48, symSize: 0x100 }
  - { offset: 0xD6FC8, size: 0x8, addend: 0x0, symName: __ZN7Console14getCurrentTimeEv, symObjAddr: 0x2AFC, symBinAddr: 0x28A48, symSize: 0x100 }
  - { offset: 0xD6FD0, size: 0x8, addend: 0x0, symName: __ZNSt3__119basic_ostringstreamIcNS_11char_traitsIcEENS_9allocatorIcEEEC1B8nn200100Ev, symObjAddr: 0x2BFC, symBinAddr: 0x28B48, symSize: 0xB4 }
  - { offset: 0xD7367, size: 0x8, addend: 0x0, symName: __ZNSt3__119basic_ostringstreamIcNS_11char_traitsIcEENS_9allocatorIcEEEC1B8nn200100Ev, symObjAddr: 0x2BFC, symBinAddr: 0x28B48, symSize: 0xB4 }
  - { offset: 0xD736F, size: 0x8, addend: 0x0, symName: __ZNSt3__1lsB8nn200100IcNS_11char_traitsIcEEEERNS_13basic_ostreamIT_T0_EES7_RKNS_9__iom_t10IS4_EE, symObjAddr: 0x2CB0, symBinAddr: 0x28BFC, symSize: 0x164 }
  - { offset: 0xD784A, size: 0x8, addend: 0x0, symName: __ZNSt3__119basic_ostringstreamIcNS_11char_traitsIcEENS_9allocatorIcEEED1Ev, symObjAddr: 0x2E14, symBinAddr: 0x28D60, symSize: 0x8C }
  - { offset: 0xD7852, size: 0x8, addend: 0x0, symName: __ZN7Console11logInternalERKNSt3__112basic_stringIcNS0_11char_traitsIcEENS0_9allocatorIcEEEEbi, symObjAddr: 0x2EA0, symBinAddr: 0x28DEC, symSize: 0x118 }
  - { offset: 0xD7BD5, size: 0x8, addend: 0x0, symName: __ZN7Console11logInternalERKNSt3__112basic_stringIcNS0_11char_traitsIcEENS0_9allocatorIcEEEEbi, symObjAddr: 0x2EA0, symBinAddr: 0x28DEC, symSize: 0x118 }
  - { offset: 0xD7BDD, size: 0x8, addend: 0x0, symName: __ZNSt3__16vectorI6OutputNS_9allocatorIS1_EEE9push_backB8nn200100ERKS1_, symObjAddr: 0x2FB8, symBinAddr: 0x28F04, symSize: 0x5C }
  - { offset: 0xD8583, size: 0x8, addend: 0x0, symName: __ZNSt3__16vectorI6OutputNS_9allocatorIS1_EEE9push_backB8nn200100ERKS1_, symObjAddr: 0x2FB8, symBinAddr: 0x28F04, symSize: 0x5C }
  - { offset: 0xD858B, size: 0x8, addend: 0x0, symName: __ZN6OutputD1Ev, symObjAddr: 0x3014, symBinAddr: 0x28F60, symSize: 0x40 }
  - { offset: 0xD86C2, size: 0x8, addend: 0x0, symName: __ZN6OutputD1Ev, symObjAddr: 0x3014, symBinAddr: 0x28F60, symSize: 0x40 }
  - { offset: 0xD86DF, size: 0x8, addend: 0x0, symName: __ZN6OutputD1Ev, symObjAddr: 0x3014, symBinAddr: 0x28F60, symSize: 0x40 }
  - { offset: 0xD86F1, size: 0x8, addend: 0x0, symName: __ZN6OutputD1Ev, symObjAddr: 0x3014, symBinAddr: 0x28F60, symSize: 0x40 }
  - { offset: 0xD86F9, size: 0x8, addend: 0x0, symName: __ZN7Console9renderLogER6Output, symObjAddr: 0x3054, symBinAddr: 0x28FA0, symSize: 0x1E0 }
  - { offset: 0xD8A05, size: 0x8, addend: 0x0, symName: __ZN7Console9renderLogER6Output, symObjAddr: 0x3054, symBinAddr: 0x28FA0, symSize: 0x1E0 }
  - { offset: 0xD8A0D, size: 0x8, addend: 0x0, symName: __ZN7Console14renderLogErrorER6Output, symObjAddr: 0x3234, symBinAddr: 0x29180, symSize: 0x204 }
  - { offset: 0xD97C1, size: 0x8, addend: 0x0, symName: __ZN7Console14renderLogErrorER6Output, symObjAddr: 0x3234, symBinAddr: 0x29180, symSize: 0x204 }
  - { offset: 0xD97C9, size: 0x8, addend: 0x0, symName: __ZN7Console13renderLogInfoER6Output, symObjAddr: 0x3438, symBinAddr: 0x29384, symSize: 0x204 }
  - { offset: 0xDA584, size: 0x8, addend: 0x0, symName: __ZN7Console13renderLogInfoER6Output, symObjAddr: 0x3438, symBinAddr: 0x29384, symSize: 0x204 }
  - { offset: 0xDA58C, size: 0x8, addend: 0x0, symName: __ZN7Console16renderLogSuccessER6Output, symObjAddr: 0x363C, symBinAddr: 0x29588, symSize: 0x204 }
  - { offset: 0xDB347, size: 0x8, addend: 0x0, symName: __ZN7Console16renderLogSuccessER6Output, symObjAddr: 0x363C, symBinAddr: 0x29588, symSize: 0x204 }
  - { offset: 0xDB34F, size: 0x8, addend: 0x0, symName: __ZN7Console16renderLogWarningER6Output, symObjAddr: 0x3840, symBinAddr: 0x2978C, symSize: 0x204 }
  - { offset: 0xDC10A, size: 0x8, addend: 0x0, symName: __ZN7Console16renderLogWarningER6Output, symObjAddr: 0x3840, symBinAddr: 0x2978C, symSize: 0x204 }
  - { offset: 0xDC112, size: 0x8, addend: 0x0, symName: __ZN7Console14renderInternalEv, symObjAddr: 0x3A44, symBinAddr: 0x29990, symSize: 0x2E8 }
  - { offset: 0xDCF08, size: 0x8, addend: 0x0, symName: __ZN7Console14renderInternalEv, symObjAddr: 0x3A44, symBinAddr: 0x29990, symSize: 0x2E8 }
  - { offset: 0xDD64B, size: 0x8, addend: 0x0, symName: __ZTv0_n24_NSt3__119basic_ostringstreamIcNS_11char_traitsIcEENS_9allocatorIcEEED1Ev, symObjAddr: 0x3DE8, symBinAddr: 0x29C78, symSize: 0x8C }
  - { offset: 0xDD653, size: 0x8, addend: 0x0, symName: __ZNSt3__119basic_ostringstreamIcNS_11char_traitsIcEENS_9allocatorIcEEED0Ev, symObjAddr: 0x3E74, symBinAddr: 0x29D04, symSize: 0x8C }
  - { offset: 0xDD857, size: 0x8, addend: 0x0, symName: __ZNSt3__119basic_ostringstreamIcNS_11char_traitsIcEENS_9allocatorIcEEED0Ev, symObjAddr: 0x3E74, symBinAddr: 0x29D04, symSize: 0x8C }
  - { offset: 0xDD85F, size: 0x8, addend: 0x0, symName: __ZTv0_n24_NSt3__119basic_ostringstreamIcNS_11char_traitsIcEENS_9allocatorIcEEED0Ev, symObjAddr: 0x3F00, symBinAddr: 0x29D90, symSize: 0x94 }
  - { offset: 0xDDAAC, size: 0x8, addend: 0x0, symName: __ZTv0_n24_NSt3__119basic_ostringstreamIcNS_11char_traitsIcEENS_9allocatorIcEEED0Ev, symObjAddr: 0x3F00, symBinAddr: 0x29D90, symSize: 0x94 }
  - { offset: 0xDDD29, size: 0x8, addend: 0x0, symName: __ZN6OutputC2ENSt3__112basic_stringIcNS0_11char_traitsIcEENS0_9allocatorIcEEEEbi, symObjAddr: 0x4364, symBinAddr: 0x29E24, symSize: 0x6C }
  - { offset: 0xDE19D, size: 0x8, addend: 0x0, symName: __ZNSt3__16__treeINS_12__value_typeINS_12basic_stringIcNS_11char_traitsIcEENS_9allocatorIcEEEEbEENS_19__map_value_compareIS7_S8_NS_4lessIS7_EELb1EEENS5_IS8_EEE4findIS7_EENS_15__tree_iteratorIS8_PNS_11__tree_nodeIS8_PvEElEERKT_, symObjAddr: 0x4420, symBinAddr: 0x29E90, symSize: 0x8C }
  - { offset: 0xDE367, size: 0x8, addend: 0x0, symName: __ZNSt3__122__tree_node_destructorINS_9allocatorINS_11__tree_nodeINS_12__value_typeINS_12basic_stringIcNS_11char_traitsIcEENS1_IcEEEEbEEPvEEEEEclB8nn200100EPSB_, symObjAddr: 0x4834, symBinAddr: 0x29F1C, symSize: 0x50 }
  - { offset: 0xDE6E4, size: 0x8, addend: 0x0, symName: __ZNSt3__16__treeINS_12__value_typeINS_12basic_stringIcNS_11char_traitsIcEENS_9allocatorIcEEEEbEENS_19__map_value_compareIS7_S8_NS_4lessIS7_EELb1EEENS5_IS8_EEE25__emplace_unique_key_argsIS7_JRKNS_21piecewise_construct_tENS_5tupleIJRKS7_EEENSJ_IJEEEEEENS_4pairINS_15__tree_iteratorIS8_PNS_11__tree_nodeIS8_PvEElEEbEERKT_DpOT0_, symObjAddr: 0x4890, symBinAddr: 0x29F6C, symSize: 0x94 }
  - { offset: 0xDE6EC, size: 0x8, addend: 0x0, symName: __ZNSt3__16__treeINS_12__value_typeINS_12basic_stringIcNS_11char_traitsIcEENS_9allocatorIcEEEEbEENS_19__map_value_compareIS7_S8_NS_4lessIS7_EELb1EEENS5_IS8_EEE16__construct_nodeIJRKNS_21piecewise_construct_tENS_5tupleIJRKS7_EEENSJ_IJEEEEEENS_10unique_ptrINS_11__tree_nodeIS8_PvEENS_22__tree_node_destructorINS5_ISR_EEEEEEDpOT_, symObjAddr: 0x4924, symBinAddr: 0x2A000, symSize: 0xA4 }
  - { offset: 0xDEC8D, size: 0x8, addend: 0x0, symName: __ZNSt3__16__treeINS_12__value_typeINS_12basic_stringIcNS_11char_traitsIcEENS_9allocatorIcEEEEbEENS_19__map_value_compareIS7_S8_NS_4lessIS7_EELb1EEENS5_IS8_EEE16__construct_nodeIJRKNS_21piecewise_construct_tENS_5tupleIJRKS7_EEENSJ_IJEEEEEENS_10unique_ptrINS_11__tree_nodeIS8_PvEENS_22__tree_node_destructorINS5_ISR_EEEEEEDpOT_, symObjAddr: 0x4924, symBinAddr: 0x2A000, symSize: 0xA4 }
  - { offset: 0xDF0E4, size: 0x8, addend: 0x0, symName: __ZNSt3__16__treeINS_12__value_typeIibEENS_19__map_value_compareIiS2_NS_4lessIiEELb1EEENS_9allocatorIS2_EEE7destroyEPNS_11__tree_nodeIS2_PvEE, symObjAddr: 0x4A48, symBinAddr: 0x2A0A4, symSize: 0x40 }
  - { offset: 0xDF0EC, size: 0x8, addend: 0x0, symName: __ZNSt3__16__treeINS_12__value_typeIifEENS_19__map_value_compareIiS2_NS_4lessIiEELb1EEENS_9allocatorIS2_EEE7destroyEPNS_11__tree_nodeIS2_PvEE, symObjAddr: 0x4A88, symBinAddr: 0x2A0E4, symSize: 0x40 }
  - { offset: 0xDF2B7, size: 0x8, addend: 0x0, symName: __ZNSt3__16__treeINS_12__value_typeIifEENS_19__map_value_compareIiS2_NS_4lessIiEELb1EEENS_9allocatorIS2_EEE7destroyEPNS_11__tree_nodeIS2_PvEE, symObjAddr: 0x4A88, symBinAddr: 0x2A0E4, symSize: 0x40 }
  - { offset: 0xDF2BF, size: 0x8, addend: 0x0, symName: __ZNSt3__16__treeINS_12__value_typeIibEENS_19__map_value_compareIiS2_NS_4lessIiEELb1EEENS_9allocatorIS2_EEE25__emplace_unique_key_argsIiJRKNS_21piecewise_construct_tENS_5tupleIJRKiEEENSE_IJEEEEEENS_4pairINS_15__tree_iteratorIS2_PNS_11__tree_nodeIS2_PvEElEEbEERKT_DpOT0_, symObjAddr: 0x4AC8, symBinAddr: 0x2A124, symSize: 0xC0 }
  - { offset: 0xDF7F5, size: 0x8, addend: 0x0, symName: __ZNSt3__16__treeINS_12__value_typeIibEENS_19__map_value_compareIiS2_NS_4lessIiEELb1EEENS_9allocatorIS2_EEE25__emplace_unique_key_argsIiJRKNS_21piecewise_construct_tENS_5tupleIJRKiEEENSE_IJEEEEEENS_4pairINS_15__tree_iteratorIS2_PNS_11__tree_nodeIS2_PvEElEEbEERKT_DpOT0_, symObjAddr: 0x4AC8, symBinAddr: 0x2A124, symSize: 0xC0 }
  - { offset: 0xDF7FD, size: 0x8, addend: 0x0, symName: __ZNSt3__16__treeINS_12__value_typeIibEENS_19__map_value_compareIiS2_NS_4lessIiEELb1EEENS_9allocatorIS2_EEE16__insert_node_atEPNS_15__tree_end_nodeIPNS_16__tree_node_baseIPvEEEERSE_SE_, symObjAddr: 0x4B88, symBinAddr: 0x2A1E4, symSize: 0x54 }
  - { offset: 0xDFBFE, size: 0x8, addend: 0x0, symName: __ZNSt3__16__treeINS_12__value_typeIibEENS_19__map_value_compareIiS2_NS_4lessIiEELb1EEENS_9allocatorIS2_EEE16__insert_node_atEPNS_15__tree_end_nodeIPNS_16__tree_node_baseIPvEEEERSE_SE_, symObjAddr: 0x4B88, symBinAddr: 0x2A1E4, symSize: 0x54 }
  - { offset: 0xDFC06, size: 0x8, addend: 0x0, symName: __ZNSt3__16__treeINS_12__value_typeIifEENS_19__map_value_compareIiS2_NS_4lessIiEELb1EEENS_9allocatorIS2_EEE25__emplace_unique_key_argsIiJRKNS_21piecewise_construct_tENS_5tupleIJRKiEEENSE_IJEEEEEENS_4pairINS_15__tree_iteratorIS2_PNS_11__tree_nodeIS2_PvEElEEbEERKT_DpOT0_, symObjAddr: 0x4BDC, symBinAddr: 0x2A238, symSize: 0xBC }
  - { offset: 0xE00A8, size: 0x8, addend: 0x0, symName: __ZNSt3__16__treeINS_12__value_typeIifEENS_19__map_value_compareIiS2_NS_4lessIiEELb1EEENS_9allocatorIS2_EEE25__emplace_unique_key_argsIiJRKNS_21piecewise_construct_tENS_5tupleIJRKiEEENSE_IJEEEEEENS_4pairINS_15__tree_iteratorIS2_PNS_11__tree_nodeIS2_PvEElEEbEERKT_DpOT0_, symObjAddr: 0x4BDC, symBinAddr: 0x2A238, symSize: 0xBC }
  - { offset: 0xE00B0, size: 0x8, addend: 0x0, symName: __ZNSt3__16__treeINS_12__value_typeIifEENS_19__map_value_compareIiS2_NS_4lessIiEELb1EEENS_9allocatorIS2_EEE16__insert_node_atEPNS_15__tree_end_nodeIPNS_16__tree_node_baseIPvEEEERSE_SE_, symObjAddr: 0x4C98, symBinAddr: 0x2A2F4, symSize: 0x54 }
  - { offset: 0xE04B1, size: 0x8, addend: 0x0, symName: __ZNSt3__16__treeINS_12__value_typeIifEENS_19__map_value_compareIiS2_NS_4lessIiEELb1EEENS_9allocatorIS2_EEE16__insert_node_atEPNS_15__tree_end_nodeIPNS_16__tree_node_baseIPvEEEERSE_SE_, symObjAddr: 0x4C98, symBinAddr: 0x2A2F4, symSize: 0x54 }
  - { offset: 0xE04B9, size: 0x8, addend: 0x0, symName: __ZNSt3__112__hash_tableINS_17__hash_value_typeINS_12basic_stringIcNS_11char_traitsIcEENS_9allocatorIcEEEEA256_cEENS_22__unordered_map_hasherIS7_S9_NS_4hashIS7_EENS_8equal_toIS7_EELb1EEENS_21__unordered_map_equalIS7_S9_SE_SC_Lb1EEENS5_IS9_EEED2Ev, symObjAddr: 0x4CEC, symBinAddr: 0x2A348, symSize: 0x38 }
  - { offset: 0xE0665, size: 0x8, addend: 0x0, symName: __ZNSt3__112__hash_tableINS_17__hash_value_typeINS_12basic_stringIcNS_11char_traitsIcEENS_9allocatorIcEEEEA256_cEENS_22__unordered_map_hasherIS7_S9_NS_4hashIS7_EENS_8equal_toIS7_EELb1EEENS_21__unordered_map_equalIS7_S9_SE_SC_Lb1EEENS5_IS9_EEED2Ev, symObjAddr: 0x4CEC, symBinAddr: 0x2A348, symSize: 0x38 }
  - { offset: 0xE066D, size: 0x8, addend: 0x0, symName: __ZNSt3__112__hash_tableINS_17__hash_value_typeINS_12basic_stringIcNS_11char_traitsIcEENS_9allocatorIcEEEEA256_cEENS_22__unordered_map_hasherIS7_S9_NS_4hashIS7_EENS_8equal_toIS7_EELb1EEENS_21__unordered_map_equalIS7_S9_SE_SC_Lb1EEENS5_IS9_EEE17__deallocate_nodeEPNS_16__hash_node_baseIPNS_11__hash_nodeIS9_PvEEEE, symObjAddr: 0x4D24, symBinAddr: 0x2A380, symSize: 0x44 }
  - { offset: 0xE0931, size: 0x8, addend: 0x0, symName: __ZNSt3__112__hash_tableINS_17__hash_value_typeINS_12basic_stringIcNS_11char_traitsIcEENS_9allocatorIcEEEEA256_cEENS_22__unordered_map_hasherIS7_S9_NS_4hashIS7_EENS_8equal_toIS7_EELb1EEENS_21__unordered_map_equalIS7_S9_SE_SC_Lb1EEENS5_IS9_EEE17__deallocate_nodeEPNS_16__hash_node_baseIPNS_11__hash_nodeIS9_PvEEEE, symObjAddr: 0x4D24, symBinAddr: 0x2A380, symSize: 0x44 }
  - { offset: 0xE0939, size: 0x8, addend: 0x0, symName: __ZNSt3__112__hash_tableINS_17__hash_value_typeINS_12basic_stringIcNS_11char_traitsIcEENS_9allocatorIcEEEEA256_cEENS_22__unordered_map_hasherIS7_S9_NS_4hashIS7_EENS_8equal_toIS7_EELb1EEENS_21__unordered_map_equalIS7_S9_SE_SC_Lb1EEENS5_IS9_EEE25__emplace_unique_key_argsIS7_JRKNS_21piecewise_construct_tENS_5tupleIJRKS7_EEENSO_IJEEEEEENS_4pairINS_15__hash_iteratorIPNS_11__hash_nodeIS9_PvEEEEbEERKT_DpOT0_, symObjAddr: 0x4D68, symBinAddr: 0x2A3C4, symSize: 0x290 }
  - { offset: 0xE0F12, size: 0x8, addend: 0x0, symName: __ZNSt3__112__hash_tableINS_17__hash_value_typeINS_12basic_stringIcNS_11char_traitsIcEENS_9allocatorIcEEEEA256_cEENS_22__unordered_map_hasherIS7_S9_NS_4hashIS7_EENS_8equal_toIS7_EELb1EEENS_21__unordered_map_equalIS7_S9_SE_SC_Lb1EEENS5_IS9_EEE25__emplace_unique_key_argsIS7_JRKNS_21piecewise_construct_tENS_5tupleIJRKS7_EEENSO_IJEEEEEENS_4pairINS_15__hash_iteratorIPNS_11__hash_nodeIS9_PvEEEEbEERKT_DpOT0_, symObjAddr: 0x4D68, symBinAddr: 0x2A3C4, symSize: 0x290 }
  - { offset: 0xE0F1A, size: 0x8, addend: 0x0, symName: __ZNSt3__112__hash_tableINS_17__hash_value_typeINS_12basic_stringIcNS_11char_traitsIcEENS_9allocatorIcEEEEA256_cEENS_22__unordered_map_hasherIS7_S9_NS_4hashIS7_EENS_8equal_toIS7_EELb1EEENS_21__unordered_map_equalIS7_S9_SE_SC_Lb1EEENS5_IS9_EEE21__construct_node_hashIRKNS_21piecewise_construct_tEJNS_5tupleIJRKS7_EEENSO_IJEEEEEENS_10unique_ptrINS_11__hash_nodeIS9_PvEENS_22__hash_node_destructorINS5_ISW_EEEEEEmOT_DpOT0_, symObjAddr: 0x4FF8, symBinAddr: 0x2A654, symSize: 0xD0 }
  - { offset: 0xE1A83, size: 0x8, addend: 0x0, symName: __ZNSt3__112__hash_tableINS_17__hash_value_typeINS_12basic_stringIcNS_11char_traitsIcEENS_9allocatorIcEEEEA256_cEENS_22__unordered_map_hasherIS7_S9_NS_4hashIS7_EENS_8equal_toIS7_EELb1EEENS_21__unordered_map_equalIS7_S9_SE_SC_Lb1EEENS5_IS9_EEE21__construct_node_hashIRKNS_21piecewise_construct_tEJNS_5tupleIJRKS7_EEENSO_IJEEEEEENS_10unique_ptrINS_11__hash_nodeIS9_PvEENS_22__hash_node_destructorINS5_ISW_EEEEEEmOT_DpOT0_, symObjAddr: 0x4FF8, symBinAddr: 0x2A654, symSize: 0xD0 }
  - { offset: 0xE1A8B, size: 0x8, addend: 0x0, symName: __ZNKSt3__121__murmur2_or_cityhashImLm64EEclB8nn200100EPKvm, symObjAddr: 0x50C8, symBinAddr: 0x2A724, symSize: 0x208 }
  - { offset: 0xE1EC3, size: 0x8, addend: 0x0, symName: __ZNKSt3__121__murmur2_or_cityhashImLm64EEclB8nn200100EPKvm, symObjAddr: 0x50C8, symBinAddr: 0x2A724, symSize: 0x208 }
  - { offset: 0xE1EEB, size: 0x8, addend: 0x0, symName: __ZNKSt3__121__murmur2_or_cityhashImLm64EEclB8nn200100EPKvm, symObjAddr: 0x50C8, symBinAddr: 0x2A724, symSize: 0x208 }
  - { offset: 0xE1F13, size: 0x8, addend: 0x0, symName: __ZNKSt3__121__murmur2_or_cityhashImLm64EEclB8nn200100EPKvm, symObjAddr: 0x50C8, symBinAddr: 0x2A724, symSize: 0x208 }
  - { offset: 0xE20AE, size: 0x8, addend: 0x0, symName: __ZNKSt3__121__murmur2_or_cityhashImLm64EEclB8nn200100EPKvm, symObjAddr: 0x50C8, symBinAddr: 0x2A724, symSize: 0x208 }
  - { offset: 0xE20B6, size: 0x8, addend: 0x0, symName: __ZNSt3__121__murmur2_or_cityhashImLm64EE18__hash_len_0_to_16B8nn200100EPKcm, symObjAddr: 0x52D0, symBinAddr: 0x2A92C, symSize: 0xF8 }
  - { offset: 0xE282C, size: 0x8, addend: 0x0, symName: __ZNSt3__121__murmur2_or_cityhashImLm64EE18__hash_len_0_to_16B8nn200100EPKcm, symObjAddr: 0x52D0, symBinAddr: 0x2A92C, symSize: 0xF8 }
  - { offset: 0xE2834, size: 0x8, addend: 0x0, symName: __ZNSt3__121__murmur2_or_cityhashImLm64EE19__hash_len_17_to_32B8nn200100EPKcm, symObjAddr: 0x53C8, symBinAddr: 0x2AA24, symSize: 0xAC }
  - { offset: 0xE2ADB, size: 0x8, addend: 0x0, symName: __ZNSt3__121__murmur2_or_cityhashImLm64EE19__hash_len_17_to_32B8nn200100EPKcm, symObjAddr: 0x53C8, symBinAddr: 0x2AA24, symSize: 0xAC }
  - { offset: 0xE2AE3, size: 0x8, addend: 0x0, symName: __ZNSt3__121__murmur2_or_cityhashImLm64EE19__hash_len_33_to_64B8nn200100EPKcm, symObjAddr: 0x5474, symBinAddr: 0x2AAD0, symSize: 0xC0 }
  - { offset: 0xE2CA3, size: 0x8, addend: 0x0, symName: __ZNSt3__121__murmur2_or_cityhashImLm64EE19__hash_len_33_to_64B8nn200100EPKcm, symObjAddr: 0x5474, symBinAddr: 0x2AAD0, symSize: 0xC0 }
  - { offset: 0xE2CAB, size: 0x8, addend: 0x0, symName: __ZNKSt3__18equal_toINS_12basic_stringIcNS_11char_traitsIcEENS_9allocatorIcEEEEEclB8nn200100ERKS6_S9_, symObjAddr: 0x5534, symBinAddr: 0x2AB90, symSize: 0x70 }
  - { offset: 0xE2FF3, size: 0x8, addend: 0x0, symName: __ZNKSt3__18equal_toINS_12basic_stringIcNS_11char_traitsIcEENS_9allocatorIcEEEEEclB8nn200100ERKS6_S9_, symObjAddr: 0x5534, symBinAddr: 0x2AB90, symSize: 0x70 }
  - { offset: 0xE2FFB, size: 0x8, addend: 0x0, symName: __ZNSt3__112__hash_tableINS_17__hash_value_typeINS_12basic_stringIcNS_11char_traitsIcEENS_9allocatorIcEEEEA256_cEENS_22__unordered_map_hasherIS7_S9_NS_4hashIS7_EENS_8equal_toIS7_EELb1EEENS_21__unordered_map_equalIS7_S9_SE_SC_Lb1EEENS5_IS9_EEE8__rehashILb1EEEvm, symObjAddr: 0x55A4, symBinAddr: 0x2AC00, symSize: 0xDC }
  - { offset: 0xE3054, size: 0x8, addend: 0x0, symName: __ZNKSt3__18equal_toINS_12basic_stringIcNS_11char_traitsIcEENS_9allocatorIcEEEEEclB8nn200100ERKS6_S9_, symObjAddr: 0x5534, symBinAddr: 0x2AB90, symSize: 0x70 }
  - { offset: 0xE3098, size: 0x8, addend: 0x0, symName: __ZNKSt3__18equal_toINS_12basic_stringIcNS_11char_traitsIcEENS_9allocatorIcEEEEEclB8nn200100ERKS6_S9_, symObjAddr: 0x5534, symBinAddr: 0x2AB90, symSize: 0x70 }
  - { offset: 0xE30C0, size: 0x8, addend: 0x0, symName: __ZNKSt3__18equal_toINS_12basic_stringIcNS_11char_traitsIcEENS_9allocatorIcEEEEEclB8nn200100ERKS6_S9_, symObjAddr: 0x5534, symBinAddr: 0x2AB90, symSize: 0x70 }
  - { offset: 0xE3219, size: 0x8, addend: 0x0, symName: __ZNSt3__112__hash_tableINS_17__hash_value_typeINS_12basic_stringIcNS_11char_traitsIcEENS_9allocatorIcEEEEA256_cEENS_22__unordered_map_hasherIS7_S9_NS_4hashIS7_EENS_8equal_toIS7_EELb1EEENS_21__unordered_map_equalIS7_S9_SE_SC_Lb1EEENS5_IS9_EEE8__rehashILb1EEEvm, symObjAddr: 0x55A4, symBinAddr: 0x2AC00, symSize: 0xDC }
  - { offset: 0xE3221, size: 0x8, addend: 0x0, symName: __ZNSt3__112__hash_tableINS_17__hash_value_typeINS_12basic_stringIcNS_11char_traitsIcEENS_9allocatorIcEEEEA256_cEENS_22__unordered_map_hasherIS7_S9_NS_4hashIS7_EENS_8equal_toIS7_EELb1EEENS_21__unordered_map_equalIS7_S9_SE_SC_Lb1EEENS5_IS9_EEE11__do_rehashILb1EEEvm, symObjAddr: 0x5680, symBinAddr: 0x2ACDC, symSize: 0x150 }
  - { offset: 0xE33CE, size: 0x8, addend: 0x0, symName: __ZNSt3__112__hash_tableINS_17__hash_value_typeINS_12basic_stringIcNS_11char_traitsIcEENS_9allocatorIcEEEEA256_cEENS_22__unordered_map_hasherIS7_S9_NS_4hashIS7_EENS_8equal_toIS7_EELb1EEENS_21__unordered_map_equalIS7_S9_SE_SC_Lb1EEENS5_IS9_EEE11__do_rehashILb1EEEvm, symObjAddr: 0x5680, symBinAddr: 0x2ACDC, symSize: 0x150 }
  - { offset: 0xE33D6, size: 0x8, addend: 0x0, symName: __ZNSt3__122__hash_node_destructorINS_9allocatorINS_11__hash_nodeINS_17__hash_value_typeINS_12basic_stringIcNS_11char_traitsIcEENS1_IcEEEEA256_cEEPvEEEEEclB8nn200100EPSC_, symObjAddr: 0x57D0, symBinAddr: 0x2AE2C, symSize: 0x50 }
  - { offset: 0xE3940, size: 0x8, addend: 0x0, symName: __ZNSt3__122__hash_node_destructorINS_9allocatorINS_11__hash_nodeINS_17__hash_value_typeINS_12basic_stringIcNS_11char_traitsIcEENS1_IcEEEEA256_cEEPvEEEEEclB8nn200100EPSC_, symObjAddr: 0x57D0, symBinAddr: 0x2AE2C, symSize: 0x50 }
  - { offset: 0xE3948, size: 0x8, addend: 0x0, symName: __ZNSt3__115basic_stringbufIcNS_11char_traitsIcEENS_9allocatorIcEEEC2B8nn200100Ej, symObjAddr: 0x5820, symBinAddr: 0x2AE7C, symSize: 0xA0 }
  - { offset: 0xE3C83, size: 0x8, addend: 0x0, symName: __ZNSt3__115basic_stringbufIcNS_11char_traitsIcEENS_9allocatorIcEEEC2B8nn200100Ej, symObjAddr: 0x5820, symBinAddr: 0x2AE7C, symSize: 0xA0 }
  - { offset: 0xE4016, size: 0x8, addend: 0x0, symName: __ZNSt3__16vectorI6OutputNS_9allocatorIS1_EEE24__emplace_back_slow_pathIJRKS1_EEEPS1_DpOT_, symObjAddr: 0x5AAC, symBinAddr: 0x2AF1C, symSize: 0x148 }
  - { offset: 0xE401E, size: 0x8, addend: 0x0, symName: __ZNSt3__19allocatorI6OutputE9constructB8nn200100IS1_JRKS1_EEEvPT_DpOT0_, symObjAddr: 0x5BF4, symBinAddr: 0x2B064, symSize: 0x94 }
  - { offset: 0xE42D8, size: 0x8, addend: 0x0, symName: __ZNSt3__19allocatorI6OutputE9constructB8nn200100IS1_JRKS1_EEEvPT_DpOT0_, symObjAddr: 0x5BF4, symBinAddr: 0x2B064, symSize: 0x94 }
  - { offset: 0xE4359, size: 0x8, addend: 0x0, symName: __ZNSt3__19allocatorI6OutputE9constructB8nn200100IS1_JRKS1_EEEvPT_DpOT0_, symObjAddr: 0x5BF4, symBinAddr: 0x2B064, symSize: 0x94 }
  - { offset: 0xE4361, size: 0x8, addend: 0x0, symName: __ZNSt3__16vectorI6OutputNS_9allocatorIS1_EEE20__throw_length_errorB8nn200100Ev, symObjAddr: 0x5C88, symBinAddr: 0x2B0F8, symSize: 0xC }
  - { offset: 0xE4688, size: 0x8, addend: 0x0, symName: __ZNSt3__16vectorI6OutputNS_9allocatorIS1_EEE20__throw_length_errorB8nn200100Ev, symObjAddr: 0x5C88, symBinAddr: 0x2B0F8, symSize: 0xC }
  - { offset: 0xE4690, size: 0x8, addend: 0x0, symName: __ZNSt3__119__allocate_at_leastB8nn200100INS_9allocatorI6OutputEEEENS_19__allocation_resultINS_16allocator_traitsIT_E7pointerEEERS6_m, symObjAddr: 0x5C94, symBinAddr: 0x2B104, symSize: 0x48 }
  - { offset: 0xE46B3, size: 0x8, addend: 0x0, symName: __ZNSt3__119__allocate_at_leastB8nn200100INS_9allocatorI6OutputEEEENS_19__allocation_resultINS_16allocator_traitsIT_E7pointerEEERS6_m, symObjAddr: 0x5C94, symBinAddr: 0x2B104, symSize: 0x48 }
  - { offset: 0xE4853, size: 0x8, addend: 0x0, symName: __ZNSt3__19allocatorI6OutputE7destroyB8nn200100EPS1_, symObjAddr: 0x5D78, symBinAddr: 0x2B1E8, symSize: 0x44 }
  - { offset: 0xE485B, size: 0x8, addend: 0x0, symName: __ZNSt3__114__split_bufferI6OutputRNS_9allocatorIS1_EEED2Ev, symObjAddr: 0x5DBC, symBinAddr: 0x2B22C, symSize: 0x30 }
  - { offset: 0xE4AC7, size: 0x8, addend: 0x0, symName: __ZNSt3__114__split_bufferI6OutputRNS_9allocatorIS1_EEED2Ev, symObjAddr: 0x5DBC, symBinAddr: 0x2B22C, symSize: 0x30 }
  - { offset: 0xE4AEF, size: 0x8, addend: 0x0, symName: __ZNSt3__114__split_bufferI6OutputRNS_9allocatorIS1_EEED2Ev, symObjAddr: 0x5DBC, symBinAddr: 0x2B22C, symSize: 0x30 }
  - { offset: 0xE4B17, size: 0x8, addend: 0x0, symName: __ZNSt3__114__split_bufferI6OutputRNS_9allocatorIS1_EEED2Ev, symObjAddr: 0x5DBC, symBinAddr: 0x2B22C, symSize: 0x30 }
  - { offset: 0xE4B48, size: 0x8, addend: 0x0, symName: __ZNSt3__114__split_bufferI6OutputRNS_9allocatorIS1_EEED2Ev, symObjAddr: 0x5DBC, symBinAddr: 0x2B22C, symSize: 0x30 }
  - { offset: 0xE4BE8, size: 0x8, addend: 0x0, symName: __ZNSt3__114__split_bufferI6OutputRNS_9allocatorIS1_EEED2Ev, symObjAddr: 0x5DBC, symBinAddr: 0x2B22C, symSize: 0x30 }
  - { offset: 0xE4BF0, size: 0x8, addend: 0x0, symName: __ZNSt3__114__split_bufferI6OutputRNS_9allocatorIS1_EEE5clearB8nn200100Ev, symObjAddr: 0x5DEC, symBinAddr: 0x2B25C, symSize: 0x44 }
  - { offset: 0xE4D33, size: 0x8, addend: 0x0, symName: __ZNSt3__114__split_bufferI6OutputRNS_9allocatorIS1_EEE5clearB8nn200100Ev, symObjAddr: 0x5DEC, symBinAddr: 0x2B25C, symSize: 0x44 }
  - { offset: 0xE4D3B, size: 0x8, addend: 0x0, symName: __Z12ToggleWidgetPKcS0_PbS1_.cold.1, symObjAddr: 0x5E30, symBinAddr: 0x8E4A4, symSize: 0x58 }
  - { offset: 0xE4EAE, size: 0x8, addend: 0x0, symName: __Z12ToggleWidgetPKcS0_PbS1_.cold.1, symObjAddr: 0x5E30, symBinAddr: 0x8E4A4, symSize: 0x58 }
  - { offset: 0xE4EB6, size: 0x8, addend: 0x0, symName: __Z12ToggleWidgetPKcS0_PbS1_.cold.2, symObjAddr: 0x5E88, symBinAddr: 0x8E4FC, symSize: 0x54 }
  - { offset: 0xE4F41, size: 0x8, addend: 0x0, symName: __Z12ToggleWidgetPKcS0_PbS1_.cold.2, symObjAddr: 0x5E88, symBinAddr: 0x8E4FC, symSize: 0x54 }
  - { offset: 0xE4F49, size: 0x8, addend: 0x0, symName: __Z12ToggleButtonPKcPb.cold.1, symObjAddr: 0x5EDC, symBinAddr: 0x8E550, symSize: 0x58 }
  - { offset: 0xE507E, size: 0x8, addend: 0x0, symName: __Z12ToggleButtonPKcPb.cold.1, symObjAddr: 0x5EDC, symBinAddr: 0x8E550, symSize: 0x58 }
  - { offset: 0xE5086, size: 0x8, addend: 0x0, symName: __Z12ToggleButtonPKcPb.cold.2, symObjAddr: 0x5F34, symBinAddr: 0x8E5A8, symSize: 0x58 }
  - { offset: 0xE51BB, size: 0x8, addend: 0x0, symName: __Z12ToggleButtonPKcPb.cold.2, symObjAddr: 0x5F34, symBinAddr: 0x8E5A8, symSize: 0x58 }
  - { offset: 0xE51C3, size: 0x8, addend: 0x0, symName: __Z12ToggleButtonPKcPb.cold.3, symObjAddr: 0x5F8C, symBinAddr: 0x8E600, symSize: 0x58 }
  - { offset: 0xE524E, size: 0x8, addend: 0x0, symName: __Z12ToggleButtonPKcPb.cold.3, symObjAddr: 0x5F8C, symBinAddr: 0x8E600, symSize: 0x58 }
  - { offset: 0xE5256, size: 0x8, addend: 0x0, symName: __Z16ToggleButtonMiniPKcPb.cold.1, symObjAddr: 0x5FE4, symBinAddr: 0x8E658, symSize: 0x58 }
  - { offset: 0xE52E1, size: 0x8, addend: 0x0, symName: __Z16ToggleButtonMiniPKcPb.cold.1, symObjAddr: 0x5FE4, symBinAddr: 0x8E658, symSize: 0x58 }
  - { offset: 0xE52E9, size: 0x8, addend: 0x0, symName: __Z16ToggleButtonMiniPKcPb.cold.2, symObjAddr: 0x603C, symBinAddr: 0x8E6B0, symSize: 0x58 }
  - { offset: 0xE5375, size: 0x8, addend: 0x0, symName: __Z16ToggleButtonMiniPKcPb.cold.2, symObjAddr: 0x603C, symBinAddr: 0x8E6B0, symSize: 0x58 }
  - { offset: 0xE537D, size: 0x8, addend: 0x0, symName: __Z16ToggleButtonMiniPKcPb.cold.3, symObjAddr: 0x6094, symBinAddr: 0x8E708, symSize: 0x58 }
  - { offset: 0xE5409, size: 0x8, addend: 0x0, symName: __Z16ToggleButtonMiniPKcPb.cold.3, symObjAddr: 0x6094, symBinAddr: 0x8E708, symSize: 0x58 }
  - { offset: 0xE5411, size: 0x8, addend: 0x0, symName: __Z13TextInputMiniPKcRNSt3__112basic_stringIcNS1_11char_traitsIcEENS1_9allocatorIcEEEEb.cold.1, symObjAddr: 0x60EC, symBinAddr: 0x8E760, symSize: 0x58 }
  - { offset: 0xE5569, size: 0x8, addend: 0x0, symName: __Z13TextInputMiniPKcRNSt3__112basic_stringIcNS1_11char_traitsIcEENS1_9allocatorIcEEEEb.cold.1, symObjAddr: 0x60EC, symBinAddr: 0x8E760, symSize: 0x58 }
  - { offset: 0xE5571, size: 0x8, addend: 0x0, symName: __ZN6OutputC2ENSt3__112basic_stringIcNS0_11char_traitsIcEENS0_9allocatorIcEEEEbi.cold.1, symObjAddr: 0x6144, symBinAddr: 0x8E7B8, symSize: 0x14 }
  - { offset: 0xE567F, size: 0x8, addend: 0x0, symName: __ZN6OutputC2ENSt3__112basic_stringIcNS0_11char_traitsIcEENS0_9allocatorIcEEEEbi.cold.1, symObjAddr: 0x6144, symBinAddr: 0x8E7B8, symSize: 0x14 }
  - { offset: 0xE5687, size: 0x8, addend: 0x0, symName: _OUTLINED_FUNCTION_0, symObjAddr: 0x6158, symBinAddr: 0x2B2A0, symSize: 0x8 }
  - { offset: 0xE56A2, size: 0x8, addend: 0x0, symName: __ZN6OutputC2ENSt3__112basic_stringIcNS0_11char_traitsIcEENS0_9allocatorIcEEEEbi.cold.1, symObjAddr: 0x6144, symBinAddr: 0x8E7B8, symSize: 0x14 }
  - { offset: 0xE56AA, size: 0x8, addend: 0x0, symName: _OUTLINED_FUNCTION_0, symObjAddr: 0x6158, symBinAddr: 0x2B2A0, symSize: 0x8 }
  - { offset: 0xE56BE, size: 0x8, addend: 0x0, symName: __ZN6OutputC2ENSt3__112basic_stringIcNS0_11char_traitsIcEENS0_9allocatorIcEEEEbi.cold.1, symObjAddr: 0x6144, symBinAddr: 0x8E7B8, symSize: 0x14 }
  - { offset: 0xE56C6, size: 0x8, addend: 0x0, symName: _OUTLINED_FUNCTION_0, symObjAddr: 0x6158, symBinAddr: 0x2B2A0, symSize: 0x8 }
  - { offset: 0xE56DB, size: 0x8, addend: 0x0, symName: __ZN6OutputC2ENSt3__112basic_stringIcNS0_11char_traitsIcEENS0_9allocatorIcEEEEbi.cold.1, symObjAddr: 0x6144, symBinAddr: 0x8E7B8, symSize: 0x14 }
  - { offset: 0xE571D, size: 0x8, addend: 0x0, symName: _OUTLINED_FUNCTION_0, symObjAddr: 0x6158, symBinAddr: 0x2B2A0, symSize: 0x8 }
  - { offset: 0xE5745, size: 0x8, addend: 0x0, symName: _OUTLINED_FUNCTION_0, symObjAddr: 0x6158, symBinAddr: 0x2B2A0, symSize: 0x8 }
  - { offset: 0xE576D, size: 0x8, addend: 0x0, symName: _OUTLINED_FUNCTION_0, symObjAddr: 0x6158, symBinAddr: 0x2B2A0, symSize: 0x8 }
  - { offset: 0xE579E, size: 0x8, addend: 0x0, symName: _OUTLINED_FUNCTION_0, symObjAddr: 0x6158, symBinAddr: 0x2B2A0, symSize: 0x8 }
  - { offset: 0xE57BD, size: 0x8, addend: 0x0, symName: _OUTLINED_FUNCTION_0, symObjAddr: 0x6158, symBinAddr: 0x2B2A0, symSize: 0x8 }
  - { offset: 0xE57C5, size: 0x8, addend: 0x0, symName: _OUTLINED_FUNCTION_1, symObjAddr: 0x6160, symBinAddr: 0x2B2A8, symSize: 0x8 }
  - { offset: 0xE57DB, size: 0x8, addend: 0x0, symName: _OUTLINED_FUNCTION_1, symObjAddr: 0x6160, symBinAddr: 0x2B2A8, symSize: 0x8 }
  - { offset: 0xE57E3, size: 0x8, addend: 0x0, symName: _OUTLINED_FUNCTION_2, symObjAddr: 0x6168, symBinAddr: 0x2B2B0, symSize: 0x8 }
  - { offset: 0xE57F9, size: 0x8, addend: 0x0, symName: _OUTLINED_FUNCTION_2, symObjAddr: 0x6168, symBinAddr: 0x2B2B0, symSize: 0x8 }
  - { offset: 0xE5C58, size: 0x8, addend: 0x0, symName: __Z20ImGui_ImplMetal_InitPU19objcproto9MTLDevice11objc_object, symObjAddr: 0x0, symBinAddr: 0x2B2B8, symSize: 0x7C }
  - { offset: 0xE5C7A, size: 0x8, addend: 0x0, symName: __ZL20g_sharedMetalContext, symObjAddr: 0x1BA80, symBinAddr: 0x37E9A8, symSize: 0x0 }
  - { offset: 0xE62A7, size: 0x8, addend: 0x0, symName: __Z20ImGui_ImplMetal_InitPU19objcproto9MTLDevice11objc_object, symObjAddr: 0x0, symBinAddr: 0x2B2B8, symSize: 0x7C }
  - { offset: 0xE62AF, size: 0x8, addend: 0x0, symName: ____Z20ImGui_ImplMetal_InitPU19objcproto9MTLDevice11objc_object_block_invoke, symObjAddr: 0x7C, symBinAddr: 0x2B334, symSize: 0x30 }
  - { offset: 0xE62DE, size: 0x8, addend: 0x0, symName: __ZZ20ImGui_ImplMetal_InitPU19objcproto9MTLDevice11objc_objectE9onceToken, symObjAddr: 0x1BA88, symBinAddr: 0x37E9B0, symSize: 0x0 }
  - { offset: 0xE6803, size: 0x8, addend: 0x0, symName: ____Z20ImGui_ImplMetal_InitPU19objcproto9MTLDevice11objc_object_block_invoke, symObjAddr: 0x7C, symBinAddr: 0x2B334, symSize: 0x30 }
  - { offset: 0xE680B, size: 0x8, addend: 0x0, symName: __Z35ImGui_ImplMetal_CreateDeviceObjectsPU19objcproto9MTLDevice11objc_object, symObjAddr: 0xAC, symBinAddr: 0x2B364, symSize: 0x58 }
  - { offset: 0xE6832, size: 0x8, addend: 0x0, symName: __Z35ImGui_ImplMetal_CreateDeviceObjectsPU19objcproto9MTLDevice11objc_object, symObjAddr: 0xAC, symBinAddr: 0x2B364, symSize: 0x58 }
  - { offset: 0xE683A, size: 0x8, addend: 0x0, symName: __Z24ImGui_ImplMetal_Shutdownv, symObjAddr: 0x104, symBinAddr: 0x2B3BC, symSize: 0x3C }
  - { offset: 0xE70CF, size: 0x8, addend: 0x0, symName: __Z24ImGui_ImplMetal_Shutdownv, symObjAddr: 0x104, symBinAddr: 0x2B3BC, symSize: 0x3C }
  - { offset: 0xE70D7, size: 0x8, addend: 0x0, symName: __Z36ImGui_ImplMetal_DestroyDeviceObjectsv, symObjAddr: 0x140, symBinAddr: 0x2B3F8, symSize: 0x3C }
  - { offset: 0xE70FD, size: 0x8, addend: 0x0, symName: __Z36ImGui_ImplMetal_DestroyDeviceObjectsv, symObjAddr: 0x140, symBinAddr: 0x2B3F8, symSize: 0x3C }
  - { offset: 0xE7168, size: 0x8, addend: 0x0, symName: __Z36ImGui_ImplMetal_DestroyDeviceObjectsv, symObjAddr: 0x140, symBinAddr: 0x2B3F8, symSize: 0x3C }
  - { offset: 0xE7170, size: 0x8, addend: 0x0, symName: __Z24ImGui_ImplMetal_NewFrameP23MTLRenderPassDescriptor, symObjAddr: 0x17C, symBinAddr: 0x2B434, symSize: 0x80 }
  - { offset: 0xE71E0, size: 0x8, addend: 0x0, symName: __Z24ImGui_ImplMetal_NewFrameP23MTLRenderPassDescriptor, symObjAddr: 0x17C, symBinAddr: 0x2B434, symSize: 0x80 }
  - { offset: 0xE71E8, size: 0x8, addend: 0x0, symName: __Z30ImGui_ImplMetal_RenderDrawDataP10ImDrawDataPU27objcproto16MTLCommandBuffer11objc_objectPU34objcproto23MTLRenderCommandEncoder11objc_object, symObjAddr: 0x1FC, symBinAddr: 0x2B4B4, symSize: 0x18 }
  - { offset: 0xE7212, size: 0x8, addend: 0x0, symName: __Z30ImGui_ImplMetal_RenderDrawDataP10ImDrawDataPU27objcproto16MTLCommandBuffer11objc_objectPU34objcproto23MTLRenderCommandEncoder11objc_object, symObjAddr: 0x1FC, symBinAddr: 0x2B4B4, symSize: 0x18 }
  - { offset: 0xE721A, size: 0x8, addend: 0x0, symName: __Z34ImGui_ImplMetal_CreateFontsTexturePU19objcproto9MTLDevice11objc_object, symObjAddr: 0x214, symBinAddr: 0x2B4CC, symSize: 0x68 }
  - { offset: 0xE726A, size: 0x8, addend: 0x0, symName: __Z34ImGui_ImplMetal_CreateFontsTexturePU19objcproto9MTLDevice11objc_object, symObjAddr: 0x214, symBinAddr: 0x2B4CC, symSize: 0x68 }
  - { offset: 0xE7272, size: 0x8, addend: 0x0, symName: __Z35ImGui_ImplMetal_DestroyFontsTexturev, symObjAddr: 0x27C, symBinAddr: 0x2B534, symSize: 0x38 }
  - { offset: 0xE72EB, size: 0x8, addend: 0x0, symName: __Z35ImGui_ImplMetal_DestroyFontsTexturev, symObjAddr: 0x27C, symBinAddr: 0x2B534, symSize: 0x38 }
  - { offset: 0xE72F3, size: 0x8, addend: 0x0, symName: '-[MetalBuffer initWithBuffer:]', symObjAddr: 0x2B4, symBinAddr: 0x2B56C, symSize: 0xDC }
  - { offset: 0xE7347, size: 0x8, addend: 0x0, symName: '-[MetalBuffer initWithBuffer:]', symObjAddr: 0x2B4, symBinAddr: 0x2B56C, symSize: 0xDC }
  - { offset: 0xE734F, size: 0x8, addend: 0x0, symName: '-[MetalBuffer buffer]', symObjAddr: 0x390, symBinAddr: 0x2B648, symSize: 0x8 }
  - { offset: 0xE73A1, size: 0x8, addend: 0x0, symName: '-[MetalBuffer buffer]', symObjAddr: 0x390, symBinAddr: 0x2B648, symSize: 0x8 }
  - { offset: 0xE73A9, size: 0x8, addend: 0x0, symName: '-[MetalBuffer setBuffer:]', symObjAddr: 0x398, symBinAddr: 0x2B650, symSize: 0xC }
  - { offset: 0xE73E9, size: 0x8, addend: 0x0, symName: '-[MetalBuffer setBuffer:]', symObjAddr: 0x398, symBinAddr: 0x2B650, symSize: 0xC }
  - { offset: 0xE73F1, size: 0x8, addend: 0x0, symName: '-[MetalBuffer lastReuseTime]', symObjAddr: 0x3A4, symBinAddr: 0x2B65C, symSize: 0x8 }
  - { offset: 0xE743B, size: 0x8, addend: 0x0, symName: '-[MetalBuffer lastReuseTime]', symObjAddr: 0x3A4, symBinAddr: 0x2B65C, symSize: 0x8 }
  - { offset: 0xE7443, size: 0x8, addend: 0x0, symName: '-[MetalBuffer setLastReuseTime:]', symObjAddr: 0x3AC, symBinAddr: 0x2B664, symSize: 0x8 }
  - { offset: 0xE7482, size: 0x8, addend: 0x0, symName: '-[MetalBuffer setLastReuseTime:]', symObjAddr: 0x3AC, symBinAddr: 0x2B664, symSize: 0x8 }
  - { offset: 0xE748A, size: 0x8, addend: 0x0, symName: '-[MetalBuffer .cxx_destruct]', symObjAddr: 0x3B4, symBinAddr: 0x2B66C, symSize: 0xC }
  - { offset: 0xE74D2, size: 0x8, addend: 0x0, symName: '-[MetalBuffer .cxx_destruct]', symObjAddr: 0x3B4, symBinAddr: 0x2B66C, symSize: 0xC }
  - { offset: 0xE74DA, size: 0x8, addend: 0x0, symName: '-[FramebufferDescriptor initWithRenderPassDescriptor:]', symObjAddr: 0x3C0, symBinAddr: 0x2B678, symSize: 0x21C }
  - { offset: 0xE7512, size: 0x8, addend: 0x0, symName: '-[FramebufferDescriptor initWithRenderPassDescriptor:]', symObjAddr: 0x3C0, symBinAddr: 0x2B678, symSize: 0x21C }
  - { offset: 0xE751A, size: 0x8, addend: 0x0, symName: '-[FramebufferDescriptor copyWithZone:]', symObjAddr: 0x5DC, symBinAddr: 0x2B894, symSize: 0x98 }
  - { offset: 0xE756C, size: 0x8, addend: 0x0, symName: '-[FramebufferDescriptor copyWithZone:]', symObjAddr: 0x5DC, symBinAddr: 0x2B894, symSize: 0x98 }
  - { offset: 0xE7574, size: 0x8, addend: 0x0, symName: '-[FramebufferDescriptor hash]', symObjAddr: 0x674, symBinAddr: 0x2B92C, symSize: 0x3C }
  - { offset: 0xE75D9, size: 0x8, addend: 0x0, symName: '-[FramebufferDescriptor hash]', symObjAddr: 0x674, symBinAddr: 0x2B92C, symSize: 0x3C }
  - { offset: 0xE75E1, size: 0x8, addend: 0x0, symName: '-[FramebufferDescriptor isEqual:]', symObjAddr: 0x6B0, symBinAddr: 0x2B968, symSize: 0xF8 }
  - { offset: 0xE766F, size: 0x8, addend: 0x0, symName: '-[FramebufferDescriptor isEqual:]', symObjAddr: 0x6B0, symBinAddr: 0x2B968, symSize: 0xF8 }
  - { offset: 0xE7677, size: 0x8, addend: 0x0, symName: '-[FramebufferDescriptor sampleCount]', symObjAddr: 0x7A8, symBinAddr: 0x2BA60, symSize: 0x8 }
  - { offset: 0xE76D8, size: 0x8, addend: 0x0, symName: '-[FramebufferDescriptor sampleCount]', symObjAddr: 0x7A8, symBinAddr: 0x2BA60, symSize: 0x8 }
  - { offset: 0xE76E0, size: 0x8, addend: 0x0, symName: '-[FramebufferDescriptor setSampleCount:]', symObjAddr: 0x7B0, symBinAddr: 0x2BA68, symSize: 0x8 }
  - { offset: 0xE7720, size: 0x8, addend: 0x0, symName: '-[FramebufferDescriptor setSampleCount:]', symObjAddr: 0x7B0, symBinAddr: 0x2BA68, symSize: 0x8 }
  - { offset: 0xE7728, size: 0x8, addend: 0x0, symName: '-[FramebufferDescriptor colorPixelFormat]', symObjAddr: 0x7B8, symBinAddr: 0x2BA70, symSize: 0x8 }
  - { offset: 0xE776F, size: 0x8, addend: 0x0, symName: '-[FramebufferDescriptor colorPixelFormat]', symObjAddr: 0x7B8, symBinAddr: 0x2BA70, symSize: 0x8 }
  - { offset: 0xE7777, size: 0x8, addend: 0x0, symName: '-[FramebufferDescriptor setColorPixelFormat:]', symObjAddr: 0x7C0, symBinAddr: 0x2BA78, symSize: 0x8 }
  - { offset: 0xE77B7, size: 0x8, addend: 0x0, symName: '-[FramebufferDescriptor setColorPixelFormat:]', symObjAddr: 0x7C0, symBinAddr: 0x2BA78, symSize: 0x8 }
  - { offset: 0xE77BF, size: 0x8, addend: 0x0, symName: '-[FramebufferDescriptor depthPixelFormat]', symObjAddr: 0x7C8, symBinAddr: 0x2BA80, symSize: 0x8 }
  - { offset: 0xE7806, size: 0x8, addend: 0x0, symName: '-[FramebufferDescriptor depthPixelFormat]', symObjAddr: 0x7C8, symBinAddr: 0x2BA80, symSize: 0x8 }
  - { offset: 0xE780E, size: 0x8, addend: 0x0, symName: '-[FramebufferDescriptor setDepthPixelFormat:]', symObjAddr: 0x7D0, symBinAddr: 0x2BA88, symSize: 0x8 }
  - { offset: 0xE784E, size: 0x8, addend: 0x0, symName: '-[FramebufferDescriptor setDepthPixelFormat:]', symObjAddr: 0x7D0, symBinAddr: 0x2BA88, symSize: 0x8 }
  - { offset: 0xE7856, size: 0x8, addend: 0x0, symName: '-[FramebufferDescriptor stencilPixelFormat]', symObjAddr: 0x7D8, symBinAddr: 0x2BA90, symSize: 0x8 }
  - { offset: 0xE789D, size: 0x8, addend: 0x0, symName: '-[FramebufferDescriptor stencilPixelFormat]', symObjAddr: 0x7D8, symBinAddr: 0x2BA90, symSize: 0x8 }
  - { offset: 0xE78A5, size: 0x8, addend: 0x0, symName: '-[FramebufferDescriptor setStencilPixelFormat:]', symObjAddr: 0x7E0, symBinAddr: 0x2BA98, symSize: 0x8 }
  - { offset: 0xE78E5, size: 0x8, addend: 0x0, symName: '-[FramebufferDescriptor setStencilPixelFormat:]', symObjAddr: 0x7E0, symBinAddr: 0x2BA98, symSize: 0x8 }
  - { offset: 0xE78ED, size: 0x8, addend: 0x0, symName: '-[MetalContext init]', symObjAddr: 0x7E8, symBinAddr: 0x2BAA0, symSize: 0xF8 }
  - { offset: 0xE7934, size: 0x8, addend: 0x0, symName: '-[MetalContext init]', symObjAddr: 0x7E8, symBinAddr: 0x2BAA0, symSize: 0xF8 }
  - { offset: 0xE793C, size: 0x8, addend: 0x0, symName: '-[MetalContext makeDeviceObjectsWithDevice:]', symObjAddr: 0x8E0, symBinAddr: 0x2BB98, symSize: 0xBC }
  - { offset: 0xE797B, size: 0x8, addend: 0x0, symName: '-[MetalContext makeDeviceObjectsWithDevice:]', symObjAddr: 0x8E0, symBinAddr: 0x2BB98, symSize: 0xBC }
  - { offset: 0xE7983, size: 0x8, addend: 0x0, symName: '-[MetalContext makeFontTextureWithDevice:]', symObjAddr: 0x99C, symBinAddr: 0x2BC54, symSize: 0x130 }
  - { offset: 0xE7B13, size: 0x8, addend: 0x0, symName: '-[MetalContext makeFontTextureWithDevice:]', symObjAddr: 0x99C, symBinAddr: 0x2BC54, symSize: 0x130 }
  - { offset: 0xE7B1B, size: 0x8, addend: 0x0, symName: '-[MetalContext dequeueReusableBufferOfLength:device:]', symObjAddr: 0xACC, symBinAddr: 0x2BD84, symSize: 0x43C }
  - { offset: 0xE7C00, size: 0x8, addend: 0x0, symName: '-[MetalContext dequeueReusableBufferOfLength:device:]', symObjAddr: 0xACC, symBinAddr: 0x2BD84, symSize: 0x43C }
  - { offset: 0xE7C08, size: 0x8, addend: 0x0, symName: '-[MetalContext enqueueReusableBuffer:]', symObjAddr: 0xF08, symBinAddr: 0x2C1C0, symSize: 0x7C }
  - { offset: 0xE7CF6, size: 0x8, addend: 0x0, symName: '-[MetalContext enqueueReusableBuffer:]', symObjAddr: 0xF08, symBinAddr: 0x2C1C0, symSize: 0x7C }
  - { offset: 0xE7CFE, size: 0x8, addend: 0x0, symName: '-[MetalContext renderPipelineStateForFrameAndDevice:]', symObjAddr: 0xF84, symBinAddr: 0x2C23C, symSize: 0x184 }
  - { offset: 0xE7D4A, size: 0x8, addend: 0x0, symName: '-[MetalContext renderPipelineStateForFrameAndDevice:]', symObjAddr: 0xF84, symBinAddr: 0x2C23C, symSize: 0x184 }
  - { offset: 0xE7D52, size: 0x8, addend: 0x0, symName: '-[MetalContext _renderPipelineStateForFramebufferDescriptor:device:]', symObjAddr: 0x1108, symBinAddr: 0x2C3C0, symSize: 0x8D8 }
  - { offset: 0xE7DBA, size: 0x8, addend: 0x0, symName: '-[MetalContext _renderPipelineStateForFramebufferDescriptor:device:]', symObjAddr: 0x1108, symBinAddr: 0x2C3C0, symSize: 0x8D8 }
  - { offset: 0xE7DC2, size: 0x8, addend: 0x0, symName: '-[MetalContext emptyRenderPipelineStateCache]', symObjAddr: 0x19E0, symBinAddr: 0x2CC98, symSize: 0x44 }
  - { offset: 0xE7EC6, size: 0x8, addend: 0x0, symName: '-[MetalContext emptyRenderPipelineStateCache]', symObjAddr: 0x19E0, symBinAddr: 0x2CC98, symSize: 0x44 }
  - { offset: 0xE7ECE, size: 0x8, addend: 0x0, symName: '-[MetalContext setupRenderState:commandBuffer:commandEncoder:renderPipelineState:vertexBuffer:vertexBufferOffset:]', symObjAddr: 0x1A24, symBinAddr: 0x2CCDC, symSize: 0x224 }
  - { offset: 0xE7F06, size: 0x8, addend: 0x0, symName: '-[MetalContext setupRenderState:commandBuffer:commandEncoder:renderPipelineState:vertexBuffer:vertexBufferOffset:]', symObjAddr: 0x1A24, symBinAddr: 0x2CCDC, symSize: 0x224 }
  - { offset: 0xE7F0E, size: 0x8, addend: 0x0, symName: '-[MetalContext renderDrawData:commandBuffer:commandEncoder:]', symObjAddr: 0x1C48, symBinAddr: 0x2CF00, symSize: 0x53C }
  - { offset: 0xE807C, size: 0x8, addend: 0x0, symName: '-[MetalContext renderDrawData:commandBuffer:commandEncoder:]', symObjAddr: 0x1C48, symBinAddr: 0x2CF00, symSize: 0x53C }
  - { offset: 0xE8084, size: 0x8, addend: 0x0, symName: '___60-[MetalContext renderDrawData:commandBuffer:commandEncoder:]_block_invoke', symObjAddr: 0x2184, symBinAddr: 0x2D43C, symSize: 0xA0 }
  - { offset: 0xE82A0, size: 0x8, addend: 0x0, symName: '___60-[MetalContext renderDrawData:commandBuffer:commandEncoder:]_block_invoke', symObjAddr: 0x2184, symBinAddr: 0x2D43C, symSize: 0xA0 }
  - { offset: 0xE82A8, size: 0x8, addend: 0x0, symName: '___60-[MetalContext renderDrawData:commandBuffer:commandEncoder:]_block_invoke_2', symObjAddr: 0x2224, symBinAddr: 0x2D4DC, symSize: 0x68 }
  - { offset: 0xE82DF, size: 0x8, addend: 0x0, symName: '___60-[MetalContext renderDrawData:commandBuffer:commandEncoder:]_block_invoke_2', symObjAddr: 0x2224, symBinAddr: 0x2D4DC, symSize: 0x68 }
  - { offset: 0xE82E7, size: 0x8, addend: 0x0, symName: ___copy_helper_block_ea8_32s40s48w, symObjAddr: 0x228C, symBinAddr: 0x2D544, symSize: 0x38 }
  - { offset: 0xE8311, size: 0x8, addend: 0x0, symName: ___copy_helper_block_ea8_32s40s48w, symObjAddr: 0x228C, symBinAddr: 0x2D544, symSize: 0x38 }
  - { offset: 0xE8319, size: 0x8, addend: 0x0, symName: ___destroy_helper_block_ea8_32s40s48w, symObjAddr: 0x22C4, symBinAddr: 0x2D57C, symSize: 0x30 }
  - { offset: 0xE834A, size: 0x8, addend: 0x0, symName: ___destroy_helper_block_ea8_32s40s48w, symObjAddr: 0x22C4, symBinAddr: 0x2D57C, symSize: 0x30 }
  - { offset: 0xE8352, size: 0x8, addend: 0x0, symName: '-[MetalContext depthStencilState]', symObjAddr: 0x22F4, symBinAddr: 0x2D5AC, symSize: 0x8 }
  - { offset: 0xE8374, size: 0x8, addend: 0x0, symName: '-[MetalContext depthStencilState]', symObjAddr: 0x22F4, symBinAddr: 0x2D5AC, symSize: 0x8 }
  - { offset: 0xE837C, size: 0x8, addend: 0x0, symName: '-[MetalContext setDepthStencilState:]', symObjAddr: 0x22FC, symBinAddr: 0x2D5B4, symSize: 0xC }
  - { offset: 0xE83BC, size: 0x8, addend: 0x0, symName: '-[MetalContext setDepthStencilState:]', symObjAddr: 0x22FC, symBinAddr: 0x2D5B4, symSize: 0xC }
  - { offset: 0xE83C4, size: 0x8, addend: 0x0, symName: '-[MetalContext framebufferDescriptor]', symObjAddr: 0x2308, symBinAddr: 0x2D5C0, symSize: 0x8 }
  - { offset: 0xE840E, size: 0x8, addend: 0x0, symName: '-[MetalContext framebufferDescriptor]', symObjAddr: 0x2308, symBinAddr: 0x2D5C0, symSize: 0x8 }
  - { offset: 0xE8416, size: 0x8, addend: 0x0, symName: '-[MetalContext setFramebufferDescriptor:]', symObjAddr: 0x2310, symBinAddr: 0x2D5C8, symSize: 0xC }
  - { offset: 0xE8456, size: 0x8, addend: 0x0, symName: '-[MetalContext setFramebufferDescriptor:]', symObjAddr: 0x2310, symBinAddr: 0x2D5C8, symSize: 0xC }
  - { offset: 0xE845E, size: 0x8, addend: 0x0, symName: '-[MetalContext renderPipelineStateCache]', symObjAddr: 0x231C, symBinAddr: 0x2D5D4, symSize: 0x8 }
  - { offset: 0xE84A8, size: 0x8, addend: 0x0, symName: '-[MetalContext renderPipelineStateCache]', symObjAddr: 0x231C, symBinAddr: 0x2D5D4, symSize: 0x8 }
  - { offset: 0xE84B0, size: 0x8, addend: 0x0, symName: '-[MetalContext setRenderPipelineStateCache:]', symObjAddr: 0x2324, symBinAddr: 0x2D5DC, symSize: 0xC }
  - { offset: 0xE84F0, size: 0x8, addend: 0x0, symName: '-[MetalContext setRenderPipelineStateCache:]', symObjAddr: 0x2324, symBinAddr: 0x2D5DC, symSize: 0xC }
  - { offset: 0xE84F8, size: 0x8, addend: 0x0, symName: '-[MetalContext fontTexture]', symObjAddr: 0x2330, symBinAddr: 0x2D5E8, symSize: 0x8 }
  - { offset: 0xE8542, size: 0x8, addend: 0x0, symName: '-[MetalContext fontTexture]', symObjAddr: 0x2330, symBinAddr: 0x2D5E8, symSize: 0x8 }
  - { offset: 0xE854A, size: 0x8, addend: 0x0, symName: '-[MetalContext setFontTexture:]', symObjAddr: 0x2338, symBinAddr: 0x2D5F0, symSize: 0xC }
  - { offset: 0xE858A, size: 0x8, addend: 0x0, symName: '-[MetalContext setFontTexture:]', symObjAddr: 0x2338, symBinAddr: 0x2D5F0, symSize: 0xC }
  - { offset: 0xE8592, size: 0x8, addend: 0x0, symName: '-[MetalContext bufferCache]', symObjAddr: 0x2344, symBinAddr: 0x2D5FC, symSize: 0x8 }
  - { offset: 0xE85DC, size: 0x8, addend: 0x0, symName: '-[MetalContext bufferCache]', symObjAddr: 0x2344, symBinAddr: 0x2D5FC, symSize: 0x8 }
  - { offset: 0xE85E4, size: 0x8, addend: 0x0, symName: '-[MetalContext setBufferCache:]', symObjAddr: 0x234C, symBinAddr: 0x2D604, symSize: 0xC }
  - { offset: 0xE8624, size: 0x8, addend: 0x0, symName: '-[MetalContext setBufferCache:]', symObjAddr: 0x234C, symBinAddr: 0x2D604, symSize: 0xC }
  - { offset: 0xE862C, size: 0x8, addend: 0x0, symName: '-[MetalContext lastBufferCachePurge]', symObjAddr: 0x2358, symBinAddr: 0x2D610, symSize: 0x8 }
  - { offset: 0xE8676, size: 0x8, addend: 0x0, symName: '-[MetalContext lastBufferCachePurge]', symObjAddr: 0x2358, symBinAddr: 0x2D610, symSize: 0x8 }
  - { offset: 0xE867E, size: 0x8, addend: 0x0, symName: '-[MetalContext setLastBufferCachePurge:]', symObjAddr: 0x2360, symBinAddr: 0x2D618, symSize: 0x8 }
  - { offset: 0xE86BD, size: 0x8, addend: 0x0, symName: '-[MetalContext setLastBufferCachePurge:]', symObjAddr: 0x2360, symBinAddr: 0x2D618, symSize: 0x8 }
  - { offset: 0xE86C5, size: 0x8, addend: 0x0, symName: '-[MetalContext .cxx_destruct]', symObjAddr: 0x2368, symBinAddr: 0x2D620, symSize: 0x54 }
  - { offset: 0xE870D, size: 0x8, addend: 0x0, symName: '-[MetalContext .cxx_destruct]', symObjAddr: 0x2368, symBinAddr: 0x2D620, symSize: 0x54 }
  - { offset: 0xE8715, size: 0x8, addend: 0x0, symName: __Z20ImGui_ImplMetal_InitPU19objcproto9MTLDevice11objc_object.cold.1, symObjAddr: 0x23BC, symBinAddr: 0x8E7CC, symSize: 0x14 }
  - { offset: 0xE874D, size: 0x8, addend: 0x0, symName: __Z20ImGui_ImplMetal_InitPU19objcproto9MTLDevice11objc_object.cold.1, symObjAddr: 0x23BC, symBinAddr: 0x8E7CC, symSize: 0x14 }
  - { offset: 0xE8770, size: 0x8, addend: 0x0, symName: __Z20ImGui_ImplMetal_InitPU19objcproto9MTLDevice11objc_object.cold.1, symObjAddr: 0x23BC, symBinAddr: 0x8E7CC, symSize: 0x14 }
  - { offset: 0xE9785, size: 0x8, addend: 0x0, symName: __ZN6Config11screenScaleE, symObjAddr: 0x283D40, symBinAddr: 0x379E28, symSize: 0x0 }
  - { offset: 0xF2CB4, size: 0x8, addend: 0x0, symName: _SmilySans, symObjAddr: 0x1CB8, symBinAddr: 0xF7DA0, symSize: 0x0 }
  - { offset: 0xF2CD6, size: 0x8, addend: 0x0, symName: '-[ImGuiDrawViewX addFontsToImGui:]', symObjAddr: 0x248, symBinAddr: 0x2D7FC, symSize: 0xDC }
  - { offset: 0xF2CDE, size: 0x8, addend: 0x0, symName: '+[ImGuiDrawViewX showChange:]', symObjAddr: 0x324, symBinAddr: 0x2D8D8, symSize: 0xC }
  - { offset: 0xF2D04, size: 0x8, addend: 0x0, symName: '__ZZ34-[ImGuiDrawViewX addFontsToImGui:]E11iconsRanges', symObjAddr: 0x284620, symBinAddr: 0xA8980, symSize: 0x0 }
  - { offset: 0xF2D82, size: 0x8, addend: 0x0, symName: '-[ImGuiDrawViewX drawInMTKView:]', symObjAddr: 0xC3C, symBinAddr: 0x2E1F0, symSize: 0x35C }
  - { offset: 0xF2D8A, size: 0x8, addend: 0x0, symName: '-[ImGuiDrawViewX updateUserInteractionEnabled]', symObjAddr: 0xF98, symBinAddr: 0x2E54C, symSize: 0xC0 }
  - { offset: 0xF2DB0, size: 0x8, addend: 0x0, symName: '__ZZ32-[ImGuiDrawViewX drawInMTKView:]E6inited', symObjAddr: 0x2F8ED9, symBinAddr: 0x37E9B8, symSize: 0x0 }
  - { offset: 0xF2E9A, size: 0x8, addend: 0x0, symName: __ZL11fontAwesome, symObjAddr: 0x284626, symBinAddr: 0xA8986, symSize: 0x0 }
  - { offset: 0xF2ED0, size: 0x8, addend: 0x0, symName: __ZL11menuVisible, symObjAddr: 0x283D3C, symBinAddr: 0x379E24, symSize: 0x0 }
  - { offset: 0xF350B, size: 0x8, addend: 0x0, symName: ___cxx_global_var_init, symObjAddr: 0x165C, symBinAddr: 0x2E9C8, symSize: 0x94 }
  - { offset: 0xF3513, size: 0x8, addend: 0x0, symName: ___cxx_global_var_init.1, symObjAddr: 0x16F0, symBinAddr: 0x2EA5C, symSize: 0x94 }
  - { offset: 0xF355B, size: 0x8, addend: 0x0, symName: ___cxx_global_var_init.1, symObjAddr: 0x16F0, symBinAddr: 0x2EA5C, symSize: 0x94 }
  - { offset: 0xF3563, size: 0x8, addend: 0x0, symName: ___cxx_global_var_init.2, symObjAddr: 0x1784, symBinAddr: 0x2EAF0, symSize: 0x64 }
  - { offset: 0xF35F6, size: 0x8, addend: 0x0, symName: ___cxx_global_var_init.2, symObjAddr: 0x1784, symBinAddr: 0x2EAF0, symSize: 0x64 }
  - { offset: 0xF35FE, size: 0x8, addend: 0x0, symName: ___cxx_global_var_init.3, symObjAddr: 0x17E8, symBinAddr: 0x2EB54, symSize: 0x64 }
  - { offset: 0xF36AE, size: 0x8, addend: 0x0, symName: ___cxx_global_var_init.3, symObjAddr: 0x17E8, symBinAddr: 0x2EB54, symSize: 0x64 }
  - { offset: 0xF36B6, size: 0x8, addend: 0x0, symName: ___cxx_global_var_init.4, symObjAddr: 0x184C, symBinAddr: 0x2EBB8, symSize: 0x64 }
  - { offset: 0xF3766, size: 0x8, addend: 0x0, symName: ___cxx_global_var_init.4, symObjAddr: 0x184C, symBinAddr: 0x2EBB8, symSize: 0x64 }
  - { offset: 0xF376E, size: 0x8, addend: 0x0, symName: ___cxx_global_var_init.5, symObjAddr: 0x18B0, symBinAddr: 0x2EC1C, symSize: 0x6C }
  - { offset: 0xF388F, size: 0x8, addend: 0x0, symName: ___cxx_global_var_init.5, symObjAddr: 0x18B0, symBinAddr: 0x2EC1C, symSize: 0x6C }
  - { offset: 0xF3954, size: 0x8, addend: 0x0, symName: '-[ImGuiDrawViewX initWithNibName:bundle:]', symObjAddr: 0xC0, symBinAddr: 0x2D674, symSize: 0x114 }
  - { offset: 0xF395C, size: 0x8, addend: 0x0, symName: '-[ImGuiDrawViewX setupImGuiContext]', symObjAddr: 0x1D4, symBinAddr: 0x2D788, symSize: 0x74 }
  - { offset: 0xF39C1, size: 0x8, addend: 0x0, symName: '-[ImGuiDrawViewX setupImGuiContext]', symObjAddr: 0x1D4, symBinAddr: 0x2D788, symSize: 0x74 }
  - { offset: 0xF39C9, size: 0x8, addend: 0x0, symName: '-[ImGuiDrawViewX addFontsToImGui:]', symObjAddr: 0x248, symBinAddr: 0x2D7FC, symSize: 0xDC }
  - { offset: 0xF3A13, size: 0x8, addend: 0x0, symName: '+[ImGuiDrawViewX showChange:]', symObjAddr: 0x324, symBinAddr: 0x2D8D8, symSize: 0xC }
  - { offset: 0xF3A1B, size: 0x8, addend: 0x0, symName: '+[ImGuiDrawViewX isMenuShowing]', symObjAddr: 0x330, symBinAddr: 0x2D8E4, symSize: 0xC }
  - { offset: 0xF3A5D, size: 0x8, addend: 0x0, symName: '+[ImGuiDrawViewX isMenuShowing]', symObjAddr: 0x330, symBinAddr: 0x2D8E4, symSize: 0xC }
  - { offset: 0xF3A65, size: 0x8, addend: 0x0, symName: '-[ImGuiDrawViewX mtkView]', symObjAddr: 0x33C, symBinAddr: 0x2D8F0, symSize: 0x4 }
  - { offset: 0xF3AA0, size: 0x8, addend: 0x0, symName: '-[ImGuiDrawViewX mtkView]', symObjAddr: 0x33C, symBinAddr: 0x2D8F0, symSize: 0x4 }
  - { offset: 0xF3AA8, size: 0x8, addend: 0x0, symName: '-[ImGuiDrawViewX loadView]', symObjAddr: 0x340, symBinAddr: 0x2D8F4, symSize: 0xEC }
  - { offset: 0xF3AE6, size: 0x8, addend: 0x0, symName: '-[ImGuiDrawViewX loadView]', symObjAddr: 0x340, symBinAddr: 0x2D8F4, symSize: 0xEC }
  - { offset: 0xF3AEE, size: 0x8, addend: 0x0, symName: '-[ImGuiDrawViewX viewDidLoad]', symObjAddr: 0x42C, symBinAddr: 0x2D9E0, symSize: 0x310 }
  - { offset: 0xF3B4B, size: 0x8, addend: 0x0, symName: '-[ImGuiDrawViewX viewDidLoad]', symObjAddr: 0x42C, symBinAddr: 0x2D9E0, symSize: 0x310 }
  - { offset: 0xF3B53, size: 0x8, addend: 0x0, symName: '-[ImGuiDrawViewX textFieldDidBeginEditing:]', symObjAddr: 0x73C, symBinAddr: 0x2DCF0, symSize: 0x4 }
  - { offset: 0xF3B8A, size: 0x8, addend: 0x0, symName: '-[ImGuiDrawViewX textFieldDidBeginEditing:]', symObjAddr: 0x73C, symBinAddr: 0x2DCF0, symSize: 0x4 }
  - { offset: 0xF3B92, size: 0x8, addend: 0x0, symName: '-[ImGuiDrawViewX textFieldDidEndEditing:]', symObjAddr: 0x740, symBinAddr: 0x2DCF4, symSize: 0x4 }
  - { offset: 0xF3BD4, size: 0x8, addend: 0x0, symName: '-[ImGuiDrawViewX textFieldDidEndEditing:]', symObjAddr: 0x740, symBinAddr: 0x2DCF4, symSize: 0x4 }
  - { offset: 0xF3BDC, size: 0x8, addend: 0x0, symName: '-[ImGuiDrawViewX textFieldShouldDelete:]', symObjAddr: 0x744, symBinAddr: 0x2DCF8, symSize: 0x8C }
  - { offset: 0xF3C1E, size: 0x8, addend: 0x0, symName: '-[ImGuiDrawViewX textFieldShouldDelete:]', symObjAddr: 0x744, symBinAddr: 0x2DCF8, symSize: 0x8C }
  - { offset: 0xF3C26, size: 0x8, addend: 0x0, symName: '___40-[ImGuiDrawViewX textFieldShouldDelete:]_block_invoke', symObjAddr: 0x7D0, symBinAddr: 0x2DD84, symSize: 0x18 }
  - { offset: 0xF3C7A, size: 0x8, addend: 0x0, symName: '___40-[ImGuiDrawViewX textFieldShouldDelete:]_block_invoke', symObjAddr: 0x7D0, symBinAddr: 0x2DD84, symSize: 0x18 }
  - { offset: 0xF3C82, size: 0x8, addend: 0x0, symName: '-[ImGuiDrawViewX textField:shouldChangeCharactersInRange:replacementString:]', symObjAddr: 0x7E8, symBinAddr: 0x2DD9C, symSize: 0x1EC }
  - { offset: 0xF3CAA, size: 0x8, addend: 0x0, symName: '-[ImGuiDrawViewX textField:shouldChangeCharactersInRange:replacementString:]', symObjAddr: 0x7E8, symBinAddr: 0x2DD9C, symSize: 0x1EC }
  - { offset: 0xF3CB2, size: 0x8, addend: 0x0, symName: '___76-[ImGuiDrawViewX textField:shouldChangeCharactersInRange:replacementString:]_block_invoke', symObjAddr: 0x9D4, symBinAddr: 0x2DF88, symSize: 0x64 }
  - { offset: 0xF3D51, size: 0x8, addend: 0x0, symName: '___76-[ImGuiDrawViewX textField:shouldChangeCharactersInRange:replacementString:]_block_invoke', symObjAddr: 0x9D4, symBinAddr: 0x2DF88, symSize: 0x64 }
  - { offset: 0xF3D59, size: 0x8, addend: 0x0, symName: '___76-[ImGuiDrawViewX textField:shouldChangeCharactersInRange:replacementString:]_block_invoke_2', symObjAddr: 0xA38, symBinAddr: 0x2DFEC, symSize: 0x60 }
  - { offset: 0xF3DE1, size: 0x8, addend: 0x0, symName: '___76-[ImGuiDrawViewX textField:shouldChangeCharactersInRange:replacementString:]_block_invoke_2', symObjAddr: 0xA38, symBinAddr: 0x2DFEC, symSize: 0x60 }
  - { offset: 0xF3DE9, size: 0x8, addend: 0x0, symName: ___copy_helper_block_ea8_32s, symObjAddr: 0xA98, symBinAddr: 0x2E04C, symSize: 0x8 }
  - { offset: 0xF3E11, size: 0x8, addend: 0x0, symName: ___copy_helper_block_ea8_32s, symObjAddr: 0xA98, symBinAddr: 0x2E04C, symSize: 0x8 }
  - { offset: 0xF3E19, size: 0x8, addend: 0x0, symName: ___destroy_helper_block_ea8_32s, symObjAddr: 0xAA0, symBinAddr: 0x2E054, symSize: 0x8 }
  - { offset: 0xF3E48, size: 0x8, addend: 0x0, symName: ___destroy_helper_block_ea8_32s, symObjAddr: 0xAA0, symBinAddr: 0x2E054, symSize: 0x8 }
  - { offset: 0xF3E50, size: 0x8, addend: 0x0, symName: '-[ImGuiDrawViewX updateIOWithTouchEvent:]', symObjAddr: 0xAA8, symBinAddr: 0x2E05C, symSize: 0x174 }
  - { offset: 0xF3E72, size: 0x8, addend: 0x0, symName: '-[ImGuiDrawViewX updateIOWithTouchEvent:]', symObjAddr: 0xAA8, symBinAddr: 0x2E05C, symSize: 0x174 }
  - { offset: 0xF3E7A, size: 0x8, addend: 0x0, symName: '-[ImGuiDrawViewX touchesBegan:withEvent:]', symObjAddr: 0xC1C, symBinAddr: 0x2E1D0, symSize: 0x8 }
  - { offset: 0xF3EFD, size: 0x8, addend: 0x0, symName: '-[ImGuiDrawViewX touchesBegan:withEvent:]', symObjAddr: 0xC1C, symBinAddr: 0x2E1D0, symSize: 0x8 }
  - { offset: 0xF3F05, size: 0x8, addend: 0x0, symName: '-[ImGuiDrawViewX touchesMoved:withEvent:]', symObjAddr: 0xC24, symBinAddr: 0x2E1D8, symSize: 0x8 }
  - { offset: 0xF3F5D, size: 0x8, addend: 0x0, symName: '-[ImGuiDrawViewX touchesMoved:withEvent:]', symObjAddr: 0xC24, symBinAddr: 0x2E1D8, symSize: 0x8 }
  - { offset: 0xF3F65, size: 0x8, addend: 0x0, symName: '-[ImGuiDrawViewX touchesCancelled:withEvent:]', symObjAddr: 0xC2C, symBinAddr: 0x2E1E0, symSize: 0x8 }
  - { offset: 0xF3FBD, size: 0x8, addend: 0x0, symName: '-[ImGuiDrawViewX touchesCancelled:withEvent:]', symObjAddr: 0xC2C, symBinAddr: 0x2E1E0, symSize: 0x8 }
  - { offset: 0xF3FC5, size: 0x8, addend: 0x0, symName: '-[ImGuiDrawViewX touchesEnded:withEvent:]', symObjAddr: 0xC34, symBinAddr: 0x2E1E8, symSize: 0x8 }
  - { offset: 0xF401D, size: 0x8, addend: 0x0, symName: '-[ImGuiDrawViewX touchesEnded:withEvent:]', symObjAddr: 0xC34, symBinAddr: 0x2E1E8, symSize: 0x8 }
  - { offset: 0xF4025, size: 0x8, addend: 0x0, symName: '-[ImGuiDrawViewX drawInMTKView:]', symObjAddr: 0xC3C, symBinAddr: 0x2E1F0, symSize: 0x35C }
  - { offset: 0xF407D, size: 0x8, addend: 0x0, symName: '-[ImGuiDrawViewX updateUserInteractionEnabled]', symObjAddr: 0xF98, symBinAddr: 0x2E54C, symSize: 0xC0 }
  - { offset: 0xF4085, size: 0x8, addend: 0x0, symName: '-[ImGuiDrawViewX mtkView:drawableSizeWillChange:]', symObjAddr: 0x1058, symBinAddr: 0x2E60C, symSize: 0x4 }
  - { offset: 0xF40CD, size: 0x8, addend: 0x0, symName: '-[ImGuiDrawViewX mtkView:drawableSizeWillChange:]', symObjAddr: 0x1058, symBinAddr: 0x2E60C, symSize: 0x4 }
  - { offset: 0xF40D5, size: 0x8, addend: 0x0, symName: '-[ImGuiDrawViewX hasText]', symObjAddr: 0x105C, symBinAddr: 0x2E610, symSize: 0x8 }
  - { offset: 0xF4129, size: 0x8, addend: 0x0, symName: '-[ImGuiDrawViewX hasText]', symObjAddr: 0x105C, symBinAddr: 0x2E610, symSize: 0x8 }
  - { offset: 0xF4131, size: 0x8, addend: 0x0, symName: '-[ImGuiDrawViewX insertText:]', symObjAddr: 0x1064, symBinAddr: 0x2E618, symSize: 0xCC }
  - { offset: 0xF416D, size: 0x8, addend: 0x0, symName: '-[ImGuiDrawViewX insertText:]', symObjAddr: 0x1064, symBinAddr: 0x2E618, symSize: 0xCC }
  - { offset: 0xF4175, size: 0x8, addend: 0x0, symName: '-[ImGuiDrawViewX deleteBackward]', symObjAddr: 0x1130, symBinAddr: 0x2E6E4, symSize: 0x8C }
  - { offset: 0xF41E9, size: 0x8, addend: 0x0, symName: '-[ImGuiDrawViewX deleteBackward]', symObjAddr: 0x1130, symBinAddr: 0x2E6E4, symSize: 0x8C }
  - { offset: 0xF41F1, size: 0x8, addend: 0x0, symName: '___32-[ImGuiDrawViewX deleteBackward]_block_invoke', symObjAddr: 0x11BC, symBinAddr: 0x2E770, symSize: 0x18 }
  - { offset: 0xF4239, size: 0x8, addend: 0x0, symName: '___32-[ImGuiDrawViewX deleteBackward]_block_invoke', symObjAddr: 0x11BC, symBinAddr: 0x2E770, symSize: 0x18 }
  - { offset: 0xF4241, size: 0x8, addend: 0x0, symName: '-[ImGuiDrawViewX canBecomeFirstResponder]', symObjAddr: 0x11D4, symBinAddr: 0x2E788, symSize: 0x8 }
  - { offset: 0xF426B, size: 0x8, addend: 0x0, symName: '-[ImGuiDrawViewX canBecomeFirstResponder]', symObjAddr: 0x11D4, symBinAddr: 0x2E788, symSize: 0x8 }
  - { offset: 0xF4273, size: 0x8, addend: 0x0, symName: '-[ImGuiDrawViewX keyboardWillShow:]', symObjAddr: 0x11DC, symBinAddr: 0x2E790, symSize: 0x58 }
  - { offset: 0xF42AF, size: 0x8, addend: 0x0, symName: '-[ImGuiDrawViewX keyboardWillShow:]', symObjAddr: 0x11DC, symBinAddr: 0x2E790, symSize: 0x58 }
  - { offset: 0xF42B7, size: 0x8, addend: 0x0, symName: '-[ImGuiDrawViewX keyboardWillHide:]', symObjAddr: 0x1234, symBinAddr: 0x2E7E8, symSize: 0x58 }
  - { offset: 0xF42FF, size: 0x8, addend: 0x0, symName: '-[ImGuiDrawViewX keyboardWillHide:]', symObjAddr: 0x1234, symBinAddr: 0x2E7E8, symSize: 0x58 }
  - { offset: 0xF4307, size: 0x8, addend: 0x0, symName: '-[ImGuiDrawViewX dealloc]', symObjAddr: 0x128C, symBinAddr: 0x2E840, symSize: 0xA8 }
  - { offset: 0xF434F, size: 0x8, addend: 0x0, symName: '-[ImGuiDrawViewX dealloc]', symObjAddr: 0x128C, symBinAddr: 0x2E840, symSize: 0xA8 }
  - { offset: 0xF438F, size: 0x8, addend: 0x0, symName: '-[ImGuiDrawViewX textField]', symObjAddr: 0x1344, symBinAddr: 0x2E8E8, symSize: 0x10 }
  - { offset: 0xF4397, size: 0x8, addend: 0x0, symName: '-[ImGuiDrawViewX setTextField:]', symObjAddr: 0x1354, symBinAddr: 0x2E8F8, symSize: 0x14 }
  - { offset: 0xF43D7, size: 0x8, addend: 0x0, symName: '-[ImGuiDrawViewX setTextField:]', symObjAddr: 0x1354, symBinAddr: 0x2E8F8, symSize: 0x14 }
  - { offset: 0xF43DF, size: 0x8, addend: 0x0, symName: '-[ImGuiDrawViewX isKeyboardVisible]', symObjAddr: 0x1368, symBinAddr: 0x2E90C, symSize: 0x10 }
  - { offset: 0xF4429, size: 0x8, addend: 0x0, symName: '-[ImGuiDrawViewX isKeyboardVisible]', symObjAddr: 0x1368, symBinAddr: 0x2E90C, symSize: 0x10 }
  - { offset: 0xF4431, size: 0x8, addend: 0x0, symName: '-[ImGuiDrawViewX setIsKeyboardVisible:]', symObjAddr: 0x1378, symBinAddr: 0x2E91C, symSize: 0x10 }
  - { offset: 0xF4471, size: 0x8, addend: 0x0, symName: '-[ImGuiDrawViewX setIsKeyboardVisible:]', symObjAddr: 0x1378, symBinAddr: 0x2E91C, symSize: 0x10 }
  - { offset: 0xF4479, size: 0x8, addend: 0x0, symName: '-[ImGuiDrawViewX device]', symObjAddr: 0x1388, symBinAddr: 0x2E92C, symSize: 0x10 }
  - { offset: 0xF44BE, size: 0x8, addend: 0x0, symName: '-[ImGuiDrawViewX device]', symObjAddr: 0x1388, symBinAddr: 0x2E92C, symSize: 0x10 }
  - { offset: 0xF44C6, size: 0x8, addend: 0x0, symName: '-[ImGuiDrawViewX setDevice:]', symObjAddr: 0x1398, symBinAddr: 0x2E93C, symSize: 0x14 }
  - { offset: 0xF4506, size: 0x8, addend: 0x0, symName: '-[ImGuiDrawViewX setDevice:]', symObjAddr: 0x1398, symBinAddr: 0x2E93C, symSize: 0x14 }
  - { offset: 0xF450E, size: 0x8, addend: 0x0, symName: '-[ImGuiDrawViewX commandQueue]', symObjAddr: 0x13AC, symBinAddr: 0x2E950, symSize: 0x10 }
  - { offset: 0xF4558, size: 0x8, addend: 0x0, symName: '-[ImGuiDrawViewX commandQueue]', symObjAddr: 0x13AC, symBinAddr: 0x2E950, symSize: 0x10 }
  - { offset: 0xF4560, size: 0x8, addend: 0x0, symName: '-[ImGuiDrawViewX setCommandQueue:]', symObjAddr: 0x13BC, symBinAddr: 0x2E960, symSize: 0x14 }
  - { offset: 0xF45A0, size: 0x8, addend: 0x0, symName: '-[ImGuiDrawViewX setCommandQueue:]', symObjAddr: 0x13BC, symBinAddr: 0x2E960, symSize: 0x14 }
  - { offset: 0xF45A8, size: 0x8, addend: 0x0, symName: '-[ImGuiDrawViewX .cxx_destruct]', symObjAddr: 0x13D0, symBinAddr: 0x2E974, symSize: 0x54 }
  - { offset: 0xF45F2, size: 0x8, addend: 0x0, symName: '-[ImGuiDrawViewX .cxx_destruct]', symObjAddr: 0x13D0, symBinAddr: 0x2E974, symSize: 0x54 }
  - { offset: 0xF8719, size: 0x8, addend: 0x0, symName: __ZL9extraInfo, symObjAddr: 0x1ACD0, symBinAddr: 0x37E9C0, symSize: 0x0 }
  - { offset: 0xF88CC, size: 0x8, addend: 0x0, symName: _MenuOrigin, symObjAddr: 0x1ACD8, symBinAddr: 0x37E478, symSize: 0x0 }
  - { offset: 0xF88E6, size: 0x8, addend: 0x0, symName: _MenuSize, symObjAddr: 0x1ACE0, symBinAddr: 0x37E480, symSize: 0x0 }
  - { offset: 0xF8900, size: 0x8, addend: 0x0, symName: _InvisibleMenuButton, symObjAddr: 0x1ACE8, symBinAddr: 0x37E488, symSize: 0x0 }
  - { offset: 0xF99CB, size: 0x8, addend: 0x0, symName: _VisibleMenuButton, symObjAddr: 0x1ACF0, symBinAddr: 0x37E490, symSize: 0x0 }
  - { offset: 0xF99E5, size: 0x8, addend: 0x0, symName: _menuTouchView, symObjAddr: 0x1ACF8, symBinAddr: 0x37E498, symSize: 0x0 }
  - { offset: 0xF9A20, size: 0x8, addend: 0x0, symName: _hideRecordTextfield, symObjAddr: 0x1AD00, symBinAddr: 0x37E4A0, symSize: 0x0 }
  - { offset: 0xF9A3A, size: 0x8, addend: 0x0, symName: _hideRecordView, symObjAddr: 0x1AD08, symBinAddr: 0x37E4A8, symSize: 0x0 }
  - { offset: 0xF9A54, size: 0x8, addend: 0x0, symName: _StreamerMode, symObjAddr: 0x1AD10, symBinAddr: 0x37E4B0, symSize: 0x0 }
  - { offset: 0xF9A6E, size: 0x8, addend: 0x0, symName: _MoveMenu, symObjAddr: 0x1950, symBinAddr: 0x379E90, symSize: 0x0 }
  - { offset: 0xF9A88, size: 0x8, addend: 0x0, symName: _isOpened, symObjAddr: 0x1AD11, symBinAddr: 0x37E4B1, symSize: 0x0 }
  - { offset: 0xF9ADE, size: 0x8, addend: 0x0, symName: ___cxx_global_var_init, symObjAddr: 0x13D4, symBinAddr: 0x2FF9C, symSize: 0x94 }
  - { offset: 0xF9AE6, size: 0x8, addend: 0x0, symName: ___cxx_global_var_init.1, symObjAddr: 0x1468, symBinAddr: 0x30030, symSize: 0x94 }
  - { offset: 0xF9B2E, size: 0x8, addend: 0x0, symName: ___cxx_global_var_init.1, symObjAddr: 0x1468, symBinAddr: 0x30030, symSize: 0x94 }
  - { offset: 0xF9B36, size: 0x8, addend: 0x0, symName: __GLOBAL__sub_I_MenuUtils.mm, symObjAddr: 0x14FC, symBinAddr: 0x300C4, symSize: 0x8C }
  - { offset: 0xF9B7F, size: 0x8, addend: 0x0, symName: '-[MenuInteraction pointInside:withEvent:]', symObjAddr: 0x0, symBinAddr: 0x2EC88, symSize: 0xCC }
  - { offset: 0xF9B87, size: 0x8, addend: 0x0, symName: '-[MenuInteraction touchesBegan:withEvent:]', symObjAddr: 0xCC, symBinAddr: 0x2ED54, symSize: 0x7C }
  - { offset: 0xF9BFB, size: 0x8, addend: 0x0, symName: '-[MenuInteraction touchesBegan:withEvent:]', symObjAddr: 0xCC, symBinAddr: 0x2ED54, symSize: 0x7C }
  - { offset: 0xF9C03, size: 0x8, addend: 0x0, symName: '-[MenuInteraction touchesMoved:withEvent:]', symObjAddr: 0x148, symBinAddr: 0x2EDD0, symSize: 0x7C }
  - { offset: 0xF9C58, size: 0x8, addend: 0x0, symName: '-[MenuInteraction touchesMoved:withEvent:]', symObjAddr: 0x148, symBinAddr: 0x2EDD0, symSize: 0x7C }
  - { offset: 0xF9C60, size: 0x8, addend: 0x0, symName: '-[MenuInteraction touchesCancelled:withEvent:]', symObjAddr: 0x1C4, symBinAddr: 0x2EE4C, symSize: 0x7C }
  - { offset: 0xF9CB5, size: 0x8, addend: 0x0, symName: '-[MenuInteraction touchesCancelled:withEvent:]', symObjAddr: 0x1C4, symBinAddr: 0x2EE4C, symSize: 0x7C }
  - { offset: 0xF9CBD, size: 0x8, addend: 0x0, symName: '-[MenuInteraction touchesEnded:withEvent:]', symObjAddr: 0x240, symBinAddr: 0x2EEC8, symSize: 0x7C }
  - { offset: 0xF9D12, size: 0x8, addend: 0x0, symName: '-[MenuInteraction touchesEnded:withEvent:]', symObjAddr: 0x240, symBinAddr: 0x2EEC8, symSize: 0x7C }
  - { offset: 0xF9D1A, size: 0x8, addend: 0x0, symName: '-[MenuUtils GetImGuiView]', symObjAddr: 0x2BC, symBinAddr: 0x2EF44, symSize: 0x8 }
  - { offset: 0xF9D6F, size: 0x8, addend: 0x0, symName: '-[MenuUtils GetImGuiView]', symObjAddr: 0x2BC, symBinAddr: 0x2EF44, symSize: 0x8 }
  - { offset: 0xF9D77, size: 0x8, addend: 0x0, symName: '+[MenuUtils loadMenu]', symObjAddr: 0x2C4, symBinAddr: 0x2EF4C, symSize: 0x58 }
  - { offset: 0xF9DB6, size: 0x8, addend: 0x0, symName: '+[MenuUtils loadMenu]', symObjAddr: 0x2C4, symBinAddr: 0x2EF4C, symSize: 0x58 }
  - { offset: 0xF9DBE, size: 0x8, addend: 0x0, symName: '___21+[MenuUtils loadMenu]_block_invoke', symObjAddr: 0x31C, symBinAddr: 0x2EFA4, symSize: 0x3C }
  - { offset: 0xF9DF4, size: 0x8, addend: 0x0, symName: '___21+[MenuUtils loadMenu]_block_invoke', symObjAddr: 0x31C, symBinAddr: 0x2EFA4, symSize: 0x3C }
  - { offset: 0xF9DFC, size: 0x8, addend: 0x0, symName: '-[MenuUtils initTapGes]', symObjAddr: 0x358, symBinAddr: 0x2EFE0, symSize: 0x8B4 }
  - { offset: 0xF9E24, size: 0x8, addend: 0x0, symName: '-[MenuUtils initTapGes]', symObjAddr: 0x358, symBinAddr: 0x2EFE0, symSize: 0x8B4 }
  - { offset: 0xF9E2C, size: 0x8, addend: 0x0, symName: '-[MenuUtils showMenu:]', symObjAddr: 0xC0C, symBinAddr: 0x2F894, symSize: 0xAC }
  - { offset: 0xF9EE7, size: 0x8, addend: 0x0, symName: '-[MenuUtils showMenu:]', symObjAddr: 0xC0C, symBinAddr: 0x2F894, symSize: 0xAC }
  - { offset: 0xF9EEF, size: 0x8, addend: 0x0, symName: '___22-[MenuUtils showMenu:]_block_invoke', symObjAddr: 0xCB8, symBinAddr: 0x2F940, symSize: 0x4C }
  - { offset: 0xF9F34, size: 0x8, addend: 0x0, symName: '___22-[MenuUtils showMenu:]_block_invoke', symObjAddr: 0xCB8, symBinAddr: 0x2F940, symSize: 0x4C }
  - { offset: 0xF9F3C, size: 0x8, addend: 0x0, symName: '___22-[MenuUtils showMenu:]_block_invoke_2', symObjAddr: 0xD04, symBinAddr: 0x2F98C, symSize: 0x40 }
  - { offset: 0xF9F63, size: 0x8, addend: 0x0, symName: '___22-[MenuUtils showMenu:]_block_invoke_2', symObjAddr: 0xD04, symBinAddr: 0x2F98C, symSize: 0x40 }
  - { offset: 0xF9F6B, size: 0x8, addend: 0x0, symName: '-[MenuUtils buttonDragged:withEvent:]', symObjAddr: 0xD44, symBinAddr: 0x2F9CC, symSize: 0x308 }
  - { offset: 0xF9F93, size: 0x8, addend: 0x0, symName: '-[MenuUtils buttonDragged:withEvent:]', symObjAddr: 0xD44, symBinAddr: 0x2F9CC, symSize: 0x308 }
  - { offset: 0xF9F9B, size: 0x8, addend: 0x0, symName: '-[MenuUtils buttonDragStarted:]', symObjAddr: 0x104C, symBinAddr: 0x2FCD4, symSize: 0xA8 }
  - { offset: 0xFA066, size: 0x8, addend: 0x0, symName: '-[MenuUtils buttonDragStarted:]', symObjAddr: 0x104C, symBinAddr: 0x2FCD4, symSize: 0xA8 }
  - { offset: 0xFA06E, size: 0x8, addend: 0x0, symName: '___31-[MenuUtils buttonDragStarted:]_block_invoke', symObjAddr: 0x10F4, symBinAddr: 0x2FD7C, symSize: 0x94 }
  - { offset: 0xFA0B3, size: 0x8, addend: 0x0, symName: '___31-[MenuUtils buttonDragStarted:]_block_invoke', symObjAddr: 0x10F4, symBinAddr: 0x2FD7C, symSize: 0x94 }
  - { offset: 0xFA0E3, size: 0x8, addend: 0x0, symName: '-[MenuUtils buttonDragEnded:]', symObjAddr: 0x1198, symBinAddr: 0x2FE10, symSize: 0xA8 }
  - { offset: 0xFA0EB, size: 0x8, addend: 0x0, symName: '___29-[MenuUtils buttonDragEnded:]_block_invoke', symObjAddr: 0x1240, symBinAddr: 0x2FEB8, symSize: 0xC4 }
  - { offset: 0xFA130, size: 0x8, addend: 0x0, symName: '___29-[MenuUtils buttonDragEnded:]_block_invoke', symObjAddr: 0x1240, symBinAddr: 0x2FEB8, symSize: 0xC4 }
  - { offset: 0xFA138, size: 0x8, addend: 0x0, symName: '-[MenuUtils vna]', symObjAddr: 0x1304, symBinAddr: 0x2FF7C, symSize: 0x8 }
  - { offset: 0xFA160, size: 0x8, addend: 0x0, symName: '-[MenuUtils vna]', symObjAddr: 0x1304, symBinAddr: 0x2FF7C, symSize: 0x8 }
  - { offset: 0xFA168, size: 0x8, addend: 0x0, symName: '-[MenuUtils setVna:]', symObjAddr: 0x130C, symBinAddr: 0x2FF84, symSize: 0xC }
  - { offset: 0xFA1A8, size: 0x8, addend: 0x0, symName: '-[MenuUtils setVna:]', symObjAddr: 0x130C, symBinAddr: 0x2FF84, symSize: 0xC }
  - { offset: 0xFA1B0, size: 0x8, addend: 0x0, symName: '-[MenuUtils .cxx_destruct]', symObjAddr: 0x1318, symBinAddr: 0x2FF90, symSize: 0xC }
  - { offset: 0xFA1FA, size: 0x8, addend: 0x0, symName: '-[MenuUtils .cxx_destruct]', symObjAddr: 0x1318, symBinAddr: 0x2FF90, symSize: 0xC }
  - { offset: 0xFA2D1, size: 0x8, addend: 0x0, symName: __GLOBAL__sub_I_MenuUtils.mm, symObjAddr: 0x14FC, symBinAddr: 0x300C4, symSize: 0x8C }
  - { offset: 0xFA77A, size: 0x8, addend: 0x0, symName: __ZN5ImGui13ShowUserGuideEv, symObjAddr: 0x0, symBinAddr: 0x30150, symSize: 0x12C }
  - { offset: 0xFA7A7, size: 0x8, addend: 0x0, symName: __ZN5ImGui14ShowDemoWindowEPb, symObjAddr: 0x12C, symBinAddr: 0x3027C, symSize: 0x4478 }
  - { offset: 0xFA7AF, size: 0x8, addend: 0x0, symName: __ZN5ImGui15ShowAboutWindowEPb, symObjAddr: 0x45A4, symBinAddr: 0x346F4, symSize: 0x4D0 }
  - { offset: 0xFA7D8, size: 0x8, addend: 0x0, symName: __ZZN5ImGui14ShowDemoWindowEPbE22show_app_main_menu_bar, symObjAddr: 0x67C90, symBinAddr: 0x37E9D0, symSize: 0x0 }
  - { offset: 0xFA7F3, size: 0x8, addend: 0x0, symName: __ZZN5ImGui14ShowDemoWindowEPbE18show_app_documents, symObjAddr: 0x67C91, symBinAddr: 0x37E9D1, symSize: 0x0 }
  - { offset: 0xFA80E, size: 0x8, addend: 0x0, symName: __ZZN5ImGui14ShowDemoWindowEPbE16show_app_console, symObjAddr: 0x67C92, symBinAddr: 0x37E9D2, symSize: 0x0 }
  - { offset: 0xFA829, size: 0x8, addend: 0x0, symName: __ZZN5ImGui14ShowDemoWindowEPbE12show_app_log, symObjAddr: 0x67C93, symBinAddr: 0x37E9D3, symSize: 0x0 }
  - { offset: 0xFA844, size: 0x8, addend: 0x0, symName: __ZZN5ImGui14ShowDemoWindowEPbE15show_app_layout, symObjAddr: 0x67C94, symBinAddr: 0x37E9D4, symSize: 0x0 }
  - { offset: 0xFA85F, size: 0x8, addend: 0x0, symName: __ZZN5ImGui14ShowDemoWindowEPbE24show_app_property_editor, symObjAddr: 0x67C95, symBinAddr: 0x37E9D5, symSize: 0x0 }
  - { offset: 0xFA87A, size: 0x8, addend: 0x0, symName: __ZZN5ImGui14ShowDemoWindowEPbE18show_app_long_text, symObjAddr: 0x67C96, symBinAddr: 0x37E9D6, symSize: 0x0 }
  - { offset: 0xFA895, size: 0x8, addend: 0x0, symName: __ZZN5ImGui14ShowDemoWindowEPbE20show_app_auto_resize, symObjAddr: 0x67C97, symBinAddr: 0x37E9D7, symSize: 0x0 }
  - { offset: 0xFA8B0, size: 0x8, addend: 0x0, symName: __ZZN5ImGui14ShowDemoWindowEPbE27show_app_constrained_resize, symObjAddr: 0x67C98, symBinAddr: 0x37E9D8, symSize: 0x0 }
  - { offset: 0xFA8CB, size: 0x8, addend: 0x0, symName: __ZZN5ImGui14ShowDemoWindowEPbE23show_app_simple_overlay, symObjAddr: 0x67C99, symBinAddr: 0x37E9D9, symSize: 0x0 }
  - { offset: 0xFA8E6, size: 0x8, addend: 0x0, symName: __ZZN5ImGui14ShowDemoWindowEPbE19show_app_fullscreen, symObjAddr: 0x67C9A, symBinAddr: 0x37E9DA, symSize: 0x0 }
  - { offset: 0xFA901, size: 0x8, addend: 0x0, symName: __ZZN5ImGui14ShowDemoWindowEPbE22show_app_window_titles, symObjAddr: 0x67C9B, symBinAddr: 0x37E9DB, symSize: 0x0 }
  - { offset: 0xFA91C, size: 0x8, addend: 0x0, symName: __ZZN5ImGui14ShowDemoWindowEPbE25show_app_custom_rendering, symObjAddr: 0x67C9C, symBinAddr: 0x37E9DC, symSize: 0x0 }
  - { offset: 0xFA937, size: 0x8, addend: 0x0, symName: __ZZN5ImGui14ShowDemoWindowEPbE16show_app_metrics, symObjAddr: 0x67C9D, symBinAddr: 0x37E9DD, symSize: 0x0 }
  - { offset: 0xFA952, size: 0x8, addend: 0x0, symName: __ZZN5ImGui14ShowDemoWindowEPbE21show_app_style_editor, symObjAddr: 0x67C9E, symBinAddr: 0x37E9DE, symSize: 0x0 }
  - { offset: 0xFA96D, size: 0x8, addend: 0x0, symName: __ZZN5ImGui14ShowDemoWindowEPbE14show_app_about, symObjAddr: 0x67C9F, symBinAddr: 0x37E9DF, symSize: 0x0 }
  - { offset: 0xFA988, size: 0x8, addend: 0x0, symName: __ZZN5ImGui14ShowDemoWindowEPbE11no_titlebar, symObjAddr: 0x67CA0, symBinAddr: 0x37E9E0, symSize: 0x0 }
  - { offset: 0xFA9A3, size: 0x8, addend: 0x0, symName: __ZZN5ImGui14ShowDemoWindowEPbE12no_scrollbar, symObjAddr: 0x67CA1, symBinAddr: 0x37E9E1, symSize: 0x0 }
  - { offset: 0xFA9BE, size: 0x8, addend: 0x0, symName: __ZZN5ImGui14ShowDemoWindowEPbE7no_menu, symObjAddr: 0x67CA2, symBinAddr: 0x37E9E2, symSize: 0x0 }
  - { offset: 0xFA9D9, size: 0x8, addend: 0x0, symName: __ZZN5ImGui14ShowDemoWindowEPbE7no_move, symObjAddr: 0x67CA3, symBinAddr: 0x37E9E3, symSize: 0x0 }
  - { offset: 0xFA9F4, size: 0x8, addend: 0x0, symName: __ZZN5ImGui14ShowDemoWindowEPbE9no_resize, symObjAddr: 0x67CA4, symBinAddr: 0x37E9E4, symSize: 0x0 }
  - { offset: 0xFAA0F, size: 0x8, addend: 0x0, symName: __ZZN5ImGui14ShowDemoWindowEPbE11no_collapse, symObjAddr: 0x67CA5, symBinAddr: 0x37E9E5, symSize: 0x0 }
  - { offset: 0xFAA2A, size: 0x8, addend: 0x0, symName: __ZZN5ImGui14ShowDemoWindowEPbE8no_close, symObjAddr: 0x67CA6, symBinAddr: 0x37E9E6, symSize: 0x0 }
  - { offset: 0xFAA45, size: 0x8, addend: 0x0, symName: __ZZN5ImGui14ShowDemoWindowEPbE6no_nav, symObjAddr: 0x67CA7, symBinAddr: 0x37E9E7, symSize: 0x0 }
  - { offset: 0xFAA60, size: 0x8, addend: 0x0, symName: __ZZN5ImGui14ShowDemoWindowEPbE13no_background, symObjAddr: 0x67CA8, symBinAddr: 0x37E9E8, symSize: 0x0 }
  - { offset: 0xFAA7B, size: 0x8, addend: 0x0, symName: __ZZN5ImGui14ShowDemoWindowEPbE17no_bring_to_front, symObjAddr: 0x67CA9, symBinAddr: 0x37E9E9, symSize: 0x0 }
  - { offset: 0xFFC1A, size: 0x8, addend: 0x0, symName: __ZN5ImGui15ShowAboutWindowEPb, symObjAddr: 0x45A4, symBinAddr: 0x346F4, symSize: 0x4D0 }
  - { offset: 0xFFC22, size: 0x8, addend: 0x0, symName: __ZN5ImGui15ShowStyleEditorEP10ImGuiStyle, symObjAddr: 0x4A74, symBinAddr: 0x34BC4, symSize: 0x1298 }
  - { offset: 0xFFC4B, size: 0x8, addend: 0x0, symName: __ZZN5ImGui15ShowAboutWindowEPbE16show_config_info, symObjAddr: 0x67CAA, symBinAddr: 0x37E9EA, symSize: 0x0 }
  - { offset: 0xFFDA8, size: 0x8, addend: 0x0, symName: __ZN5ImGui17ShowStyleSelectorEPKc, symObjAddr: 0x117AC, symBinAddr: 0x418FC, symSize: 0x78 }
  - { offset: 0xFFDB0, size: 0x8, addend: 0x0, symName: __ZN5ImGui16ShowFontSelectorEPKc, symObjAddr: 0x11824, symBinAddr: 0x41974, symSize: 0xF4 }
  - { offset: 0xFFDE1, size: 0x8, addend: 0x0, symName: __ZZN5ImGui17ShowStyleSelectorEPKcE9style_idx, symObjAddr: 0x1FC58, symBinAddr: 0x379E98, symSize: 0x0 }
  - { offset: 0xFFDFF, size: 0x8, addend: 0x0, symName: __ZN5ImGui15ShowStyleEditorEP10ImGuiStyle, symObjAddr: 0x4A74, symBinAddr: 0x34BC4, symSize: 0x1298 }
  - { offset: 0xFFE07, size: 0x8, addend: 0x0, symName: __ZL19ShowExampleMenuFilev, symObjAddr: 0x5D0C, symBinAddr: 0x35E5C, symSize: 0x394 }
  - { offset: 0xFFE30, size: 0x8, addend: 0x0, symName: __MergedGlobals, symObjAddr: 0x68320, symBinAddr: 0x37F060, symSize: 0x0 }
  - { offset: 0xFFE4E, size: 0x8, addend: 0x0, symName: __ZZN5ImGui15ShowStyleEditorEP10ImGuiStyleE4init, symObjAddr: 0x67CAB, symBinAddr: 0x37E9EB, symSize: 0x0 }
  - { offset: 0xFFE70, size: 0x8, addend: 0x0, symName: __ZZN5ImGui15ShowStyleEditorEP10ImGuiStyleE11output_dest, symObjAddr: 0x67CAC, symBinAddr: 0x37E9EC, symSize: 0x0 }
  - { offset: 0xFFE8B, size: 0x8, addend: 0x0, symName: __ZZN5ImGui15ShowStyleEditorEP10ImGuiStyleE20output_only_modified, symObjAddr: 0x1FC5C, symBinAddr: 0x379E9C, symSize: 0x0 }
  - { offset: 0xFFEA6, size: 0x8, addend: 0x0, symName: __MergedGlobals, symObjAddr: 0x68320, symBinAddr: 0x37F060, symSize: 0x0 }
  - { offset: 0xFFEC4, size: 0x8, addend: 0x0, symName: __ZZN5ImGui15ShowStyleEditorEP10ImGuiStyleE11alpha_flags, symObjAddr: 0x67CB0, symBinAddr: 0x37E9F0, symSize: 0x0 }
  - { offset: 0xFFEDF, size: 0x8, addend: 0x0, symName: __ZZN5ImGui15ShowStyleEditorEP10ImGuiStyleE12window_scale, symObjAddr: 0x1FC60, symBinAddr: 0x379EA0, symSize: 0x0 }
  - { offset: 0x100C3A, size: 0x8, addend: 0x0, symName: __ZN5ImGui13ShowUserGuideEv, symObjAddr: 0x0, symBinAddr: 0x30150, symSize: 0x12C }
  - { offset: 0x100C42, size: 0x8, addend: 0x0, symName: __ZN5ImGui14ShowDemoWindowEPb, symObjAddr: 0x12C, symBinAddr: 0x3027C, symSize: 0x4478 }
  - { offset: 0x100C6C, size: 0x8, addend: 0x0, symName: __ZN5ImGui16ShowFontSelectorEPKc, symObjAddr: 0x11824, symBinAddr: 0x41974, symSize: 0xF4 }
  - { offset: 0x100C74, size: 0x8, addend: 0x0, symName: __ZN15ImGuiTextFilterD1Ev, symObjAddr: 0x11918, symBinAddr: 0x41A68, symSize: 0x2C }
  - { offset: 0x1016A0, size: 0x8, addend: 0x0, symName: __ZL21ShowDemoWindowWidgetsv, symObjAddr: 0x6108, symBinAddr: 0x36258, symSize: 0x4C90 }
  - { offset: 0x1016A8, size: 0x8, addend: 0x0, symName: __ZL20ShowDemoWindowLayoutv, symObjAddr: 0xAD98, symBinAddr: 0x3AEE8, symSize: 0x2170 }
  - { offset: 0x1016D0, size: 0x8, addend: 0x0, symName: __ZZL21ShowDemoWindowWidgetsvE7clicked, symObjAddr: 0x67CB4, symBinAddr: 0x37E9F4, symSize: 0x0 }
  - { offset: 0x1016EB, size: 0x8, addend: 0x0, symName: __ZZL21ShowDemoWindowWidgetsvE5check, symObjAddr: 0x1FC64, symBinAddr: 0x379EA4, symSize: 0x0 }
  - { offset: 0x101706, size: 0x8, addend: 0x0, symName: __ZZL21ShowDemoWindowWidgetsvE1e, symObjAddr: 0x67CB8, symBinAddr: 0x37E9F8, symSize: 0x0 }
  - { offset: 0x101721, size: 0x8, addend: 0x0, symName: __ZZL21ShowDemoWindowWidgetsvE7counter, symObjAddr: 0x67CBC, symBinAddr: 0x37E9FC, symSize: 0x0 }
  - { offset: 0x10173C, size: 0x8, addend: 0x0, symName: __ZZL21ShowDemoWindowWidgetsvE3arr, symObjAddr: 0x1FC68, symBinAddr: 0x379EA8, symSize: 0x0 }
  - { offset: 0x101757, size: 0x8, addend: 0x0, symName: __ZZL21ShowDemoWindowWidgetsvE12item_current, symObjAddr: 0x67CC0, symBinAddr: 0x37EA00, symSize: 0x0 }
  - { offset: 0x101772, size: 0x8, addend: 0x0, symName: __ZZL21ShowDemoWindowWidgetsvE4str0, symObjAddr: 0x1FC84, symBinAddr: 0x379EC4, symSize: 0x0 }
  - { offset: 0x10178D, size: 0x8, addend: 0x0, symName: __ZZL21ShowDemoWindowWidgetsvE4str1, symObjAddr: 0x67CC4, symBinAddr: 0x37EA04, symSize: 0x0 }
  - { offset: 0x1017A8, size: 0x8, addend: 0x0, symName: __ZZL21ShowDemoWindowWidgetsvE2i0, symObjAddr: 0x1FD04, symBinAddr: 0x379F44, symSize: 0x0 }
  - { offset: 0x1017C3, size: 0x8, addend: 0x0, symName: __ZZL21ShowDemoWindowWidgetsvE2f0, symObjAddr: 0x1FD08, symBinAddr: 0x379F48, symSize: 0x0 }
  - { offset: 0x1017DE, size: 0x8, addend: 0x0, symName: __ZZL21ShowDemoWindowWidgetsvE2d0, symObjAddr: 0x1FD10, symBinAddr: 0x379F50, symSize: 0x0 }
  - { offset: 0x1017F9, size: 0x8, addend: 0x0, symName: __ZZL21ShowDemoWindowWidgetsvE2f1, symObjAddr: 0x1FD18, symBinAddr: 0x379F58, symSize: 0x0 }
  - { offset: 0x101814, size: 0x8, addend: 0x0, symName: __ZZL21ShowDemoWindowWidgetsvE5vec4a, symObjAddr: 0x1FD1C, symBinAddr: 0x379F5C, symSize: 0x0 }
  - { offset: 0x10182F, size: 0x8, addend: 0x0, symName: __ZZL21ShowDemoWindowWidgetsvE2i1, symObjAddr: 0x1FD2C, symBinAddr: 0x379F6C, symSize: 0x0 }
  - { offset: 0x10184A, size: 0x8, addend: 0x0, symName: __ZZL21ShowDemoWindowWidgetsvE2i2, symObjAddr: 0x1FD30, symBinAddr: 0x379F70, symSize: 0x0 }
  - { offset: 0x101865, size: 0x8, addend: 0x0, symName: __ZZL21ShowDemoWindowWidgetsvE2f1_0, symObjAddr: 0x1FD34, symBinAddr: 0x379F74, symSize: 0x0 }
  - { offset: 0x101880, size: 0x8, addend: 0x0, symName: __ZZL21ShowDemoWindowWidgetsvE2f2, symObjAddr: 0x1FD38, symBinAddr: 0x379F78, symSize: 0x0 }
  - { offset: 0x10189B, size: 0x8, addend: 0x0, symName: __ZZL21ShowDemoWindowWidgetsvE2i1_0, symObjAddr: 0x67D44, symBinAddr: 0x37EA84, symSize: 0x0 }
  - { offset: 0x1018B6, size: 0x8, addend: 0x0, symName: __ZZL21ShowDemoWindowWidgetsvE2f1_1, symObjAddr: 0x1FD3C, symBinAddr: 0x379F7C, symSize: 0x0 }
  - { offset: 0x1018D1, size: 0x8, addend: 0x0, symName: __ZZL21ShowDemoWindowWidgetsvE2f2_0, symObjAddr: 0x67D48, symBinAddr: 0x37EA88, symSize: 0x0 }
  - { offset: 0x1018EC, size: 0x8, addend: 0x0, symName: __ZZL21ShowDemoWindowWidgetsvE5angle, symObjAddr: 0x67D4C, symBinAddr: 0x37EA8C, symSize: 0x0 }
  - { offset: 0x101907, size: 0x8, addend: 0x0, symName: __ZZL21ShowDemoWindowWidgetsvE4elem, symObjAddr: 0x67D50, symBinAddr: 0x37EA90, symSize: 0x0 }
  - { offset: 0x101922, size: 0x8, addend: 0x0, symName: __ZZL21ShowDemoWindowWidgetsvE4col1, symObjAddr: 0x1FD40, symBinAddr: 0x379F80, symSize: 0x0 }
  - { offset: 0x10193D, size: 0x8, addend: 0x0, symName: __ZZL21ShowDemoWindowWidgetsvE4col2, symObjAddr: 0x1FD4C, symBinAddr: 0x379F8C, symSize: 0x0 }
  - { offset: 0x101958, size: 0x8, addend: 0x0, symName: __ZZL21ShowDemoWindowWidgetsvE12item_current_0, symObjAddr: 0x1FD5C, symBinAddr: 0x379F9C, symSize: 0x0 }
  - { offset: 0x101973, size: 0x8, addend: 0x0, symName: __ZZL21ShowDemoWindowWidgetsvE10base_flags, symObjAddr: 0x1FD60, symBinAddr: 0x379FA0, symSize: 0x0 }
  - { offset: 0x10198E, size: 0x8, addend: 0x0, symName: __ZZL21ShowDemoWindowWidgetsvE35align_label_with_current_x_position, symObjAddr: 0x67D54, symBinAddr: 0x37EA94, symSize: 0x0 }
  - { offset: 0x1019A9, size: 0x8, addend: 0x0, symName: __ZZL21ShowDemoWindowWidgetsvE18test_drag_and_drop, symObjAddr: 0x67D55, symBinAddr: 0x37EA95, symSize: 0x0 }
  - { offset: 0x1019C4, size: 0x8, addend: 0x0, symName: __ZZL21ShowDemoWindowWidgetsvE14selection_mask, symObjAddr: 0x1FD64, symBinAddr: 0x379FA4, symSize: 0x0 }
  - { offset: 0x1019DF, size: 0x8, addend: 0x0, symName: __ZZL21ShowDemoWindowWidgetsvE14closable_group, symObjAddr: 0x1FD68, symBinAddr: 0x379FA8, symSize: 0x0 }
  - { offset: 0x1019FA, size: 0x8, addend: 0x0, symName: __ZZL21ShowDemoWindowWidgetsvE10wrap_width, symObjAddr: 0x1FD6C, symBinAddr: 0x379FAC, symSize: 0x0 }
  - { offset: 0x101A15, size: 0x8, addend: 0x0, symName: __ZZL21ShowDemoWindowWidgetsvE3buf, symObjAddr: 0x1FD70, symBinAddr: 0x379FB0, symSize: 0x0 }
  - { offset: 0x101A30, size: 0x8, addend: 0x0, symName: __ZZL21ShowDemoWindowWidgetsvE13pressed_count, symObjAddr: 0x67D58, symBinAddr: 0x37EA98, symSize: 0x0 }
  - { offset: 0x101A4B, size: 0x8, addend: 0x0, symName: __ZZL21ShowDemoWindowWidgetsvE5flags, symObjAddr: 0x67D5C, symBinAddr: 0x37EA9C, symSize: 0x0 }
  - { offset: 0x101A66, size: 0x8, addend: 0x0, symName: __ZZL21ShowDemoWindowWidgetsvE16item_current_idx, symObjAddr: 0x67D60, symBinAddr: 0x37EAA0, symSize: 0x0 }
  - { offset: 0x101A81, size: 0x8, addend: 0x0, symName: __ZZL21ShowDemoWindowWidgetsvE14item_current_2, symObjAddr: 0x67D64, symBinAddr: 0x37EAA4, symSize: 0x0 }
  - { offset: 0x101A9C, size: 0x8, addend: 0x0, symName: __ZZL21ShowDemoWindowWidgetsvE14item_current_3, symObjAddr: 0x1FD90, symBinAddr: 0x379FD0, symSize: 0x0 }
  - { offset: 0x101AB7, size: 0x8, addend: 0x0, symName: __ZZL21ShowDemoWindowWidgetsvE14item_current_4, symObjAddr: 0x67D68, symBinAddr: 0x37EAA8, symSize: 0x0 }
  - { offset: 0x101AD2, size: 0x8, addend: 0x0, symName: __ZZL21ShowDemoWindowWidgetsvE16item_current_idx_0, symObjAddr: 0x67D6C, symBinAddr: 0x37EAAC, symSize: 0x0 }
  - { offset: 0x101AED, size: 0x8, addend: 0x0, symName: __ZZL21ShowDemoWindowWidgetsvE9selection, symObjAddr: 0x1FD94, symBinAddr: 0x379FD4, symSize: 0x0 }
  - { offset: 0x101B08, size: 0x8, addend: 0x0, symName: __ZZL21ShowDemoWindowWidgetsvE8selected, symObjAddr: 0x1FD9C, symBinAddr: 0x379FDC, symSize: 0x0 }
  - { offset: 0x101B23, size: 0x8, addend: 0x0, symName: __ZZL21ShowDemoWindowWidgetsvE9selection_0, symObjAddr: 0x67D70, symBinAddr: 0x37EAB0, symSize: 0x0 }
  - { offset: 0x101B3E, size: 0x8, addend: 0x0, symName: __ZZL21ShowDemoWindowWidgetsvE8selected_0, symObjAddr: 0x67D75, symBinAddr: 0x37EAB5, symSize: 0x0 }
  - { offset: 0x101B59, size: 0x8, addend: 0x0, symName: __ZZL21ShowDemoWindowWidgetsvE8selected_1, symObjAddr: 0x67D78, symBinAddr: 0x37EAB8, symSize: 0x0 }
  - { offset: 0x101B74, size: 0x8, addend: 0x0, symName: __ZZL21ShowDemoWindowWidgetsvE8selected_2, symObjAddr: 0x1FDA0, symBinAddr: 0x379FE0, symSize: 0x0 }
  - { offset: 0x101B8F, size: 0x8, addend: 0x0, symName: __ZZL21ShowDemoWindowWidgetsvE8selected_3, symObjAddr: 0x1FDB0, symBinAddr: 0x379FF0, symSize: 0x0 }
  - { offset: 0x101BAA, size: 0x8, addend: 0x0, symName: __ZZL21ShowDemoWindowWidgetsvE4text, symObjAddr: 0x1FDB9, symBinAddr: 0x379FF9, symSize: 0x0 }
  - { offset: 0x101BC5, size: 0x8, addend: 0x0, symName: __ZZL21ShowDemoWindowWidgetsvE5flags_0, symObjAddr: 0x23DBC, symBinAddr: 0x37DFFC, symSize: 0x0 }
  - { offset: 0x101BE0, size: 0x8, addend: 0x0, symName: __ZZL21ShowDemoWindowWidgetsvE4buf1, symObjAddr: 0x67D82, symBinAddr: 0x37EAC2, symSize: 0x0 }
  - { offset: 0x101BFB, size: 0x8, addend: 0x0, symName: __ZZL21ShowDemoWindowWidgetsvE4buf2, symObjAddr: 0x67DC2, symBinAddr: 0x37EB02, symSize: 0x0 }
  - { offset: 0x101C16, size: 0x8, addend: 0x0, symName: __ZZL21ShowDemoWindowWidgetsvE4buf3, symObjAddr: 0x67E02, symBinAddr: 0x37EB42, symSize: 0x0 }
  - { offset: 0x101C31, size: 0x8, addend: 0x0, symName: __ZZL21ShowDemoWindowWidgetsvE4buf4, symObjAddr: 0x67E42, symBinAddr: 0x37EB82, symSize: 0x0 }
  - { offset: 0x101C4C, size: 0x8, addend: 0x0, symName: __ZZL21ShowDemoWindowWidgetsvE4buf5, symObjAddr: 0x67E82, symBinAddr: 0x37EBC2, symSize: 0x0 }
  - { offset: 0x101C67, size: 0x8, addend: 0x0, symName: __ZZL21ShowDemoWindowWidgetsvE4buf6, symObjAddr: 0x67EC2, symBinAddr: 0x37EC02, symSize: 0x0 }
  - { offset: 0x101C82, size: 0x8, addend: 0x0, symName: __ZZL21ShowDemoWindowWidgetsvE8password, symObjAddr: 0x23DC0, symBinAddr: 0x37E000, symSize: 0x0 }
  - { offset: 0x101C9D, size: 0x8, addend: 0x0, symName: __ZZL21ShowDemoWindowWidgetsvE4buf1_0, symObjAddr: 0x67F02, symBinAddr: 0x37EC42, symSize: 0x0 }
  - { offset: 0x101CB8, size: 0x8, addend: 0x0, symName: __ZZL21ShowDemoWindowWidgetsvE4buf2_0, symObjAddr: 0x67F42, symBinAddr: 0x37EC82, symSize: 0x0 }
  - { offset: 0x101CD3, size: 0x8, addend: 0x0, symName: __ZZL21ShowDemoWindowWidgetsvE4buf3_0, symObjAddr: 0x67F82, symBinAddr: 0x37ECC2, symSize: 0x0 }
  - { offset: 0x101CEE, size: 0x8, addend: 0x0, symName: __ZZL21ShowDemoWindowWidgetsvE10edit_count, symObjAddr: 0x67FC4, symBinAddr: 0x37ED04, symSize: 0x0 }
  - { offset: 0x101D09, size: 0x8, addend: 0x0, symName: __MergedGlobals, symObjAddr: 0x68320, symBinAddr: 0x37F060, symSize: 0x0 }
  - { offset: 0x101D27, size: 0x8, addend: 0x0, symName: __ZZL21ShowDemoWindowWidgetsvE13tab_bar_flags, symObjAddr: 0x23E00, symBinAddr: 0x37E040, symSize: 0x0 }
  - { offset: 0x101D42, size: 0x8, addend: 0x0, symName: __ZZL21ShowDemoWindowWidgetsvE6opened, symObjAddr: 0x23E04, symBinAddr: 0x37E044, symSize: 0x0 }
  - { offset: 0x101D5D, size: 0x8, addend: 0x0, symName: __MergedGlobals, symObjAddr: 0x68320, symBinAddr: 0x37F060, symSize: 0x0 }
  - { offset: 0x101D7B, size: 0x8, addend: 0x0, symName: __ZZL21ShowDemoWindowWidgetsvE11next_tab_id, symObjAddr: 0x67FC8, symBinAddr: 0x37ED08, symSize: 0x0 }
  - { offset: 0x101D96, size: 0x8, addend: 0x0, symName: __ZZL21ShowDemoWindowWidgetsvE19show_leading_button, symObjAddr: 0x23E08, symBinAddr: 0x37E048, symSize: 0x0 }
  - { offset: 0x101DB1, size: 0x8, addend: 0x0, symName: __ZZL21ShowDemoWindowWidgetsvE20show_trailing_button, symObjAddr: 0x23E09, symBinAddr: 0x37E049, symSize: 0x0 }
  - { offset: 0x101DCC, size: 0x8, addend: 0x0, symName: __ZZL21ShowDemoWindowWidgetsvE13tab_bar_flags_0, symObjAddr: 0x23E0C, symBinAddr: 0x37E04C, symSize: 0x0 }
  - { offset: 0x101DE7, size: 0x8, addend: 0x0, symName: __ZZL21ShowDemoWindowWidgetsvE7animate, symObjAddr: 0x23E10, symBinAddr: 0x37E050, symSize: 0x0 }
  - { offset: 0x101E02, size: 0x8, addend: 0x0, symName: __ZZL21ShowDemoWindowWidgetsvE3arr_0, symObjAddr: 0x23E14, symBinAddr: 0x37E054, symSize: 0x0 }
  - { offset: 0x101E1D, size: 0x8, addend: 0x0, symName: __ZZL21ShowDemoWindowWidgetsvE6values, symObjAddr: 0x67FCC, symBinAddr: 0x37ED0C, symSize: 0x0 }
  - { offset: 0x101E38, size: 0x8, addend: 0x0, symName: __ZZL21ShowDemoWindowWidgetsvE13values_offset, symObjAddr: 0x68134, symBinAddr: 0x37EE74, symSize: 0x0 }
  - { offset: 0x101E53, size: 0x8, addend: 0x0, symName: __ZZL21ShowDemoWindowWidgetsvE12refresh_time, symObjAddr: 0x68138, symBinAddr: 0x37EE78, symSize: 0x0 }
  - { offset: 0x101E6E, size: 0x8, addend: 0x0, symName: __ZZL21ShowDemoWindowWidgetsvE5phase, symObjAddr: 0x68140, symBinAddr: 0x37EE80, symSize: 0x0 }
  - { offset: 0x101E89, size: 0x8, addend: 0x0, symName: __ZZL21ShowDemoWindowWidgetsvE9func_type, symObjAddr: 0x68144, symBinAddr: 0x37EE84, symSize: 0x0 }
  - { offset: 0x101EA4, size: 0x8, addend: 0x0, symName: __ZZL21ShowDemoWindowWidgetsvE13display_count, symObjAddr: 0x23E30, symBinAddr: 0x37E070, symSize: 0x0 }
  - { offset: 0x101EBF, size: 0x8, addend: 0x0, symName: __ZZL21ShowDemoWindowWidgetsvE8progress, symObjAddr: 0x68148, symBinAddr: 0x37EE88, symSize: 0x0 }
  - { offset: 0x101EDA, size: 0x8, addend: 0x0, symName: __ZZL21ShowDemoWindowWidgetsvE12progress_dir, symObjAddr: 0x23E34, symBinAddr: 0x37E074, symSize: 0x0 }
  - { offset: 0x101EF5, size: 0x8, addend: 0x0, symName: __MergedGlobals, symObjAddr: 0x68320, symBinAddr: 0x37F060, symSize: 0x0 }
  - { offset: 0x101F13, size: 0x8, addend: 0x0, symName: __ZZL21ShowDemoWindowWidgetsvE13alpha_preview, symObjAddr: 0x23E38, symBinAddr: 0x37E078, symSize: 0x0 }
  - { offset: 0x101F2E, size: 0x8, addend: 0x0, symName: __ZZL21ShowDemoWindowWidgetsvE18alpha_half_preview, symObjAddr: 0x6814C, symBinAddr: 0x37EE8C, symSize: 0x0 }
  - { offset: 0x101F49, size: 0x8, addend: 0x0, symName: __ZZL21ShowDemoWindowWidgetsvE13drag_and_drop, symObjAddr: 0x23E39, symBinAddr: 0x37E079, symSize: 0x0 }
  - { offset: 0x101F64, size: 0x8, addend: 0x0, symName: __ZZL21ShowDemoWindowWidgetsvE12options_menu, symObjAddr: 0x23E3A, symBinAddr: 0x37E07A, symSize: 0x0 }
  - { offset: 0x101F7F, size: 0x8, addend: 0x0, symName: __ZZL21ShowDemoWindowWidgetsvE3hdr, symObjAddr: 0x6814D, symBinAddr: 0x37EE8D, symSize: 0x0 }
  - { offset: 0x101F9A, size: 0x8, addend: 0x0, symName: __ZZL21ShowDemoWindowWidgetsvE18saved_palette_init, symObjAddr: 0x6814E, symBinAddr: 0x37EE8E, symSize: 0x0 }
  - { offset: 0x101FBC, size: 0x8, addend: 0x0, symName: __MergedGlobals, symObjAddr: 0x68320, symBinAddr: 0x37F060, symSize: 0x0 }
  - { offset: 0x101FDA, size: 0x8, addend: 0x0, symName: __MergedGlobals, symObjAddr: 0x68320, symBinAddr: 0x37F060, symSize: 0x0 }
  - { offset: 0x101FF8, size: 0x8, addend: 0x0, symName: __ZZL21ShowDemoWindowWidgetsvE9no_border, symObjAddr: 0x6814F, symBinAddr: 0x37EE8F, symSize: 0x0 }
  - { offset: 0x102013, size: 0x8, addend: 0x0, symName: __ZZL21ShowDemoWindowWidgetsvE5alpha, symObjAddr: 0x23E3B, symBinAddr: 0x37E07B, symSize: 0x0 }
  - { offset: 0x10202E, size: 0x8, addend: 0x0, symName: __ZZL21ShowDemoWindowWidgetsvE9alpha_bar, symObjAddr: 0x23E3C, symBinAddr: 0x37E07C, symSize: 0x0 }
  - { offset: 0x102049, size: 0x8, addend: 0x0, symName: __ZZL21ShowDemoWindowWidgetsvE12side_preview, symObjAddr: 0x23E3D, symBinAddr: 0x37E07D, symSize: 0x0 }
  - { offset: 0x102064, size: 0x8, addend: 0x0, symName: __ZZL21ShowDemoWindowWidgetsvE9ref_color, symObjAddr: 0x68150, symBinAddr: 0x37EE90, symSize: 0x0 }
  - { offset: 0x10207F, size: 0x8, addend: 0x0, symName: __MergedGlobals, symObjAddr: 0x68320, symBinAddr: 0x37F060, symSize: 0x0 }
  - { offset: 0x10209D, size: 0x8, addend: 0x0, symName: __ZZL21ShowDemoWindowWidgetsvE12display_mode, symObjAddr: 0x68154, symBinAddr: 0x37EE94, symSize: 0x0 }
  - { offset: 0x1020B8, size: 0x8, addend: 0x0, symName: __ZZL21ShowDemoWindowWidgetsvE11picker_mode, symObjAddr: 0x68158, symBinAddr: 0x37EE98, symSize: 0x0 }
  - { offset: 0x1020D3, size: 0x8, addend: 0x0, symName: __MergedGlobals, symObjAddr: 0x68320, symBinAddr: 0x37F060, symSize: 0x0 }
  - { offset: 0x1020F1, size: 0x8, addend: 0x0, symName: __ZZL21ShowDemoWindowWidgetsvE5flags_1, symObjAddr: 0x6815C, symBinAddr: 0x37EE9C, symSize: 0x0 }
  - { offset: 0x10210C, size: 0x8, addend: 0x0, symName: __ZZL21ShowDemoWindowWidgetsvE6drag_f, symObjAddr: 0x23E40, symBinAddr: 0x37E080, symSize: 0x0 }
  - { offset: 0x102127, size: 0x8, addend: 0x0, symName: __ZZL21ShowDemoWindowWidgetsvE6drag_i, symObjAddr: 0x23E44, symBinAddr: 0x37E084, symSize: 0x0 }
  - { offset: 0x102142, size: 0x8, addend: 0x0, symName: __ZZL21ShowDemoWindowWidgetsvE8slider_f, symObjAddr: 0x23E48, symBinAddr: 0x37E088, symSize: 0x0 }
  - { offset: 0x10215D, size: 0x8, addend: 0x0, symName: __ZZL21ShowDemoWindowWidgetsvE8slider_i, symObjAddr: 0x23E4C, symBinAddr: 0x37E08C, symSize: 0x0 }
  - { offset: 0x102178, size: 0x8, addend: 0x0, symName: __ZZL21ShowDemoWindowWidgetsvE5begin, symObjAddr: 0x23E50, symBinAddr: 0x37E090, symSize: 0x0 }
  - { offset: 0x102193, size: 0x8, addend: 0x0, symName: __ZZL21ShowDemoWindowWidgetsvE3end, symObjAddr: 0x23E54, symBinAddr: 0x37E094, symSize: 0x0 }
  - { offset: 0x1021AE, size: 0x8, addend: 0x0, symName: __ZZL21ShowDemoWindowWidgetsvE7begin_i, symObjAddr: 0x23E58, symBinAddr: 0x37E098, symSize: 0x0 }
  - { offset: 0x1021C9, size: 0x8, addend: 0x0, symName: __ZZL21ShowDemoWindowWidgetsvE5end_i, symObjAddr: 0x23E5C, symBinAddr: 0x37E09C, symSize: 0x0 }
  - { offset: 0x1021E4, size: 0x8, addend: 0x0, symName: __ZZL21ShowDemoWindowWidgetsvE4s8_v, symObjAddr: 0x23E60, symBinAddr: 0x37E0A0, symSize: 0x0 }
  - { offset: 0x1021FF, size: 0x8, addend: 0x0, symName: __ZZL21ShowDemoWindowWidgetsvE4u8_v, symObjAddr: 0x23E61, symBinAddr: 0x37E0A1, symSize: 0x0 }
  - { offset: 0x10221A, size: 0x8, addend: 0x0, symName: __ZZL21ShowDemoWindowWidgetsvE5s16_v, symObjAddr: 0x23E62, symBinAddr: 0x37E0A2, symSize: 0x0 }
  - { offset: 0x102235, size: 0x8, addend: 0x0, symName: __ZZL21ShowDemoWindowWidgetsvE5u16_v, symObjAddr: 0x23E64, symBinAddr: 0x37E0A4, symSize: 0x0 }
  - { offset: 0x102250, size: 0x8, addend: 0x0, symName: __ZZL21ShowDemoWindowWidgetsvE5s32_v, symObjAddr: 0x23E68, symBinAddr: 0x37E0A8, symSize: 0x0 }
  - { offset: 0x10226B, size: 0x8, addend: 0x0, symName: __ZZL21ShowDemoWindowWidgetsvE5u32_v, symObjAddr: 0x23E6C, symBinAddr: 0x37E0AC, symSize: 0x0 }
  - { offset: 0x102286, size: 0x8, addend: 0x0, symName: __ZZL21ShowDemoWindowWidgetsvE5s64_v, symObjAddr: 0x23E70, symBinAddr: 0x37E0B0, symSize: 0x0 }
  - { offset: 0x1022A1, size: 0x8, addend: 0x0, symName: __ZZL21ShowDemoWindowWidgetsvE5u64_v, symObjAddr: 0x23E78, symBinAddr: 0x37E0B8, symSize: 0x0 }
  - { offset: 0x1022BC, size: 0x8, addend: 0x0, symName: __ZZL21ShowDemoWindowWidgetsvE5f32_v, symObjAddr: 0x23E80, symBinAddr: 0x37E0C0, symSize: 0x0 }
  - { offset: 0x1022D7, size: 0x8, addend: 0x0, symName: __ZZL21ShowDemoWindowWidgetsvE5f64_v, symObjAddr: 0x23E88, symBinAddr: 0x37E0C8, symSize: 0x0 }
  - { offset: 0x1022F2, size: 0x8, addend: 0x0, symName: __ZZL21ShowDemoWindowWidgetsvE10drag_clamp, symObjAddr: 0x68160, symBinAddr: 0x37EEA0, symSize: 0x0 }
  - { offset: 0x10230D, size: 0x8, addend: 0x0, symName: __ZZL21ShowDemoWindowWidgetsvE11inputs_step, symObjAddr: 0x23E90, symBinAddr: 0x37E0D0, symSize: 0x0 }
  - { offset: 0x102328, size: 0x8, addend: 0x0, symName: __ZZL21ShowDemoWindowWidgetsvE5vec4f, symObjAddr: 0x23E94, symBinAddr: 0x37E0D4, symSize: 0x0 }
  - { offset: 0x102343, size: 0x8, addend: 0x0, symName: __ZZL21ShowDemoWindowWidgetsvE5vec4i, symObjAddr: 0x23EA4, symBinAddr: 0x37E0E4, symSize: 0x0 }
  - { offset: 0x10235E, size: 0x8, addend: 0x0, symName: __ZZL21ShowDemoWindowWidgetsvE9int_value, symObjAddr: 0x68164, symBinAddr: 0x37EEA4, symSize: 0x0 }
  - { offset: 0x102379, size: 0x8, addend: 0x0, symName: __ZZL21ShowDemoWindowWidgetsvE6values_0, symObjAddr: 0x23EB4, symBinAddr: 0x37E0F4, symSize: 0x0 }
  - { offset: 0x102394, size: 0x8, addend: 0x0, symName: __ZZL21ShowDemoWindowWidgetsvE7values2, symObjAddr: 0x23ED0, symBinAddr: 0x37E110, symSize: 0x0 }
  - { offset: 0x1023AF, size: 0x8, addend: 0x0, symName: __ZZL21ShowDemoWindowWidgetsvE4col1_0, symObjAddr: 0x23EE0, symBinAddr: 0x37E120, symSize: 0x0 }
  - { offset: 0x1023CA, size: 0x8, addend: 0x0, symName: __ZZL21ShowDemoWindowWidgetsvE4col2_0, symObjAddr: 0x23EEC, symBinAddr: 0x37E12C, symSize: 0x0 }
  - { offset: 0x1023E5, size: 0x8, addend: 0x0, symName: __ZZL21ShowDemoWindowWidgetsvE4mode, symObjAddr: 0x68168, symBinAddr: 0x37EEA8, symSize: 0x0 }
  - { offset: 0x102400, size: 0x8, addend: 0x0, symName: __ZZL21ShowDemoWindowWidgetsvE5names, symObjAddr: 0x23F00, symBinAddr: 0x37E140, symSize: 0x0 }
  - { offset: 0x10241B, size: 0x8, addend: 0x0, symName: __ZZL21ShowDemoWindowWidgetsvE10item_names, symObjAddr: 0x23F48, symBinAddr: 0x37E188, symSize: 0x0 }
  - { offset: 0x102436, size: 0x8, addend: 0x0, symName: __ZZL21ShowDemoWindowWidgetsvE9item_type, symObjAddr: 0x23F70, symBinAddr: 0x37E1B0, symSize: 0x0 }
  - { offset: 0x102451, size: 0x8, addend: 0x0, symName: __ZZL21ShowDemoWindowWidgetsvE1b, symObjAddr: 0x6816C, symBinAddr: 0x37EEAC, symSize: 0x0 }
  - { offset: 0x10246C, size: 0x8, addend: 0x0, symName: __ZZL21ShowDemoWindowWidgetsvE5col4f, symObjAddr: 0x23F74, symBinAddr: 0x37E1B4, symSize: 0x0 }
  - { offset: 0x102487, size: 0x8, addend: 0x0, symName: __ZZL21ShowDemoWindowWidgetsvE3str, symObjAddr: 0x6816D, symBinAddr: 0x37EEAD, symSize: 0x0 }
  - { offset: 0x1024A2, size: 0x8, addend: 0x0, symName: __ZZL21ShowDemoWindowWidgetsvE7current, symObjAddr: 0x23F84, symBinAddr: 0x37E1C4, symSize: 0x0 }
  - { offset: 0x1024BD, size: 0x8, addend: 0x0, symName: __ZZL21ShowDemoWindowWidgetsvE7current_0, symObjAddr: 0x23F88, symBinAddr: 0x37E1C8, symSize: 0x0 }
  - { offset: 0x1024D8, size: 0x8, addend: 0x0, symName: __ZZL21ShowDemoWindowWidgetsvE31embed_all_inside_a_child_window, symObjAddr: 0x6817D, symBinAddr: 0x37EEBD, symSize: 0x0 }
  - { offset: 0x1024F3, size: 0x8, addend: 0x0, symName: __ZZL21ShowDemoWindowWidgetsvE10unused_str, symObjAddr: 0x23F8C, symBinAddr: 0x37E1CC, symSize: 0x0 }
  - { offset: 0x10250E, size: 0x8, addend: 0x0, symName: __ZZL21ShowDemoWindowWidgetsvE11test_window, symObjAddr: 0x6817E, symBinAddr: 0x37EEBE, symSize: 0x0 }
  - { offset: 0x1068BE, size: 0x8, addend: 0x0, symName: __ZL20ShowDemoWindowLayoutv, symObjAddr: 0xAD98, symBinAddr: 0x3AEE8, symSize: 0x2170 }
  - { offset: 0x1068C6, size: 0x8, addend: 0x0, symName: __ZL20ShowDemoWindowTablesv, symObjAddr: 0xCF08, symBinAddr: 0x3D058, symSize: 0x48A4 }
  - { offset: 0x1068EE, size: 0x8, addend: 0x0, symName: __ZZL20ShowDemoWindowLayoutvE19disable_mouse_wheel, symObjAddr: 0x6817F, symBinAddr: 0x37EEBF, symSize: 0x0 }
  - { offset: 0x106909, size: 0x8, addend: 0x0, symName: __ZZL20ShowDemoWindowLayoutvE12disable_menu, symObjAddr: 0x68180, symBinAddr: 0x37EEC0, symSize: 0x0 }
  - { offset: 0x106924, size: 0x8, addend: 0x0, symName: __ZZL20ShowDemoWindowLayoutvE8offset_x, symObjAddr: 0x68184, symBinAddr: 0x37EEC4, symSize: 0x0 }
  - { offset: 0x10693F, size: 0x8, addend: 0x0, symName: __ZZL20ShowDemoWindowLayoutvE1f, symObjAddr: 0x68188, symBinAddr: 0x37EEC8, symSize: 0x0 }
  - { offset: 0x10695A, size: 0x8, addend: 0x0, symName: __ZZL20ShowDemoWindowLayoutvE19show_indented_items, symObjAddr: 0x23FD1, symBinAddr: 0x37E211, symSize: 0x0 }
  - { offset: 0x106975, size: 0x8, addend: 0x0, symName: __ZZL20ShowDemoWindowLayoutvE2c1, symObjAddr: 0x6818C, symBinAddr: 0x37EECC, symSize: 0x0 }
  - { offset: 0x106990, size: 0x8, addend: 0x0, symName: __ZZL20ShowDemoWindowLayoutvE2c2, symObjAddr: 0x6818D, symBinAddr: 0x37EECD, symSize: 0x0 }
  - { offset: 0x1069AB, size: 0x8, addend: 0x0, symName: __ZZL20ShowDemoWindowLayoutvE2c3, symObjAddr: 0x6818E, symBinAddr: 0x37EECE, symSize: 0x0 }
  - { offset: 0x1069C6, size: 0x8, addend: 0x0, symName: __ZZL20ShowDemoWindowLayoutvE2c4, symObjAddr: 0x6818F, symBinAddr: 0x37EECF, symSize: 0x0 }
  - { offset: 0x1069E1, size: 0x8, addend: 0x0, symName: __ZZL20ShowDemoWindowLayoutvE2f0, symObjAddr: 0x23FD4, symBinAddr: 0x37E214, symSize: 0x0 }
  - { offset: 0x1069FC, size: 0x8, addend: 0x0, symName: __ZZL20ShowDemoWindowLayoutvE2f1, symObjAddr: 0x23FD8, symBinAddr: 0x37E218, symSize: 0x0 }
  - { offset: 0x106A17, size: 0x8, addend: 0x0, symName: __ZZL20ShowDemoWindowLayoutvE2f2, symObjAddr: 0x23FDC, symBinAddr: 0x37E21C, symSize: 0x0 }
  - { offset: 0x106A32, size: 0x8, addend: 0x0, symName: __ZZL20ShowDemoWindowLayoutvE4item, symObjAddr: 0x23FE0, symBinAddr: 0x37E220, symSize: 0x0 }
  - { offset: 0x106A4D, size: 0x8, addend: 0x0, symName: __ZZL20ShowDemoWindowLayoutvE9selection, symObjAddr: 0x23FE4, symBinAddr: 0x37E224, symSize: 0x0 }
  - { offset: 0x106A68, size: 0x8, addend: 0x0, symName: __ZZL20ShowDemoWindowLayoutvE10track_item, symObjAddr: 0x23FF4, symBinAddr: 0x37E234, symSize: 0x0 }
  - { offset: 0x106A83, size: 0x8, addend: 0x0, symName: __ZZL20ShowDemoWindowLayoutvE12enable_track, symObjAddr: 0x23FF8, symBinAddr: 0x37E238, symSize: 0x0 }
  - { offset: 0x106A9E, size: 0x8, addend: 0x0, symName: __ZZL20ShowDemoWindowLayoutvE24enable_extra_decorations, symObjAddr: 0x68190, symBinAddr: 0x37EED0, symSize: 0x0 }
  - { offset: 0x106AB9, size: 0x8, addend: 0x0, symName: __ZZL20ShowDemoWindowLayoutvE16scroll_to_off_px, symObjAddr: 0x68194, symBinAddr: 0x37EED4, symSize: 0x0 }
  - { offset: 0x106AD4, size: 0x8, addend: 0x0, symName: __ZZL20ShowDemoWindowLayoutvE16scroll_to_pos_px, symObjAddr: 0x23FFC, symBinAddr: 0x37E23C, symSize: 0x0 }
  - { offset: 0x106AEF, size: 0x8, addend: 0x0, symName: __ZZL20ShowDemoWindowLayoutvE5lines, symObjAddr: 0x24000, symBinAddr: 0x37E240, symSize: 0x0 }
  - { offset: 0x106B0A, size: 0x8, addend: 0x0, symName: __ZZL20ShowDemoWindowLayoutvE41show_horizontal_contents_size_demo_window, symObjAddr: 0x68198, symBinAddr: 0x37EED8, symSize: 0x0 }
  - { offset: 0x106B25, size: 0x8, addend: 0x0, symName: __ZZL20ShowDemoWindowLayoutvE16show_h_scrollbar, symObjAddr: 0x24004, symBinAddr: 0x37E244, symSize: 0x0 }
  - { offset: 0x106B40, size: 0x8, addend: 0x0, symName: __ZZL20ShowDemoWindowLayoutvE11show_button, symObjAddr: 0x24005, symBinAddr: 0x37E245, symSize: 0x0 }
  - { offset: 0x106B5B, size: 0x8, addend: 0x0, symName: __ZZL20ShowDemoWindowLayoutvE15show_tree_nodes, symObjAddr: 0x24006, symBinAddr: 0x37E246, symSize: 0x0 }
  - { offset: 0x106B76, size: 0x8, addend: 0x0, symName: __ZZL20ShowDemoWindowLayoutvE17show_text_wrapped, symObjAddr: 0x68199, symBinAddr: 0x37EED9, symSize: 0x0 }
  - { offset: 0x106B91, size: 0x8, addend: 0x0, symName: __ZZL20ShowDemoWindowLayoutvE12show_columns, symObjAddr: 0x24007, symBinAddr: 0x37E247, symSize: 0x0 }
  - { offset: 0x106BAC, size: 0x8, addend: 0x0, symName: __ZZL20ShowDemoWindowLayoutvE12show_tab_bar, symObjAddr: 0x24008, symBinAddr: 0x37E248, symSize: 0x0 }
  - { offset: 0x106BC7, size: 0x8, addend: 0x0, symName: __ZZL20ShowDemoWindowLayoutvE10show_child, symObjAddr: 0x6819A, symBinAddr: 0x37EEDA, symSize: 0x0 }
  - { offset: 0x106BE2, size: 0x8, addend: 0x0, symName: __ZZL20ShowDemoWindowLayoutvE21explicit_content_size, symObjAddr: 0x6819B, symBinAddr: 0x37EEDB, symSize: 0x0 }
  - { offset: 0x106BFD, size: 0x8, addend: 0x0, symName: __ZZL20ShowDemoWindowLayoutvE15contents_size_x, symObjAddr: 0x2400C, symBinAddr: 0x37E24C, symSize: 0x0 }
  - { offset: 0x106C18, size: 0x8, addend: 0x0, symName: __MergedGlobals, symObjAddr: 0x68320, symBinAddr: 0x37F060, symSize: 0x0 }
  - { offset: 0x106C35, size: 0x8, addend: 0x0, symName: __MergedGlobals, symObjAddr: 0x68320, symBinAddr: 0x37F060, symSize: 0x0 }
  - { offset: 0x106C40, size: 0x8, addend: 0x0, symName: __MergedGlobals, symObjAddr: 0x68320, symBinAddr: 0x37F060, symSize: 0x0 }
  - { offset: 0x108F7A, size: 0x8, addend: 0x0, symName: __ZL20ShowDemoWindowTablesv, symObjAddr: 0xCF08, symBinAddr: 0x3D058, symSize: 0x48A4 }
  - { offset: 0x108F82, size: 0x8, addend: 0x0, symName: __ZN5ImGui17ShowStyleSelectorEPKc, symObjAddr: 0x117AC, symBinAddr: 0x418FC, symSize: 0x78 }
  - { offset: 0x108FAA, size: 0x8, addend: 0x0, symName: __ZZL20ShowDemoWindowTablesvE14disable_indent, symObjAddr: 0x6819D, symBinAddr: 0x37EEDD, symSize: 0x0 }
  - { offset: 0x108FC5, size: 0x8, addend: 0x0, symName: __ZZL20ShowDemoWindowTablesvE5flags, symObjAddr: 0x24054, symBinAddr: 0x37E294, symSize: 0x0 }
  - { offset: 0x108FE0, size: 0x8, addend: 0x0, symName: __ZZL20ShowDemoWindowTablesvE15display_headers, symObjAddr: 0x6819E, symBinAddr: 0x37EEDE, symSize: 0x0 }
  - { offset: 0x108FFB, size: 0x8, addend: 0x0, symName: __ZZL20ShowDemoWindowTablesvE13contents_type, symObjAddr: 0x681A0, symBinAddr: 0x37EEE0, symSize: 0x0 }
  - { offset: 0x109016, size: 0x8, addend: 0x0, symName: __ZZL20ShowDemoWindowTablesvE5flags_0, symObjAddr: 0x24058, symBinAddr: 0x37E298, symSize: 0x0 }
  - { offset: 0x109031, size: 0x8, addend: 0x0, symName: __ZZL20ShowDemoWindowTablesvE5flags_1, symObjAddr: 0x2405C, symBinAddr: 0x37E29C, symSize: 0x0 }
  - { offset: 0x10905F, size: 0x8, addend: 0x0, symName: __ZZL20ShowDemoWindowTablesvE5flags_3, symObjAddr: 0x24060, symBinAddr: 0x37E2A0, symSize: 0x0 }
  - { offset: 0x10907A, size: 0x8, addend: 0x0, symName: __ZZL20ShowDemoWindowTablesvE6flags1, symObjAddr: 0x24064, symBinAddr: 0x37E2A4, symSize: 0x0 }
  - { offset: 0x109095, size: 0x8, addend: 0x0, symName: __ZZL20ShowDemoWindowTablesvE12show_headers, symObjAddr: 0x681A4, symBinAddr: 0x37EEE4, symSize: 0x0 }
  - { offset: 0x1090B0, size: 0x8, addend: 0x0, symName: __ZZL20ShowDemoWindowTablesvE6flags2, symObjAddr: 0x24068, symBinAddr: 0x37E2A8, symSize: 0x0 }
  - { offset: 0x1090CB, size: 0x8, addend: 0x0, symName: __MergedGlobals, symObjAddr: 0x68320, symBinAddr: 0x37F060, symSize: 0x0 }
  - { offset: 0x1090E8, size: 0x8, addend: 0x0, symName: __ZZL20ShowDemoWindowTablesvE20show_widget_frame_bg, symObjAddr: 0x2406C, symBinAddr: 0x37E2AC, symSize: 0x0 }
  - { offset: 0x109103, size: 0x8, addend: 0x0, symName: __ZZL20ShowDemoWindowTablesvE9text_bufs, symObjAddr: 0x681A5, symBinAddr: 0x37EEE5, symSize: 0x0 }
  - { offset: 0x10911E, size: 0x8, addend: 0x0, symName: __ZZL20ShowDemoWindowTablesvE4init, symObjAddr: 0x68295, symBinAddr: 0x37EFD5, symSize: 0x0 }
  - { offset: 0x109140, size: 0x8, addend: 0x0, symName: __ZZL20ShowDemoWindowTablesvE6flags1_0, symObjAddr: 0x24070, symBinAddr: 0x37E2B0, symSize: 0x0 }
  - { offset: 0x10915B, size: 0x8, addend: 0x0, symName: __ZZL20ShowDemoWindowTablesvE19sizing_policy_flags, symObjAddr: 0x24074, symBinAddr: 0x37E2B4, symSize: 0x0 }
  - { offset: 0x109176, size: 0x8, addend: 0x0, symName: __ZZL20ShowDemoWindowTablesvE5flags_4, symObjAddr: 0x24084, symBinAddr: 0x37E2C4, symSize: 0x0 }
  - { offset: 0x109191, size: 0x8, addend: 0x0, symName: __ZZL20ShowDemoWindowTablesvE13contents_type_0, symObjAddr: 0x68298, symBinAddr: 0x37EFD8, symSize: 0x0 }
  - { offset: 0x1091AC, size: 0x8, addend: 0x0, symName: __ZZL20ShowDemoWindowTablesvE12column_count, symObjAddr: 0x24088, symBinAddr: 0x37E2C8, symSize: 0x0 }
  - { offset: 0x1091C7, size: 0x8, addend: 0x0, symName: __ZZL20ShowDemoWindowTablesvE8text_buf, symObjAddr: 0x6829C, symBinAddr: 0x37EFDC, symSize: 0x0 }
  - { offset: 0x1091E2, size: 0x8, addend: 0x0, symName: __ZZL20ShowDemoWindowTablesvE5flags_5, symObjAddr: 0x2408C, symBinAddr: 0x37E2CC, symSize: 0x0 }
  - { offset: 0x1091FD, size: 0x8, addend: 0x0, symName: __ZZL20ShowDemoWindowTablesvE5flags_6, symObjAddr: 0x24090, symBinAddr: 0x37E2D0, symSize: 0x0 }
  - { offset: 0x109218, size: 0x8, addend: 0x0, symName: __ZZL20ShowDemoWindowTablesvE11freeze_cols, symObjAddr: 0x24094, symBinAddr: 0x37E2D4, symSize: 0x0 }
  - { offset: 0x109233, size: 0x8, addend: 0x0, symName: __ZZL20ShowDemoWindowTablesvE11freeze_rows, symObjAddr: 0x24098, symBinAddr: 0x37E2D8, symSize: 0x0 }
  - { offset: 0x10924E, size: 0x8, addend: 0x0, symName: __ZZL20ShowDemoWindowTablesvE6flags2_0, symObjAddr: 0x2409C, symBinAddr: 0x37E2DC, symSize: 0x0 }
  - { offset: 0x109269, size: 0x8, addend: 0x0, symName: __ZZL20ShowDemoWindowTablesvE11inner_width, symObjAddr: 0x240A0, symBinAddr: 0x37E2E0, symSize: 0x0 }
  - { offset: 0x109284, size: 0x8, addend: 0x0, symName: __ZZL20ShowDemoWindowTablesvE12column_flags, symObjAddr: 0x240A4, symBinAddr: 0x37E2E4, symSize: 0x0 }
  - { offset: 0x10929F, size: 0x8, addend: 0x0, symName: __ZZL20ShowDemoWindowTablesvE16column_flags_out, symObjAddr: 0x682BC, symBinAddr: 0x37EFFC, symSize: 0x0 }
  - { offset: 0x1092BA, size: 0x8, addend: 0x0, symName: __ZZL20ShowDemoWindowTablesvE6flags1_1, symObjAddr: 0x240B0, symBinAddr: 0x37E2F0, symSize: 0x0 }
  - { offset: 0x1092D5, size: 0x8, addend: 0x0, symName: __ZZL20ShowDemoWindowTablesvE6flags2_1, symObjAddr: 0x682C8, symBinAddr: 0x37F008, symSize: 0x0 }
  - { offset: 0x1092F0, size: 0x8, addend: 0x0, symName: __ZZL20ShowDemoWindowTablesvE5flags_7, symObjAddr: 0x240B4, symBinAddr: 0x37E2F4, symSize: 0x0 }
  - { offset: 0x10930B, size: 0x8, addend: 0x0, symName: __ZZL20ShowDemoWindowTablesvE5flags_8, symObjAddr: 0x240B8, symBinAddr: 0x37E2F8, symSize: 0x0 }
  - { offset: 0x109326, size: 0x8, addend: 0x0, symName: __ZZL20ShowDemoWindowTablesvE11row_bg_type, symObjAddr: 0x240BC, symBinAddr: 0x37E2FC, symSize: 0x0 }
  - { offset: 0x109341, size: 0x8, addend: 0x0, symName: __ZZL20ShowDemoWindowTablesvE13row_bg_target, symObjAddr: 0x240C0, symBinAddr: 0x37E300, symSize: 0x0 }
  - { offset: 0x10935C, size: 0x8, addend: 0x0, symName: __ZZL20ShowDemoWindowTablesvE12cell_bg_type, symObjAddr: 0x240C4, symBinAddr: 0x37E304, symSize: 0x0 }
  - { offset: 0x10938A, size: 0x8, addend: 0x0, symName: __ZZL20ShowDemoWindowTablesvE5nodes, symObjAddr: 0x24660, symBinAddr: 0xEDD38, symSize: 0x0 }
  - { offset: 0x10942C, size: 0x8, addend: 0x0, symName: __ZZL20ShowDemoWindowTablesvE7dummy_f, symObjAddr: 0x682CC, symBinAddr: 0x37F00C, symSize: 0x0 }
  - { offset: 0x109447, size: 0x8, addend: 0x0, symName: __ZZL20ShowDemoWindowTablesvE15column_selected, symObjAddr: 0x682D0, symBinAddr: 0x37F010, symSize: 0x0 }
  - { offset: 0x109462, size: 0x8, addend: 0x0, symName: __ZZL20ShowDemoWindowTablesvE6flags1_2, symObjAddr: 0x240C8, symBinAddr: 0x37E308, symSize: 0x0 }
  - { offset: 0x10947D, size: 0x8, addend: 0x0, symName: __ZZL20ShowDemoWindowTablesvE20template_items_names, symObjAddr: 0x24780, symBinAddr: 0xEDE58, symSize: 0x0 }
  - { offset: 0x109498, size: 0x8, addend: 0x0, symName: __MergedGlobals, symObjAddr: 0x68320, symBinAddr: 0x37F060, symSize: 0x0 }
  - { offset: 0x1094B6, size: 0x8, addend: 0x0, symName: __ZZL20ShowDemoWindowTablesvE5flags__10_, symObjAddr: 0x240CC, symBinAddr: 0x37E30C, symSize: 0x0 }
  - { offset: 0x1094D1, size: 0x8, addend: 0x0, symName: __ZZL20ShowDemoWindowTablesvE5flags__11_, symObjAddr: 0x240D0, symBinAddr: 0x37E310, symSize: 0x0 }
  - { offset: 0x1094EC, size: 0x8, addend: 0x0, symName: __ZZL20ShowDemoWindowTablesvE13contents_type_1, symObjAddr: 0x240D4, symBinAddr: 0x37E314, symSize: 0x0 }
  - { offset: 0x109507, size: 0x8, addend: 0x0, symName: __ZZL20ShowDemoWindowTablesvE11freeze_cols_0, symObjAddr: 0x240D8, symBinAddr: 0x37E318, symSize: 0x0 }
  - { offset: 0x109522, size: 0x8, addend: 0x0, symName: __ZZL20ShowDemoWindowTablesvE11freeze_rows_0, symObjAddr: 0x240DC, symBinAddr: 0x37E31C, symSize: 0x0 }
  - { offset: 0x10953D, size: 0x8, addend: 0x0, symName: __ZZL20ShowDemoWindowTablesvE11items_count, symObjAddr: 0x240E0, symBinAddr: 0x37E320, symSize: 0x0 }
  - { offset: 0x109558, size: 0x8, addend: 0x0, symName: __MergedGlobals, symObjAddr: 0x68320, symBinAddr: 0x37F060, symSize: 0x0 }
  - { offset: 0x109576, size: 0x8, addend: 0x0, symName: __ZZL20ShowDemoWindowTablesvE14row_min_height, symObjAddr: 0x682E0, symBinAddr: 0x37F020, symSize: 0x0 }
  - { offset: 0x109591, size: 0x8, addend: 0x0, symName: __ZZL20ShowDemoWindowTablesvE23inner_width_with_scroll, symObjAddr: 0x682E4, symBinAddr: 0x37F024, symSize: 0x0 }
  - { offset: 0x1095AC, size: 0x8, addend: 0x0, symName: __ZZL20ShowDemoWindowTablesvE18outer_size_enabled, symObjAddr: 0x240E4, symBinAddr: 0x37E324, symSize: 0x0 }
  - { offset: 0x1095C7, size: 0x8, addend: 0x0, symName: __ZZL20ShowDemoWindowTablesvE12show_headers_0, symObjAddr: 0x240E5, symBinAddr: 0x37E325, symSize: 0x0 }
  - { offset: 0x1095E2, size: 0x8, addend: 0x0, symName: __ZZL20ShowDemoWindowTablesvE17show_wrapped_text, symObjAddr: 0x682E8, symBinAddr: 0x37F028, symSize: 0x0 }
  - { offset: 0x1095FD, size: 0x8, addend: 0x0, symName: __MergedGlobals, symObjAddr: 0x68320, symBinAddr: 0x37F060, symSize: 0x0 }
  - { offset: 0x10961B, size: 0x8, addend: 0x0, symName: __MergedGlobals, symObjAddr: 0x68320, symBinAddr: 0x37F060, symSize: 0x0 }
  - { offset: 0x109639, size: 0x8, addend: 0x0, symName: __ZZL20ShowDemoWindowTablesvE15items_need_sort, symObjAddr: 0x682E9, symBinAddr: 0x37F029, symSize: 0x0 }
  - { offset: 0x10965A, size: 0x8, addend: 0x0, symName: __ZZL20ShowDemoWindowTablesvE18show_debug_details, symObjAddr: 0x682EA, symBinAddr: 0x37F02A, symSize: 0x0 }
  - { offset: 0x10CF78, size: 0x8, addend: 0x0, symName: __ZN12_GLOBAL__N_16MyItem20s_current_sort_specsE, symObjAddr: 0x682D8, symBinAddr: 0x37F018, symSize: 0x0 }
  - { offset: 0x10D116, size: 0x8, addend: 0x0, symName: __ZL20EditTableSizingFlagsPi, symObjAddr: 0x11CD0, symBinAddr: 0x41E20, symSize: 0x18C }
  - { offset: 0x10D11E, size: 0x8, addend: 0x0, symName: __ZZL20ShowDemoWindowTablesvEN10MyTreeNode11DisplayNodeEPKS_S1_, symObjAddr: 0x11E5C, symBinAddr: 0x41FAC, symSize: 0x108 }
  - { offset: 0x10D146, size: 0x8, addend: 0x0, symName: __ZZL20EditTableSizingFlagsPiE8policies, symObjAddr: 0x24828, symBinAddr: 0xEDF00, symSize: 0x0 }
  - { offset: 0x10D2A7, size: 0x8, addend: 0x0, symName: __ZL19ShowExampleMenuFilev, symObjAddr: 0x5D0C, symBinAddr: 0x35E5C, symSize: 0x394 }
  - { offset: 0x10D2AF, size: 0x8, addend: 0x0, symName: __ZL10HelpMarkerPKc, symObjAddr: 0x60A0, symBinAddr: 0x361F0, symSize: 0x68 }
  - { offset: 0x10D2D7, size: 0x8, addend: 0x0, symName: __ZZL19ShowExampleMenuFilevE7enabled, symObjAddr: 0x2419C, symBinAddr: 0x37E3DC, symSize: 0x0 }
  - { offset: 0x10D2F2, size: 0x8, addend: 0x0, symName: __ZZL19ShowExampleMenuFilevE1f, symObjAddr: 0x241A0, symBinAddr: 0x37E3E0, symSize: 0x0 }
  - { offset: 0x10D30D, size: 0x8, addend: 0x0, symName: __ZZL19ShowExampleMenuFilevE1n, symObjAddr: 0x682F8, symBinAddr: 0x37F038, symSize: 0x0 }
  - { offset: 0x10D328, size: 0x8, addend: 0x0, symName: __ZZL19ShowExampleMenuFilevE1b, symObjAddr: 0x241A4, symBinAddr: 0x37E3E4, symSize: 0x0 }
  - { offset: 0x10E8C6, size: 0x8, addend: 0x0, symName: __ZL21ShowPlaceholderObjectPKci, symObjAddr: 0x1359C, symBinAddr: 0x436EC, symSize: 0x1A0 }
  - { offset: 0x10E8CE, size: 0x8, addend: 0x0, symName: __ZZL31ShowExampleAppConstrainedResizePbEN17CustomConstraints6SquareEP21ImGuiSizeCallbackData, symObjAddr: 0x1373C, symBinAddr: 0x4388C, symSize: 0x14 }
  - { offset: 0x10E8F6, size: 0x8, addend: 0x0, symName: __ZZL21ShowPlaceholderObjectPKciE19placeholder_members, symObjAddr: 0x241A8, symBinAddr: 0x37E3E8, symSize: 0x0 }
  - { offset: 0x110CF9, size: 0x8, addend: 0x0, symName: __ZL10HelpMarkerPKc, symObjAddr: 0x60A0, symBinAddr: 0x361F0, symSize: 0x68 }
  - { offset: 0x110D01, size: 0x8, addend: 0x0, symName: __ZL21ShowDemoWindowWidgetsv, symObjAddr: 0x6108, symBinAddr: 0x36258, symSize: 0x4C90 }
  - { offset: 0x1114B4, size: 0x8, addend: 0x0, symName: __ZN15ImGuiTextFilterD1Ev, symObjAddr: 0x11918, symBinAddr: 0x41A68, symSize: 0x2C }
  - { offset: 0x1114BC, size: 0x8, addend: 0x0, symName: __ZZL21ShowDemoWindowWidgetsvEN5Funcs10ItemGetterEPviPPKc, symObjAddr: 0x11944, symBinAddr: 0x41A94, symSize: 0x10 }
  - { offset: 0x111559, size: 0x8, addend: 0x0, symName: __ZZL21ShowDemoWindowWidgetsvEN5Funcs10ItemGetterEPviPPKc, symObjAddr: 0x11944, symBinAddr: 0x41A94, symSize: 0x10 }
  - { offset: 0x111561, size: 0x8, addend: 0x0, symName: __ZZL21ShowDemoWindowWidgetsvEN11TextFilters18FilterImGuiLettersEP26ImGuiInputTextCallbackData, symObjAddr: 0x11954, symBinAddr: 0x41AA4, symSize: 0x40 }
  - { offset: 0x1115E6, size: 0x8, addend: 0x0, symName: __ZZL21ShowDemoWindowWidgetsvEN11TextFilters18FilterImGuiLettersEP26ImGuiInputTextCallbackData, symObjAddr: 0x11954, symBinAddr: 0x41AA4, symSize: 0x40 }
  - { offset: 0x1115EE, size: 0x8, addend: 0x0, symName: __ZZL21ShowDemoWindowWidgetsvEN5Funcs10MyCallbackE_0P26ImGuiInputTextCallbackData, symObjAddr: 0x11994, symBinAddr: 0x41AE4, symSize: 0xF4 }
  - { offset: 0x11166E, size: 0x8, addend: 0x0, symName: __ZZL21ShowDemoWindowWidgetsvEN5Funcs10MyCallbackE_0P26ImGuiInputTextCallbackData, symObjAddr: 0x11994, symBinAddr: 0x41AE4, symSize: 0xF4 }
  - { offset: 0x111676, size: 0x8, addend: 0x0, symName: __ZN8ImVectorIcED1Ev, symObjAddr: 0x11A88, symBinAddr: 0x41BD8, symSize: 0x2C }
  - { offset: 0x111716, size: 0x8, addend: 0x0, symName: __ZN8ImVectorIcED1Ev, symObjAddr: 0x11A88, symBinAddr: 0x41BD8, symSize: 0x2C }
  - { offset: 0x11171E, size: 0x8, addend: 0x0, symName: __ZN8ImVectorIiED1Ev, symObjAddr: 0x11AB4, symBinAddr: 0x41C04, symSize: 0x2C }
  - { offset: 0x11178E, size: 0x8, addend: 0x0, symName: __ZN8ImVectorIiED1Ev, symObjAddr: 0x11AB4, symBinAddr: 0x41C04, symSize: 0x2C }
  - { offset: 0x111796, size: 0x8, addend: 0x0, symName: __ZN8ImVectorIiE9push_backERKi, symObjAddr: 0x11AE0, symBinAddr: 0x41C30, symSize: 0xA4 }
  - { offset: 0x1117E5, size: 0x8, addend: 0x0, symName: __ZN8ImVectorIiE9push_backERKi, symObjAddr: 0x11AE0, symBinAddr: 0x41C30, symSize: 0xA4 }
  - { offset: 0x1117ED, size: 0x8, addend: 0x0, symName: __ZZL21ShowDemoWindowWidgetsvEN5Funcs3SinE_2Pvi, symObjAddr: 0x11B84, symBinAddr: 0x41CD4, symSize: 0x14 }
  - { offset: 0x1118A2, size: 0x8, addend: 0x0, symName: __ZZL21ShowDemoWindowWidgetsvEN5Funcs3SinE_2Pvi, symObjAddr: 0x11B84, symBinAddr: 0x41CD4, symSize: 0x14 }
  - { offset: 0x1118AA, size: 0x8, addend: 0x0, symName: __ZZL21ShowDemoWindowWidgetsvEN5Funcs3SawE_2Pvi, symObjAddr: 0x11B98, symBinAddr: 0x41CE8, symSize: 0x14 }
  - { offset: 0x1118E2, size: 0x8, addend: 0x0, symName: __ZZL21ShowDemoWindowWidgetsvEN5Funcs3SawE_2Pvi, symObjAddr: 0x11B98, symBinAddr: 0x41CE8, symSize: 0x14 }
  - { offset: 0x1118EA, size: 0x8, addend: 0x0, symName: __ZZL21ShowDemoWindowWidgetsvEN5Funcs16MyResizeCallbackE_1P26ImGuiInputTextCallbackData, symObjAddr: 0x11BAC, symBinAddr: 0x41CFC, symSize: 0xAC }
  - { offset: 0x11198C, size: 0x8, addend: 0x0, symName: __ZZL21ShowDemoWindowWidgetsvEN5Funcs16MyResizeCallbackE_1P26ImGuiInputTextCallbackData, symObjAddr: 0x11BAC, symBinAddr: 0x41CFC, symSize: 0xAC }
  - { offset: 0x111994, size: 0x8, addend: 0x0, symName: __ZL16PushStyleCompactv, symObjAddr: 0x11C58, symBinAddr: 0x41DA8, symSize: 0x78 }
  - { offset: 0x111AA6, size: 0x8, addend: 0x0, symName: __ZL16PushStyleCompactv, symObjAddr: 0x11C58, symBinAddr: 0x41DA8, symSize: 0x78 }
  - { offset: 0x111AAE, size: 0x8, addend: 0x0, symName: __ZL20EditTableSizingFlagsPi, symObjAddr: 0x11CD0, symBinAddr: 0x41E20, symSize: 0x18C }
  - { offset: 0x111BD4, size: 0x8, addend: 0x0, symName: __ZZL20ShowDemoWindowTablesvEN10MyTreeNode11DisplayNodeEPKS_S1_, symObjAddr: 0x11E5C, symBinAddr: 0x41FAC, symSize: 0x108 }
  - { offset: 0x111BDC, size: 0x8, addend: 0x0, symName: __ZN8ImVectorIN12_GLOBAL__N_16MyItemEED1Ev, symObjAddr: 0x11F64, symBinAddr: 0x420B4, symSize: 0x2C }
  - { offset: 0x111C91, size: 0x8, addend: 0x0, symName: __ZN8ImVectorIN12_GLOBAL__N_16MyItemEED1Ev, symObjAddr: 0x11F64, symBinAddr: 0x420B4, symSize: 0x2C }
  - { offset: 0x111C99, size: 0x8, addend: 0x0, symName: __ZN12_GLOBAL__N_16MyItem20CompareWithSortSpecsEPKvS2_, symObjAddr: 0x11F90, symBinAddr: 0x420E0, symSize: 0xE0 }
  - { offset: 0x111CF0, size: 0x8, addend: 0x0, symName: __ZN12_GLOBAL__N_16MyItem20CompareWithSortSpecsEPKvS2_, symObjAddr: 0x11F90, symBinAddr: 0x420E0, symSize: 0xE0 }
  - { offset: 0x111CF8, size: 0x8, addend: 0x0, symName: __ZN17ExampleAppConsoleD1Ev, symObjAddr: 0x12070, symBinAddr: 0x421C0, symSize: 0x4 }
  - { offset: 0x111DA0, size: 0x8, addend: 0x0, symName: __ZN17ExampleAppConsoleD1Ev, symObjAddr: 0x12070, symBinAddr: 0x421C0, symSize: 0x4 }
  - { offset: 0x111DA8, size: 0x8, addend: 0x0, symName: __ZN17ExampleAppConsole4DrawEPKcPb, symObjAddr: 0x12074, symBinAddr: 0x421C4, symSize: 0x420 }
  - { offset: 0x111EAC, size: 0x8, addend: 0x0, symName: __ZN17ExampleAppConsole4DrawEPKcPb, symObjAddr: 0x12074, symBinAddr: 0x421C4, symSize: 0x420 }
  - { offset: 0x111EB4, size: 0x8, addend: 0x0, symName: __ZN17ExampleAppConsoleC2Ev, symObjAddr: 0x12494, symBinAddr: 0x425E4, symSize: 0x2A4 }
  - { offset: 0x112423, size: 0x8, addend: 0x0, symName: __ZN17ExampleAppConsoleC2Ev, symObjAddr: 0x12494, symBinAddr: 0x425E4, symSize: 0x2A4 }
  - { offset: 0x11242B, size: 0x8, addend: 0x0, symName: __ZN17ExampleAppConsole8ClearLogEv, symObjAddr: 0x12738, symBinAddr: 0x42888, symSize: 0x5C }
  - { offset: 0x112718, size: 0x8, addend: 0x0, symName: __ZN17ExampleAppConsole8ClearLogEv, symObjAddr: 0x12738, symBinAddr: 0x42888, symSize: 0x5C }
  - { offset: 0x112720, size: 0x8, addend: 0x0, symName: __ZN17ExampleAppConsole6AddLogEPKcz, symObjAddr: 0x12794, symBinAddr: 0x428E4, symSize: 0x124 }
  - { offset: 0x1128B4, size: 0x8, addend: 0x0, symName: __ZN17ExampleAppConsole6AddLogEPKcz, symObjAddr: 0x12794, symBinAddr: 0x428E4, symSize: 0x124 }
  - { offset: 0x1128BC, size: 0x8, addend: 0x0, symName: __ZN17ExampleAppConsoleD2Ev, symObjAddr: 0x128B8, symBinAddr: 0x42A08, symSize: 0x80 }
  - { offset: 0x112AA4, size: 0x8, addend: 0x0, symName: __ZN17ExampleAppConsoleD2Ev, symObjAddr: 0x128B8, symBinAddr: 0x42A08, symSize: 0x80 }
  - { offset: 0x112AAC, size: 0x8, addend: 0x0, symName: __ZN17ExampleAppConsole20TextEditCallbackStubEP26ImGuiInputTextCallbackData, symObjAddr: 0x12938, symBinAddr: 0x42A88, symSize: 0xC }
  - { offset: 0x112CB8, size: 0x8, addend: 0x0, symName: __ZN17ExampleAppConsole20TextEditCallbackStubEP26ImGuiInputTextCallbackData, symObjAddr: 0x12938, symBinAddr: 0x42A88, symSize: 0xC }
  - { offset: 0x112CC0, size: 0x8, addend: 0x0, symName: __ZN17ExampleAppConsole11ExecCommandEPKc, symObjAddr: 0x12944, symBinAddr: 0x42A94, symSize: 0x26C }
  - { offset: 0x112D83, size: 0x8, addend: 0x0, symName: __ZN17ExampleAppConsole11ExecCommandEPKc, symObjAddr: 0x12944, symBinAddr: 0x42A94, symSize: 0x26C }
  - { offset: 0x112D8B, size: 0x8, addend: 0x0, symName: __ZN17ExampleAppConsole16TextEditCallbackEP26ImGuiInputTextCallbackData, symObjAddr: 0x12BB0, symBinAddr: 0x42D00, symSize: 0x384 }
  - { offset: 0x113078, size: 0x8, addend: 0x0, symName: __ZN17ExampleAppConsole16TextEditCallbackEP26ImGuiInputTextCallbackData, symObjAddr: 0x12BB0, symBinAddr: 0x42D00, symSize: 0x384 }
  - { offset: 0x113080, size: 0x8, addend: 0x0, symName: __ZN17ExampleAppConsole8StrnicmpEPKcS1_i, symObjAddr: 0x12F34, symBinAddr: 0x43084, symSize: 0x74 }
  - { offset: 0x1133D5, size: 0x8, addend: 0x0, symName: __ZN17ExampleAppConsole8StrnicmpEPKcS1_i, symObjAddr: 0x12F34, symBinAddr: 0x43084, symSize: 0x74 }
  - { offset: 0x1133DD, size: 0x8, addend: 0x0, symName: __ZN17ExampleAppConsole7StricmpEPKcS1_, symObjAddr: 0x12FA8, symBinAddr: 0x430F8, symSize: 0x84 }
  - { offset: 0x113495, size: 0x8, addend: 0x0, symName: __ZN17ExampleAppConsole7StricmpEPKcS1_, symObjAddr: 0x12FA8, symBinAddr: 0x430F8, symSize: 0x84 }
  - { offset: 0x11349D, size: 0x8, addend: 0x0, symName: __ZN13ExampleAppLogC1Ev, symObjAddr: 0x1302C, symBinAddr: 0x4317C, symSize: 0x44 }
  - { offset: 0x11361B, size: 0x8, addend: 0x0, symName: __ZN13ExampleAppLogC1Ev, symObjAddr: 0x1302C, symBinAddr: 0x4317C, symSize: 0x44 }
  - { offset: 0x113623, size: 0x8, addend: 0x0, symName: __ZN13ExampleAppLogD1Ev, symObjAddr: 0x13070, symBinAddr: 0x431C0, symSize: 0x44 }
  - { offset: 0x11381E, size: 0x8, addend: 0x0, symName: __ZN13ExampleAppLogD1Ev, symObjAddr: 0x13070, symBinAddr: 0x431C0, symSize: 0x44 }
  - { offset: 0x113826, size: 0x8, addend: 0x0, symName: __ZN13ExampleAppLog6AddLogEPKcz, symObjAddr: 0x130B4, symBinAddr: 0x43204, symSize: 0x120 }
  - { offset: 0x113A3B, size: 0x8, addend: 0x0, symName: __ZN13ExampleAppLog6AddLogEPKcz, symObjAddr: 0x130B4, symBinAddr: 0x43204, symSize: 0x120 }
  - { offset: 0x113A43, size: 0x8, addend: 0x0, symName: __ZN13ExampleAppLog4DrawEPKcPb, symObjAddr: 0x131D4, symBinAddr: 0x43324, symSize: 0x2E4 }
  - { offset: 0x113C58, size: 0x8, addend: 0x0, symName: __ZN13ExampleAppLog4DrawEPKcPb, symObjAddr: 0x131D4, symBinAddr: 0x43324, symSize: 0x2E4 }
  - { offset: 0x113C60, size: 0x8, addend: 0x0, symName: __ZN13ExampleAppLog5ClearEv, symObjAddr: 0x134B8, symBinAddr: 0x43608, symSize: 0xB8 }
  - { offset: 0x114140, size: 0x8, addend: 0x0, symName: __ZN13ExampleAppLog5ClearEv, symObjAddr: 0x134B8, symBinAddr: 0x43608, symSize: 0xB8 }
  - { offset: 0x114148, size: 0x8, addend: 0x0, symName: __ZN15ImGuiTextBufferD1Ev, symObjAddr: 0x13570, symBinAddr: 0x436C0, symSize: 0x2C }
  - { offset: 0x114291, size: 0x8, addend: 0x0, symName: __ZN15ImGuiTextBufferD1Ev, symObjAddr: 0x13570, symBinAddr: 0x436C0, symSize: 0x2C }
  - { offset: 0x114299, size: 0x8, addend: 0x0, symName: __ZL21ShowPlaceholderObjectPKci, symObjAddr: 0x1359C, symBinAddr: 0x436EC, symSize: 0x1A0 }
  - { offset: 0x11439A, size: 0x8, addend: 0x0, symName: __ZZL31ShowExampleAppConstrainedResizePbEN17CustomConstraints6SquareEP21ImGuiSizeCallbackData, symObjAddr: 0x1373C, symBinAddr: 0x4388C, symSize: 0x14 }
  - { offset: 0x1143A2, size: 0x8, addend: 0x0, symName: __ZZL31ShowExampleAppConstrainedResizePbEN17CustomConstraints4StepEP21ImGuiSizeCallbackData, symObjAddr: 0x13750, symBinAddr: 0x438A0, symSize: 0x30 }
  - { offset: 0x1143CD, size: 0x8, addend: 0x0, symName: __ZZL31ShowExampleAppConstrainedResizePbEN17CustomConstraints4StepEP21ImGuiSizeCallbackData, symObjAddr: 0x13750, symBinAddr: 0x438A0, symSize: 0x30 }
  - { offset: 0x1143D5, size: 0x8, addend: 0x0, symName: __ZN8ImVectorI6ImVec2ED1Ev, symObjAddr: 0x13780, symBinAddr: 0x438D0, symSize: 0x2C }
  - { offset: 0x114434, size: 0x8, addend: 0x0, symName: __ZN8ImVectorI6ImVec2ED1Ev, symObjAddr: 0x13780, symBinAddr: 0x438D0, symSize: 0x2C }
  - { offset: 0x11443C, size: 0x8, addend: 0x0, symName: __ZN8ImVectorI6ImVec2E9push_backERKS0_, symObjAddr: 0x137AC, symBinAddr: 0x438FC, symSize: 0xA4 }
  - { offset: 0x114493, size: 0x8, addend: 0x0, symName: __ZN8ImVectorI6ImVec2E9push_backERKS0_, symObjAddr: 0x137AC, symBinAddr: 0x438FC, symSize: 0xA4 }
  - { offset: 0x11449B, size: 0x8, addend: 0x0, symName: __ZN19ExampleAppDocumentsD1Ev, symObjAddr: 0x13850, symBinAddr: 0x439A0, symSize: 0x2C }
  - { offset: 0x1145CC, size: 0x8, addend: 0x0, symName: __ZN19ExampleAppDocumentsD1Ev, symObjAddr: 0x13850, symBinAddr: 0x439A0, symSize: 0x2C }
  - { offset: 0x1145D4, size: 0x8, addend: 0x0, symName: __ZN10MyDocument18DisplayContextMenuEPS_, symObjAddr: 0x1387C, symBinAddr: 0x439CC, symSize: 0xC4 }
  - { offset: 0x11469D, size: 0x8, addend: 0x0, symName: __ZN10MyDocument18DisplayContextMenuEPS_, symObjAddr: 0x1387C, symBinAddr: 0x439CC, symSize: 0xC4 }
  - { offset: 0x1146A5, size: 0x8, addend: 0x0, symName: __ZN10MyDocument15DisplayContentsEPS_, symObjAddr: 0x13940, symBinAddr: 0x43A90, symSize: 0xD8 }
  - { offset: 0x114732, size: 0x8, addend: 0x0, symName: __ZN10MyDocument15DisplayContentsEPS_, symObjAddr: 0x13940, symBinAddr: 0x43A90, symSize: 0xD8 }
  - { offset: 0x11473A, size: 0x8, addend: 0x0, symName: __ZN8ImVectorIP10MyDocumentED1Ev, symObjAddr: 0x13A18, symBinAddr: 0x43B68, symSize: 0x2C }
  - { offset: 0x1148A6, size: 0x8, addend: 0x0, symName: __ZN8ImVectorIP10MyDocumentED1Ev, symObjAddr: 0x13A18, symBinAddr: 0x43B68, symSize: 0x2C }
  - { offset: 0x1148AE, size: 0x8, addend: 0x0, symName: __ZN19ExampleAppDocumentsC2Ev, symObjAddr: 0x13A44, symBinAddr: 0x43B94, symSize: 0x3A4 }
  - { offset: 0x1149F7, size: 0x8, addend: 0x0, symName: __ZN19ExampleAppDocumentsC2Ev, symObjAddr: 0x13A44, symBinAddr: 0x43B94, symSize: 0x3A4 }
  - { offset: 0x1149FF, size: 0x8, addend: 0x0, symName: __ZN5ImGui14ShowDemoWindowEPb.cold.1, symObjAddr: 0x13DE8, symBinAddr: 0x8E7E0, symSize: 0x50 }
  - { offset: 0x114E3A, size: 0x8, addend: 0x0, symName: __ZN5ImGui14ShowDemoWindowEPb.cold.1, symObjAddr: 0x13DE8, symBinAddr: 0x8E7E0, symSize: 0x50 }
  - { offset: 0x114E42, size: 0x8, addend: 0x0, symName: __ZN5ImGui14ShowDemoWindowEPb.cold.2, symObjAddr: 0x13E38, symBinAddr: 0x8E830, symSize: 0x50 }
  - { offset: 0x114EC9, size: 0x8, addend: 0x0, symName: __ZN5ImGui14ShowDemoWindowEPb.cold.2, symObjAddr: 0x13E38, symBinAddr: 0x8E830, symSize: 0x50 }
  - { offset: 0x114ED1, size: 0x8, addend: 0x0, symName: __ZN5ImGui14ShowDemoWindowEPb.cold.3, symObjAddr: 0x13E88, symBinAddr: 0x8E880, symSize: 0x48 }
  - { offset: 0x114F60, size: 0x8, addend: 0x0, symName: __ZN5ImGui14ShowDemoWindowEPb.cold.3, symObjAddr: 0x13E88, symBinAddr: 0x8E880, symSize: 0x48 }
  - { offset: 0x114F68, size: 0x8, addend: 0x0, symName: __ZN5ImGui14ShowDemoWindowEPb.cold.4, symObjAddr: 0x13ED0, symBinAddr: 0x8E8C8, symSize: 0x48 }
  - { offset: 0x114FAD, size: 0x8, addend: 0x0, symName: __ZN5ImGui14ShowDemoWindowEPb.cold.4, symObjAddr: 0x13ED0, symBinAddr: 0x8E8C8, symSize: 0x48 }
  - { offset: 0x114FB5, size: 0x8, addend: 0x0, symName: __ZN5ImGui14ShowDemoWindowEPb.cold.5, symObjAddr: 0x13F18, symBinAddr: 0x8E910, symSize: 0x48 }
  - { offset: 0x114FE7, size: 0x8, addend: 0x0, symName: __ZN5ImGui14ShowDemoWindowEPb.cold.5, symObjAddr: 0x13F18, symBinAddr: 0x8E910, symSize: 0x48 }
  - { offset: 0x114FEF, size: 0x8, addend: 0x0, symName: __ZN5ImGui14ShowDemoWindowEPb.cold.6, symObjAddr: 0x13F60, symBinAddr: 0x8E958, symSize: 0x34 }
  - { offset: 0x115099, size: 0x8, addend: 0x0, symName: __ZN5ImGui14ShowDemoWindowEPb.cold.6, symObjAddr: 0x13F60, symBinAddr: 0x8E958, symSize: 0x34 }
  - { offset: 0x1150A1, size: 0x8, addend: 0x0, symName: __ZN5ImGui14ShowDemoWindowEPb.cold.7, symObjAddr: 0x13F94, symBinAddr: 0x8E98C, symSize: 0x40 }
  - { offset: 0x115192, size: 0x8, addend: 0x0, symName: __ZN5ImGui14ShowDemoWindowEPb.cold.7, symObjAddr: 0x13F94, symBinAddr: 0x8E98C, symSize: 0x40 }
  - { offset: 0x11519A, size: 0x8, addend: 0x0, symName: __ZN5ImGui14ShowDemoWindowEPb.cold.8, symObjAddr: 0x13FD4, symBinAddr: 0x8E9CC, symSize: 0x30 }
  - { offset: 0x1151CC, size: 0x8, addend: 0x0, symName: __ZN5ImGui14ShowDemoWindowEPb.cold.8, symObjAddr: 0x13FD4, symBinAddr: 0x8E9CC, symSize: 0x30 }
  - { offset: 0x1151D4, size: 0x8, addend: 0x0, symName: __ZN5ImGui14ShowDemoWindowEPb.cold.9, symObjAddr: 0x14004, symBinAddr: 0x8E9FC, symSize: 0x50 }
  - { offset: 0x11526A, size: 0x8, addend: 0x0, symName: __ZN5ImGui14ShowDemoWindowEPb.cold.9, symObjAddr: 0x14004, symBinAddr: 0x8E9FC, symSize: 0x50 }
  - { offset: 0x115272, size: 0x8, addend: 0x0, symName: __ZN5ImGui15ShowStyleEditorEP10ImGuiStyle.cold.1, symObjAddr: 0x14054, symBinAddr: 0x8EA4C, symSize: 0x38 }
  - { offset: 0x1152A4, size: 0x8, addend: 0x0, symName: __ZN5ImGui15ShowStyleEditorEP10ImGuiStyle.cold.1, symObjAddr: 0x14054, symBinAddr: 0x8EA4C, symSize: 0x38 }
  - { offset: 0x1152AC, size: 0x8, addend: 0x0, symName: __ZN5ImGui15ShowStyleEditorEP10ImGuiStyle.cold.2, symObjAddr: 0x1408C, symBinAddr: 0x8EA84, symSize: 0x50 }
  - { offset: 0x1152C0, size: 0x8, addend: 0x0, symName: __ZN5ImGui15ShowStyleEditorEP10ImGuiStyle.cold.2, symObjAddr: 0x1408C, symBinAddr: 0x8EA84, symSize: 0x50 }
  - { offset: 0x1152C8, size: 0x8, addend: 0x0, symName: __ZL21ShowDemoWindowWidgetsv.cold.1, symObjAddr: 0x140DC, symBinAddr: 0x8EAD4, symSize: 0x40 }
  - { offset: 0x1152DC, size: 0x8, addend: 0x0, symName: __ZL21ShowDemoWindowWidgetsv.cold.1, symObjAddr: 0x140DC, symBinAddr: 0x8EAD4, symSize: 0x40 }
  - { offset: 0x1152E4, size: 0x8, addend: 0x0, symName: __ZL21ShowDemoWindowWidgetsv.cold.2, symObjAddr: 0x1411C, symBinAddr: 0x8EB14, symSize: 0x48 }
  - { offset: 0x1152F8, size: 0x8, addend: 0x0, symName: __ZL21ShowDemoWindowWidgetsv.cold.2, symObjAddr: 0x1411C, symBinAddr: 0x8EB14, symSize: 0x48 }
  - { offset: 0x115300, size: 0x8, addend: 0x0, symName: __ZL21ShowDemoWindowWidgetsv.cold.3, symObjAddr: 0x14164, symBinAddr: 0x8EB5C, symSize: 0x34 }
  - { offset: 0x115350, size: 0x8, addend: 0x0, symName: __ZL21ShowDemoWindowWidgetsv.cold.3, symObjAddr: 0x14164, symBinAddr: 0x8EB5C, symSize: 0x34 }
  - { offset: 0x115358, size: 0x8, addend: 0x0, symName: __ZL21ShowDemoWindowWidgetsv.cold.4, symObjAddr: 0x14198, symBinAddr: 0x8EB90, symSize: 0x34 }
  - { offset: 0x11542B, size: 0x8, addend: 0x0, symName: __ZL21ShowDemoWindowWidgetsv.cold.4, symObjAddr: 0x14198, symBinAddr: 0x8EB90, symSize: 0x34 }
  - { offset: 0x115433, size: 0x8, addend: 0x0, symName: __ZL21ShowDemoWindowWidgetsv.cold.5, symObjAddr: 0x141CC, symBinAddr: 0x8EBC4, symSize: 0x2C }
  - { offset: 0x115483, size: 0x8, addend: 0x0, symName: __ZL21ShowDemoWindowWidgetsv.cold.5, symObjAddr: 0x141CC, symBinAddr: 0x8EBC4, symSize: 0x2C }
  - { offset: 0x11548B, size: 0x8, addend: 0x0, symName: __ZL21ShowDemoWindowWidgetsv.cold.6, symObjAddr: 0x141F8, symBinAddr: 0x8EBF0, symSize: 0x34 }
  - { offset: 0x1154EE, size: 0x8, addend: 0x0, symName: __ZL21ShowDemoWindowWidgetsv.cold.6, symObjAddr: 0x141F8, symBinAddr: 0x8EBF0, symSize: 0x34 }
  - { offset: 0x1154F6, size: 0x8, addend: 0x0, symName: __ZL21ShowDemoWindowWidgetsv.cold.7, symObjAddr: 0x1422C, symBinAddr: 0x8EC24, symSize: 0x34 }
  - { offset: 0x1155C1, size: 0x8, addend: 0x0, symName: __ZL21ShowDemoWindowWidgetsv.cold.7, symObjAddr: 0x1422C, symBinAddr: 0x8EC24, symSize: 0x34 }
  - { offset: 0x1155C9, size: 0x8, addend: 0x0, symName: __ZL20ShowDemoWindowLayoutv.cold.1, symObjAddr: 0x14260, symBinAddr: 0x8EC58, symSize: 0x38 }
  - { offset: 0x11569C, size: 0x8, addend: 0x0, symName: __ZL20ShowDemoWindowLayoutv.cold.1, symObjAddr: 0x14260, symBinAddr: 0x8EC58, symSize: 0x38 }
  - { offset: 0x1156A4, size: 0x8, addend: 0x0, symName: __ZL20ShowDemoWindowLayoutv.cold.2, symObjAddr: 0x14298, symBinAddr: 0x8EC90, symSize: 0x38 }
  - { offset: 0x115746, size: 0x8, addend: 0x0, symName: __ZL20ShowDemoWindowLayoutv.cold.2, symObjAddr: 0x14298, symBinAddr: 0x8EC90, symSize: 0x38 }
  - { offset: 0x11574E, size: 0x8, addend: 0x0, symName: __ZL20ShowDemoWindowTablesv.cold.1, symObjAddr: 0x142D0, symBinAddr: 0x8ECC8, symSize: 0x34 }
  - { offset: 0x1157D6, size: 0x8, addend: 0x0, symName: __ZL20ShowDemoWindowTablesv.cold.1, symObjAddr: 0x142D0, symBinAddr: 0x8ECC8, symSize: 0x34 }
  - { offset: 0x1157DE, size: 0x8, addend: 0x0, symName: __ZL20ShowDemoWindowTablesv.cold.2, symObjAddr: 0x14304, symBinAddr: 0x8ECFC, symSize: 0x40 }
  - { offset: 0x115870, size: 0x8, addend: 0x0, symName: __ZL20ShowDemoWindowTablesv.cold.2, symObjAddr: 0x14304, symBinAddr: 0x8ECFC, symSize: 0x40 }
  - { offset: 0x115878, size: 0x8, addend: 0x0, symName: __ZL20ShowDemoWindowTablesv.cold.3, symObjAddr: 0x14344, symBinAddr: 0x8ED3C, symSize: 0x4C }
  - { offset: 0x11588C, size: 0x8, addend: 0x0, symName: __ZL20ShowDemoWindowTablesv.cold.3, symObjAddr: 0x14344, symBinAddr: 0x8ED3C, symSize: 0x4C }
  - { offset: 0x115894, size: 0x8, addend: 0x0, symName: __ZL20ShowDemoWindowTablesv.cold.4, symObjAddr: 0x14390, symBinAddr: 0x8ED88, symSize: 0x48 }
  - { offset: 0x11596C, size: 0x8, addend: 0x0, symName: __ZL20ShowDemoWindowTablesv.cold.4, symObjAddr: 0x14390, symBinAddr: 0x8ED88, symSize: 0x48 }
  - { offset: 0x115974, size: 0x8, addend: 0x0, symName: __ZL20ShowDemoWindowTablesv.cold.5, symObjAddr: 0x143D8, symBinAddr: 0x8EDD0, symSize: 0x40 }
  - { offset: 0x1159C4, size: 0x8, addend: 0x0, symName: __ZL20ShowDemoWindowTablesv.cold.5, symObjAddr: 0x143D8, symBinAddr: 0x8EDD0, symSize: 0x40 }
  - { offset: 0x1159CC, size: 0x8, addend: 0x0, symName: _OUTLINED_FUNCTION_0, symObjAddr: 0x14418, symBinAddr: 0x43F38, symSize: 0x8 }
  - { offset: 0x1159E0, size: 0x8, addend: 0x0, symName: _OUTLINED_FUNCTION_0, symObjAddr: 0x14418, symBinAddr: 0x43F38, symSize: 0x8 }
  - { offset: 0x1159E8, size: 0x8, addend: 0x0, symName: _OUTLINED_FUNCTION_1, symObjAddr: 0x14420, symBinAddr: 0x43F40, symSize: 0x8 }
  - { offset: 0x1159FE, size: 0x8, addend: 0x0, symName: _OUTLINED_FUNCTION_1, symObjAddr: 0x14420, symBinAddr: 0x43F40, symSize: 0x8 }
  - { offset: 0x115A06, size: 0x8, addend: 0x0, symName: _OUTLINED_FUNCTION_2, symObjAddr: 0x14428, symBinAddr: 0x43F48, symSize: 0x8 }
  - { offset: 0x115A1C, size: 0x8, addend: 0x0, symName: _OUTLINED_FUNCTION_2, symObjAddr: 0x14428, symBinAddr: 0x43F48, symSize: 0x8 }
  - { offset: 0x115A24, size: 0x8, addend: 0x0, symName: _OUTLINED_FUNCTION_3, symObjAddr: 0x14430, symBinAddr: 0x43F50, symSize: 0x10 }
  - { offset: 0x115A3A, size: 0x8, addend: 0x0, symName: _OUTLINED_FUNCTION_3, symObjAddr: 0x14430, symBinAddr: 0x43F50, symSize: 0x10 }
  - { offset: 0x115A42, size: 0x8, addend: 0x0, symName: _OUTLINED_FUNCTION_4, symObjAddr: 0x14440, symBinAddr: 0x43F60, symSize: 0x8 }
  - { offset: 0x115A58, size: 0x8, addend: 0x0, symName: _OUTLINED_FUNCTION_4, symObjAddr: 0x14440, symBinAddr: 0x43F60, symSize: 0x8 }
  - { offset: 0x115D2B, size: 0x8, addend: 0x0, symName: __ZN5ImGui16StyleColorsGreenEP10ImGuiStyle, symObjAddr: 0x0, symBinAddr: 0x43F68, symSize: 0x1C4 }
  - { offset: 0x115D4E, size: 0x8, addend: 0x0, symName: __ZL34FONT_ATLAS_DEFAULT_TEX_CURSOR_DATA, symObjAddr: 0x10220, symBinAddr: 0xDAF90, symSize: 0x0 }
  - { offset: 0x115DCA, size: 0x8, addend: 0x0, symName: __Z35ImFontAtlasGetBuilderForStbTruetypev, symObjAddr: 0x7764, symBinAddr: 0x4B6CC, symSize: 0x18 }
  - { offset: 0x115DD2, size: 0x8, addend: 0x0, symName: __Z39ImFontAtlasBuildMultiplyCalcLookupTablePhf, symObjAddr: 0x777C, symBinAddr: 0x4B6E4, symSize: 0x9C }
  - { offset: 0x115DF7, size: 0x8, addend: 0x0, symName: __ZZ35ImFontAtlasGetBuilderForStbTruetypevE2io, symObjAddr: 0x65BA8, symBinAddr: 0x37FE10, symSize: 0x0 }
  - { offset: 0x11613C, size: 0x8, addend: 0x0, symName: __ZN11ImFontAtlas21GetGlyphRangesDefaultEv, symObjAddr: 0x6B30, symBinAddr: 0x4AA98, symSize: 0xC }
  - { offset: 0x116144, size: 0x8, addend: 0x0, symName: __ZN11ImFontAtlas36AddFontFromMemoryCompressedBase85TTFEPKcfPK12ImFontConfigPKt, symObjAddr: 0x6B3C, symBinAddr: 0x4AAA4, symSize: 0x124 }
  - { offset: 0x116170, size: 0x8, addend: 0x0, symName: __ZZN11ImFontAtlas21GetGlyphRangesDefaultEvE6ranges, symObjAddr: 0x102F8, symBinAddr: 0xDB068, symSize: 0x0 }
  - { offset: 0x1161A1, size: 0x8, addend: 0x0, symName: __ZN11ImFontAtlas20GetGlyphRangesKoreanEv, symObjAddr: 0xB148, symBinAddr: 0x4F0B0, symSize: 0xC }
  - { offset: 0x1161A9, size: 0x8, addend: 0x0, symName: __ZN11ImFontAtlas25GetGlyphRangesChineseFullEv, symObjAddr: 0xB154, symBinAddr: 0x4F0BC, symSize: 0xC }
  - { offset: 0x1161D5, size: 0x8, addend: 0x0, symName: __ZZN11ImFontAtlas20GetGlyphRangesKoreanEvE6ranges, symObjAddr: 0x102FE, symBinAddr: 0xDB06E, symSize: 0x0 }
  - { offset: 0x116206, size: 0x8, addend: 0x0, symName: __ZN11ImFontAtlas25GetGlyphRangesChineseFullEv, symObjAddr: 0xB154, symBinAddr: 0x4F0BC, symSize: 0xC }
  - { offset: 0x11620E, size: 0x8, addend: 0x0, symName: __ZN11ImFontAtlas37GetGlyphRangesChineseSimplifiedCommonEv, symObjAddr: 0xB160, symBinAddr: 0x4F0C8, symSize: 0x6C }
  - { offset: 0x11623A, size: 0x8, addend: 0x0, symName: __ZZN11ImFontAtlas25GetGlyphRangesChineseFullEvE6ranges, symObjAddr: 0x1030C, symBinAddr: 0xDB07C, symSize: 0x0 }
  - { offset: 0x11626B, size: 0x8, addend: 0x0, symName: __ZN11ImFontAtlas37GetGlyphRangesChineseSimplifiedCommonEv, symObjAddr: 0xB160, symBinAddr: 0x4F0C8, symSize: 0x6C }
  - { offset: 0x116273, size: 0x8, addend: 0x0, symName: __ZN11ImFontAtlas22GetGlyphRangesJapaneseEv, symObjAddr: 0xB1CC, symBinAddr: 0x4F134, symSize: 0x60 }
  - { offset: 0x11629F, size: 0x8, addend: 0x0, symName: __ZZN11ImFontAtlas37GetGlyphRangesChineseSimplifiedCommonEvE32accumulative_offsets_from_0x4E00, symObjAddr: 0x10326, symBinAddr: 0xDB096, symSize: 0x0 }
  - { offset: 0x1162BA, size: 0x8, addend: 0x0, symName: __ZZN11ImFontAtlas37GetGlyphRangesChineseSimplifiedCommonEvE11base_ranges, symObjAddr: 0x116AE, symBinAddr: 0xDC41E, symSize: 0x0 }
  - { offset: 0x1162D5, size: 0x8, addend: 0x0, symName: __ZZN11ImFontAtlas37GetGlyphRangesChineseSimplifiedCommonEvE11full_ranges, symObjAddr: 0x65BB0, symBinAddr: 0x37FE18, symSize: 0x0 }
  - { offset: 0x116398, size: 0x8, addend: 0x0, symName: __ZN11ImFontAtlas22GetGlyphRangesJapaneseEv, symObjAddr: 0xB1CC, symBinAddr: 0x4F134, symSize: 0x60 }
  - { offset: 0x1163A0, size: 0x8, addend: 0x0, symName: __ZN11ImFontAtlas22GetGlyphRangesCyrillicEv, symObjAddr: 0xB22C, symBinAddr: 0x4F194, symSize: 0xC }
  - { offset: 0x1163CC, size: 0x8, addend: 0x0, symName: __ZZN11ImFontAtlas22GetGlyphRangesJapaneseEvE32accumulative_offsets_from_0x4E00, symObjAddr: 0x116C2, symBinAddr: 0xDC432, symSize: 0x0 }
  - { offset: 0x1163E7, size: 0x8, addend: 0x0, symName: __ZZN11ImFontAtlas22GetGlyphRangesJapaneseEvE11base_ranges, symObjAddr: 0x12E30, symBinAddr: 0xDDBA0, symSize: 0x0 }
  - { offset: 0x116402, size: 0x8, addend: 0x0, symName: __ZZN11ImFontAtlas22GetGlyphRangesJapaneseEvE11full_ranges, symObjAddr: 0x682D6, symBinAddr: 0x38253E, symSize: 0x0 }
  - { offset: 0x1164BC, size: 0x8, addend: 0x0, symName: __ZN11ImFontAtlas22GetGlyphRangesCyrillicEv, symObjAddr: 0xB22C, symBinAddr: 0x4F194, symSize: 0xC }
  - { offset: 0x1164C4, size: 0x8, addend: 0x0, symName: __ZN11ImFontAtlas18GetGlyphRangesThaiEv, symObjAddr: 0xB238, symBinAddr: 0x4F1A0, symSize: 0xC }
  - { offset: 0x1164F0, size: 0x8, addend: 0x0, symName: __ZZN11ImFontAtlas22GetGlyphRangesCyrillicEvE6ranges, symObjAddr: 0x12E40, symBinAddr: 0xDDBB0, symSize: 0x0 }
  - { offset: 0x116521, size: 0x8, addend: 0x0, symName: __ZN11ImFontAtlas18GetGlyphRangesThaiEv, symObjAddr: 0xB238, symBinAddr: 0x4F1A0, symSize: 0xC }
  - { offset: 0x116529, size: 0x8, addend: 0x0, symName: __ZN11ImFontAtlas24GetGlyphRangesVietnameseEv, symObjAddr: 0xB244, symBinAddr: 0x4F1AC, symSize: 0xC }
  - { offset: 0x116555, size: 0x8, addend: 0x0, symName: __ZZN11ImFontAtlas18GetGlyphRangesThaiEvE6ranges, symObjAddr: 0x12E52, symBinAddr: 0xDDBC2, symSize: 0x0 }
  - { offset: 0x116572, size: 0x8, addend: 0x0, symName: __ZN11ImFontAtlas24GetGlyphRangesVietnameseEv, symObjAddr: 0xB244, symBinAddr: 0x4F1AC, symSize: 0xC }
  - { offset: 0x11657A, size: 0x8, addend: 0x0, symName: __ZN24ImFontGlyphRangesBuilder7AddTextEPKcS1_, symObjAddr: 0xB250, symBinAddr: 0x4F1B8, symSize: 0x94 }
  - { offset: 0x1165A6, size: 0x8, addend: 0x0, symName: __ZZN11ImFontAtlas24GetGlyphRangesVietnameseEvE6ranges, symObjAddr: 0x12E60, symBinAddr: 0xDDBD0, symSize: 0x0 }
  - { offset: 0x1165E8, size: 0x8, addend: 0x0, symName: __ZL17stb__barrier_in_b, symObjAddr: 0x6B1C8, symBinAddr: 0x385430, symSize: 0x0 }
  - { offset: 0x116619, size: 0x8, addend: 0x0, symName: __ZL18stb__barrier_out_e, symObjAddr: 0x6B1D0, symBinAddr: 0x385438, symSize: 0x0 }
  - { offset: 0x116638, size: 0x8, addend: 0x0, symName: __ZL18stb__barrier_out_b, symObjAddr: 0x6B1D8, symBinAddr: 0x385440, symSize: 0x0 }
  - { offset: 0x116657, size: 0x8, addend: 0x0, symName: __ZL9stb__dout, symObjAddr: 0x6B1E0, symBinAddr: 0x385448, symSize: 0x0 }
  - { offset: 0x116676, size: 0x8, addend: 0x0, symName: __ZL39proggy_clean_ttf_compressed_data_base85, symObjAddr: 0x12E82, symBinAddr: 0xDDBF2, symSize: 0x0 }
  - { offset: 0x117722, size: 0x8, addend: 0x0, symName: __ZN5ImGui16StyleColorsGreenEP10ImGuiStyle, symObjAddr: 0x0, symBinAddr: 0x43F68, symSize: 0x1C4 }
  - { offset: 0x11772A, size: 0x8, addend: 0x0, symName: __ZN5ImGui19StyleColorsDemiDarkEP10ImGuiStyle, symObjAddr: 0x1C4, symBinAddr: 0x4412C, symSize: 0x124 }
  - { offset: 0x117776, size: 0x8, addend: 0x0, symName: __ZN5ImGui19StyleColorsDemiDarkEP10ImGuiStyle, symObjAddr: 0x1C4, symBinAddr: 0x4412C, symSize: 0x124 }
  - { offset: 0x11777E, size: 0x8, addend: 0x0, symName: __ZN5ImGui15StyleColorsDarkEP10ImGuiStyle, symObjAddr: 0x2E8, symBinAddr: 0x44250, symSize: 0x20C }
  - { offset: 0x1177CA, size: 0x8, addend: 0x0, symName: __ZN5ImGui15StyleColorsDarkEP10ImGuiStyle, symObjAddr: 0x2E8, symBinAddr: 0x44250, symSize: 0x20C }
  - { offset: 0x1177D2, size: 0x8, addend: 0x0, symName: __ZN5ImGui18StyleColorsClassicEP10ImGuiStyle, symObjAddr: 0x4F4, symBinAddr: 0x4445C, symSize: 0x26C }
  - { offset: 0x117822, size: 0x8, addend: 0x0, symName: __ZN5ImGui18StyleColorsClassicEP10ImGuiStyle, symObjAddr: 0x4F4, symBinAddr: 0x4445C, symSize: 0x26C }
  - { offset: 0x11782A, size: 0x8, addend: 0x0, symName: __ZN5ImGui16StyleColorsLightEP10ImGuiStyle, symObjAddr: 0x760, symBinAddr: 0x446C8, symSize: 0x268 }
  - { offset: 0x1178F6, size: 0x8, addend: 0x0, symName: __ZN5ImGui16StyleColorsLightEP10ImGuiStyle, symObjAddr: 0x760, symBinAddr: 0x446C8, symSize: 0x268 }
  - { offset: 0x1178FE, size: 0x8, addend: 0x0, symName: __ZN20ImDrawListSharedDataC2Ev, symObjAddr: 0x9C8, symBinAddr: 0x44930, symSize: 0x150 }
  - { offset: 0x1179CA, size: 0x8, addend: 0x0, symName: __ZN5ImGui18ShadeVertsLinearUVEP10ImDrawListiiRK6ImVec2S4_S4_S4_b, symObjAddr: 0x5898, symBinAddr: 0x49800, symSize: 0xBC }
  - { offset: 0x1179D2, size: 0x8, addend: 0x0, symName: __ZN18ImDrawListSplitter5SplitEP10ImDrawListi, symObjAddr: 0x5954, symBinAddr: 0x498BC, symSize: 0x174 }
  - { offset: 0x117AD7, size: 0x8, addend: 0x0, symName: __ZN5ImGui18ShadeVertsLinearUVEP10ImDrawListiiRK6ImVec2S4_S4_S4_b, symObjAddr: 0x5898, symBinAddr: 0x49800, symSize: 0xBC }
  - { offset: 0x117C97, size: 0x8, addend: 0x0, symName: __ZN5ImGui38ShadeVertsLinearColorGradientKeepAlphaEP10ImDrawListii6ImVec2S2_jj, symObjAddr: 0x61B0, symBinAddr: 0x4A118, symSize: 0xEC }
  - { offset: 0x117C9F, size: 0x8, addend: 0x0, symName: __ZN12ImFontConfigC2Ev, symObjAddr: 0x629C, symBinAddr: 0x4A204, symSize: 0x48 }
  - { offset: 0x117F01, size: 0x8, addend: 0x0, symName: __ZN5ImGui11RenderArrowEP10ImDrawList6ImVec2jif, symObjAddr: 0xBD94, symBinAddr: 0x4FCFC, symSize: 0x104 }
  - { offset: 0x117F09, size: 0x8, addend: 0x0, symName: __ZN5ImGui12RenderBulletEP10ImDrawList6ImVec2j, symObjAddr: 0xBE98, symBinAddr: 0x4FE00, symSize: 0x40 }
  - { offset: 0x118119, size: 0x8, addend: 0x0, symName: __ZN5ImGui12RenderBulletEP10ImDrawList6ImVec2j, symObjAddr: 0xBE98, symBinAddr: 0x4FE00, symSize: 0x40 }
  - { offset: 0x118121, size: 0x8, addend: 0x0, symName: __ZN5ImGui15RenderCheckMarkEP10ImDrawList6ImVec2jf, symObjAddr: 0xBED8, symBinAddr: 0x4FE40, symSize: 0x228 }
  - { offset: 0x118175, size: 0x8, addend: 0x0, symName: __ZN5ImGui15RenderCheckMarkEP10ImDrawList6ImVec2jf, symObjAddr: 0xBED8, symBinAddr: 0x4FE40, symSize: 0x228 }
  - { offset: 0x11817D, size: 0x8, addend: 0x0, symName: __ZN5ImGui17RenderMouseCursorEP10ImDrawList6ImVec2fijjj, symObjAddr: 0xC100, symBinAddr: 0x50068, symSize: 0x21C }
  - { offset: 0x11850F, size: 0x8, addend: 0x0, symName: __ZN5ImGui17RenderMouseCursorEP10ImDrawList6ImVec2fijjj, symObjAddr: 0xC100, symBinAddr: 0x50068, symSize: 0x21C }
  - { offset: 0x118517, size: 0x8, addend: 0x0, symName: __ZN5ImGui21RenderArrowPointingAtEP10ImDrawList6ImVec2S2_ij, symObjAddr: 0xC31C, symBinAddr: 0x50284, symSize: 0xA4 }
  - { offset: 0x118900, size: 0x8, addend: 0x0, symName: __ZN5ImGui21RenderArrowPointingAtEP10ImDrawList6ImVec2S2_ij, symObjAddr: 0xC31C, symBinAddr: 0x50284, symSize: 0xA4 }
  - { offset: 0x118908, size: 0x8, addend: 0x0, symName: __ZN5ImGui22RenderRectFilledRangeHEP10ImDrawListRK6ImRectjfff, symObjAddr: 0xC3C0, symBinAddr: 0x50328, symSize: 0x560 }
  - { offset: 0x118CAB, size: 0x8, addend: 0x0, symName: __ZN5ImGui22RenderRectFilledRangeHEP10ImDrawListRK6ImRectjfff, symObjAddr: 0xC3C0, symBinAddr: 0x50328, symSize: 0x560 }
  - { offset: 0x118CB3, size: 0x8, addend: 0x0, symName: __ZN5ImGui24RenderRectFilledWithHoleEP10ImDrawList6ImRectS2_jf, symObjAddr: 0xC920, symBinAddr: 0x50888, symSize: 0x240 }
  - { offset: 0x11985D, size: 0x8, addend: 0x0, symName: __ZN5ImGui24RenderRectFilledWithHoleEP10ImDrawList6ImRectS2_jf, symObjAddr: 0xC920, symBinAddr: 0x50888, symSize: 0x240 }
  - { offset: 0x119865, size: 0x8, addend: 0x0, symName: __ZN5ImGui36RenderColorRectWithAlphaCheckerboardEP10ImDrawList6ImVec2S2_jfS2_fi, symObjAddr: 0xCB60, symBinAddr: 0x50AC8, symSize: 0x220 }
  - { offset: 0x11A0F0, size: 0x8, addend: 0x0, symName: __ZN5ImGui36RenderColorRectWithAlphaCheckerboardEP10ImDrawList6ImVec2S2_jfS2_fi, symObjAddr: 0xCB60, symBinAddr: 0x50AC8, symSize: 0x220 }
  - { offset: 0x11A0F8, size: 0x8, addend: 0x0, symName: __ZN11ImBitVector6CreateEi, symObjAddr: 0xCD80, symBinAddr: 0x50CE8, symSize: 0x9C }
  - { offset: 0x11A504, size: 0x8, addend: 0x0, symName: __ZN20ImDrawListSharedDataC2Ev, symObjAddr: 0x9C8, symBinAddr: 0x44930, symSize: 0x150 }
  - { offset: 0x11A50C, size: 0x8, addend: 0x0, symName: __ZN20ImDrawListSharedDataC1Ev, symObjAddr: 0xB18, symBinAddr: 0x44A80, symSize: 0x150 }
  - { offset: 0x11A60D, size: 0x8, addend: 0x0, symName: __ZN20ImDrawListSharedDataC1Ev, symObjAddr: 0xB18, symBinAddr: 0x44A80, symSize: 0x150 }
  - { offset: 0x11A615, size: 0x8, addend: 0x0, symName: __ZN20ImDrawListSharedData29SetCircleTessellationMaxErrorEf, symObjAddr: 0xC68, symBinAddr: 0x44BD0, symSize: 0xD4 }
  - { offset: 0x11A776, size: 0x8, addend: 0x0, symName: __ZN20ImDrawListSharedData29SetCircleTessellationMaxErrorEf, symObjAddr: 0xC68, symBinAddr: 0x44BD0, symSize: 0xD4 }
  - { offset: 0x11A77E, size: 0x8, addend: 0x0, symName: __ZN10ImDrawList17_ResetForNewFrameEv, symObjAddr: 0xD3C, symBinAddr: 0x44CA4, symSize: 0x274 }
  - { offset: 0x11ABCD, size: 0x8, addend: 0x0, symName: __ZN10ImDrawList17_ResetForNewFrameEv, symObjAddr: 0xD3C, symBinAddr: 0x44CA4, symSize: 0x274 }
  - { offset: 0x11ABD5, size: 0x8, addend: 0x0, symName: __ZN10ImDrawList16_ClearFreeMemoryEv, symObjAddr: 0xFB0, symBinAddr: 0x44F18, symSize: 0xA0 }
  - { offset: 0x11B02D, size: 0x8, addend: 0x0, symName: __ZN10ImDrawList16_ClearFreeMemoryEv, symObjAddr: 0xFB0, symBinAddr: 0x44F18, symSize: 0xA0 }
  - { offset: 0x11B035, size: 0x8, addend: 0x0, symName: __ZN18ImDrawListSplitter15ClearFreeMemoryEv, symObjAddr: 0x1050, symBinAddr: 0x44FB8, symSize: 0xC0 }
  - { offset: 0x11B1A2, size: 0x8, addend: 0x0, symName: __ZN18ImDrawListSplitter15ClearFreeMemoryEv, symObjAddr: 0x1050, symBinAddr: 0x44FB8, symSize: 0xC0 }
  - { offset: 0x11B1AA, size: 0x8, addend: 0x0, symName: __ZNK10ImDrawList11CloneOutputEv, symObjAddr: 0x1110, symBinAddr: 0x45078, symSize: 0x218 }
  - { offset: 0x11B459, size: 0x8, addend: 0x0, symName: __ZNK10ImDrawList11CloneOutputEv, symObjAddr: 0x1110, symBinAddr: 0x45078, symSize: 0x218 }
  - { offset: 0x11B461, size: 0x8, addend: 0x0, symName: __ZN10ImDrawList10AddDrawCmdEv, symObjAddr: 0x1328, symBinAddr: 0x45290, symSize: 0xE8 }
  - { offset: 0x11B84F, size: 0x8, addend: 0x0, symName: __ZN10ImDrawList10AddDrawCmdEv, symObjAddr: 0x1328, symBinAddr: 0x45290, symSize: 0xE8 }
  - { offset: 0x11B857, size: 0x8, addend: 0x0, symName: __ZN10ImDrawList17_PopUnusedDrawCmdEv, symObjAddr: 0x1410, symBinAddr: 0x45378, symSize: 0x34 }
  - { offset: 0x11B961, size: 0x8, addend: 0x0, symName: __ZN10ImDrawList17_PopUnusedDrawCmdEv, symObjAddr: 0x1410, symBinAddr: 0x45378, symSize: 0x34 }
  - { offset: 0x11B969, size: 0x8, addend: 0x0, symName: __ZN10ImDrawList11AddCallbackEPFvPKS_PK9ImDrawCmdEPv, symObjAddr: 0x1444, symBinAddr: 0x453AC, symSize: 0x64 }
  - { offset: 0x11B9BF, size: 0x8, addend: 0x0, symName: __ZN10ImDrawList11AddCallbackEPFvPKS_PK9ImDrawCmdEPv, symObjAddr: 0x1444, symBinAddr: 0x453AC, symSize: 0x64 }
  - { offset: 0x11B9C7, size: 0x8, addend: 0x0, symName: __ZN10ImDrawList18_OnChangedClipRectEv, symObjAddr: 0x14A8, symBinAddr: 0x45410, symSize: 0x88 }
  - { offset: 0x11BA2D, size: 0x8, addend: 0x0, symName: __ZN10ImDrawList18_OnChangedClipRectEv, symObjAddr: 0x14A8, symBinAddr: 0x45410, symSize: 0x88 }
  - { offset: 0x11BA35, size: 0x8, addend: 0x0, symName: __ZN10ImDrawList19_OnChangedTextureIDEv, symObjAddr: 0x1530, symBinAddr: 0x45498, symSize: 0x80 }
  - { offset: 0x11BAAF, size: 0x8, addend: 0x0, symName: __ZN10ImDrawList19_OnChangedTextureIDEv, symObjAddr: 0x1530, symBinAddr: 0x45498, symSize: 0x80 }
  - { offset: 0x11BAB7, size: 0x8, addend: 0x0, symName: __ZN10ImDrawList19_OnChangedVtxOffsetEv, symObjAddr: 0x15B0, symBinAddr: 0x45518, symSize: 0x2C }
  - { offset: 0x11BB2D, size: 0x8, addend: 0x0, symName: __ZN10ImDrawList19_OnChangedVtxOffsetEv, symObjAddr: 0x15B0, symBinAddr: 0x45518, symSize: 0x2C }
  - { offset: 0x11BB35, size: 0x8, addend: 0x0, symName: __ZNK10ImDrawList27_CalcCircleAutoSegmentCountEf, symObjAddr: 0x15DC, symBinAddr: 0x45544, symSize: 0x88 }
  - { offset: 0x11BB62, size: 0x8, addend: 0x0, symName: __ZNK10ImDrawList27_CalcCircleAutoSegmentCountEf, symObjAddr: 0x15DC, symBinAddr: 0x45544, symSize: 0x88 }
  - { offset: 0x11BB6A, size: 0x8, addend: 0x0, symName: __ZN10ImDrawList12PushClipRectE6ImVec2S0_b, symObjAddr: 0x1664, symBinAddr: 0x455CC, symSize: 0x114 }
  - { offset: 0x11BCEF, size: 0x8, addend: 0x0, symName: __ZN10ImDrawList12PushClipRectE6ImVec2S0_b, symObjAddr: 0x1664, symBinAddr: 0x455CC, symSize: 0x114 }
  - { offset: 0x11BCF7, size: 0x8, addend: 0x0, symName: __ZN10ImDrawList22PushClipRectFullScreenEv, symObjAddr: 0x1778, symBinAddr: 0x456E0, symSize: 0x14 }
  - { offset: 0x11BE6A, size: 0x8, addend: 0x0, symName: __ZN10ImDrawList22PushClipRectFullScreenEv, symObjAddr: 0x1778, symBinAddr: 0x456E0, symSize: 0x14 }
  - { offset: 0x11BE72, size: 0x8, addend: 0x0, symName: __ZN10ImDrawList11PopClipRectEv, symObjAddr: 0x178C, symBinAddr: 0x456F4, symSize: 0x34 }
  - { offset: 0x11BEBC, size: 0x8, addend: 0x0, symName: __ZN10ImDrawList11PopClipRectEv, symObjAddr: 0x178C, symBinAddr: 0x456F4, symSize: 0x34 }
  - { offset: 0x11BEC4, size: 0x8, addend: 0x0, symName: __ZN10ImDrawList13PushTextureIDEPv, symObjAddr: 0x17C0, symBinAddr: 0x45728, symSize: 0xAC }
  - { offset: 0x11BEF7, size: 0x8, addend: 0x0, symName: __ZN10ImDrawList11PopClipRectEv, symObjAddr: 0x178C, symBinAddr: 0x456F4, symSize: 0x34 }
  - { offset: 0x11BF8B, size: 0x8, addend: 0x0, symName: __ZN10ImDrawList13PushTextureIDEPv, symObjAddr: 0x17C0, symBinAddr: 0x45728, symSize: 0xAC }
  - { offset: 0x11BF93, size: 0x8, addend: 0x0, symName: __ZN10ImDrawList12PopTextureIDEv, symObjAddr: 0x186C, symBinAddr: 0x457D4, symSize: 0x2C }
  - { offset: 0x11C097, size: 0x8, addend: 0x0, symName: __ZN10ImDrawList12PopTextureIDEv, symObjAddr: 0x186C, symBinAddr: 0x457D4, symSize: 0x2C }
  - { offset: 0x11C09F, size: 0x8, addend: 0x0, symName: __ZN10ImDrawList11PrimReserveEii, symObjAddr: 0x1898, symBinAddr: 0x45800, symSize: 0x198 }
  - { offset: 0x11C0C9, size: 0x8, addend: 0x0, symName: __ZN10ImDrawList12PopTextureIDEv, symObjAddr: 0x186C, symBinAddr: 0x457D4, symSize: 0x2C }
  - { offset: 0x11C11B, size: 0x8, addend: 0x0, symName: __ZN10ImDrawList11PrimReserveEii, symObjAddr: 0x1898, symBinAddr: 0x45800, symSize: 0x198 }
  - { offset: 0x11C123, size: 0x8, addend: 0x0, symName: __ZN10ImDrawList13PrimUnreserveEii, symObjAddr: 0x1A30, symBinAddr: 0x45998, symSize: 0x38 }
  - { offset: 0x11C389, size: 0x8, addend: 0x0, symName: __ZN10ImDrawList13PrimUnreserveEii, symObjAddr: 0x1A30, symBinAddr: 0x45998, symSize: 0x38 }
  - { offset: 0x11C391, size: 0x8, addend: 0x0, symName: __ZN10ImDrawList8PrimRectERK6ImVec2S2_j, symObjAddr: 0x1A68, symBinAddr: 0x459D0, symSize: 0xB8 }
  - { offset: 0x11C456, size: 0x8, addend: 0x0, symName: __ZN10ImDrawList8PrimRectERK6ImVec2S2_j, symObjAddr: 0x1A68, symBinAddr: 0x459D0, symSize: 0xB8 }
  - { offset: 0x11C45E, size: 0x8, addend: 0x0, symName: __ZN10ImDrawList10PrimRectUVERK6ImVec2S2_S2_S2_j, symObjAddr: 0x1B20, symBinAddr: 0x45A88, symSize: 0xC0 }
  - { offset: 0x11C509, size: 0x8, addend: 0x0, symName: __ZN10ImDrawList10PrimRectUVERK6ImVec2S2_S2_S2_j, symObjAddr: 0x1B20, symBinAddr: 0x45A88, symSize: 0xC0 }
  - { offset: 0x11C511, size: 0x8, addend: 0x0, symName: __ZN10ImDrawList10PrimQuadUVERK6ImVec2S2_S2_S2_S2_S2_S2_S2_j, symObjAddr: 0x1BE0, symBinAddr: 0x45B48, symSize: 0xC8 }
  - { offset: 0x11C5EC, size: 0x8, addend: 0x0, symName: __ZN10ImDrawList10PrimQuadUVERK6ImVec2S2_S2_S2_S2_S2_S2_S2_j, symObjAddr: 0x1BE0, symBinAddr: 0x45B48, symSize: 0xC8 }
  - { offset: 0x11C5F4, size: 0x8, addend: 0x0, symName: __ZN10ImDrawList11AddPolylineEPK6ImVec2ijif, symObjAddr: 0x1CA8, symBinAddr: 0x45C10, symSize: 0x834 }
  - { offset: 0x11C7A5, size: 0x8, addend: 0x0, symName: __ZN10ImDrawList11AddPolylineEPK6ImVec2ijif, symObjAddr: 0x1CA8, symBinAddr: 0x45C10, symSize: 0x834 }
  - { offset: 0x11C7AD, size: 0x8, addend: 0x0, symName: __ZN10ImDrawList19AddConvexPolyFilledEPK6ImVec2ij, symObjAddr: 0x24DC, symBinAddr: 0x46444, symSize: 0x2E0 }
  - { offset: 0x11D152, size: 0x8, addend: 0x0, symName: __ZN10ImDrawList19AddConvexPolyFilledEPK6ImVec2ij, symObjAddr: 0x24DC, symBinAddr: 0x46444, symSize: 0x2E0 }
  - { offset: 0x11D15A, size: 0x8, addend: 0x0, symName: __ZN10ImDrawList16_PathArcToFastExERK6ImVec2fiii, symObjAddr: 0x27BC, symBinAddr: 0x46724, symSize: 0x2D8 }
  - { offset: 0x11D597, size: 0x8, addend: 0x0, symName: __ZN10ImDrawList16_PathArcToFastExERK6ImVec2fiii, symObjAddr: 0x27BC, symBinAddr: 0x46724, symSize: 0x2D8 }
  - { offset: 0x11D59F, size: 0x8, addend: 0x0, symName: __ZN10ImDrawList11_PathArcToNERK6ImVec2fffi, symObjAddr: 0x2A94, symBinAddr: 0x469FC, symSize: 0x20C }
  - { offset: 0x11D945, size: 0x8, addend: 0x0, symName: __ZN10ImDrawList11_PathArcToNERK6ImVec2fffi, symObjAddr: 0x2A94, symBinAddr: 0x469FC, symSize: 0x20C }
  - { offset: 0x11D94D, size: 0x8, addend: 0x0, symName: __ZN10ImDrawList13PathArcToFastERK6ImVec2fii, symObjAddr: 0x2CA0, symBinAddr: 0x46C08, symSize: 0xD4 }
  - { offset: 0x11DBA7, size: 0x8, addend: 0x0, symName: __ZN10ImDrawList13PathArcToFastERK6ImVec2fii, symObjAddr: 0x2CA0, symBinAddr: 0x46C08, symSize: 0xD4 }
  - { offset: 0x11DBAF, size: 0x8, addend: 0x0, symName: __ZN10ImDrawList9PathArcToERK6ImVec2fffi, symObjAddr: 0x2D74, symBinAddr: 0x46CDC, symSize: 0x3EC }
  - { offset: 0x11DD6F, size: 0x8, addend: 0x0, symName: __ZN10ImDrawList9PathArcToERK6ImVec2fffi, symObjAddr: 0x2D74, symBinAddr: 0x46CDC, symSize: 0x3EC }
  - { offset: 0x11DD77, size: 0x8, addend: 0x0, symName: __Z17ImBezierCubicCalcRK6ImVec2S1_S1_S1_f, symObjAddr: 0x3160, symBinAddr: 0x470C8, symSize: 0x58 }
  - { offset: 0x11DF7A, size: 0x8, addend: 0x0, symName: __Z17ImBezierCubicCalcRK6ImVec2S1_S1_S1_f, symObjAddr: 0x3160, symBinAddr: 0x470C8, symSize: 0x58 }
  - { offset: 0x11E18D, size: 0x8, addend: 0x0, symName: __Z17ImBezierCubicCalcRK6ImVec2S1_S1_S1_f, symObjAddr: 0x3160, symBinAddr: 0x470C8, symSize: 0x58 }
  - { offset: 0x11E21A, size: 0x8, addend: 0x0, symName: __Z17ImBezierCubicCalcRK6ImVec2S1_S1_S1_f, symObjAddr: 0x3160, symBinAddr: 0x470C8, symSize: 0x58 }
  - { offset: 0x11E222, size: 0x8, addend: 0x0, symName: __Z21ImBezierQuadraticCalcRK6ImVec2S1_S1_f, symObjAddr: 0x31B8, symBinAddr: 0x47120, symSize: 0x38 }
  - { offset: 0x11E303, size: 0x8, addend: 0x0, symName: __Z21ImBezierQuadraticCalcRK6ImVec2S1_S1_f, symObjAddr: 0x31B8, symBinAddr: 0x47120, symSize: 0x38 }
  - { offset: 0x11E30B, size: 0x8, addend: 0x0, symName: __ZN10ImDrawList22PathBezierCubicCurveToERK6ImVec2S2_S2_i, symObjAddr: 0x31F0, symBinAddr: 0x47158, symSize: 0x17C }
  - { offset: 0x11E39F, size: 0x8, addend: 0x0, symName: __ZN10ImDrawList22PathBezierCubicCurveToERK6ImVec2S2_S2_i, symObjAddr: 0x31F0, symBinAddr: 0x47158, symSize: 0x17C }
  - { offset: 0x11E3A7, size: 0x8, addend: 0x0, symName: __ZL31PathBezierCubicCurveToCasteljauP8ImVectorI6ImVec2Efffffffffi, symObjAddr: 0x336C, symBinAddr: 0x472D4, symSize: 0x1FC }
  - { offset: 0x11E55A, size: 0x8, addend: 0x0, symName: __ZL31PathBezierCubicCurveToCasteljauP8ImVectorI6ImVec2Efffffffffi, symObjAddr: 0x336C, symBinAddr: 0x472D4, symSize: 0x1FC }
  - { offset: 0x11E562, size: 0x8, addend: 0x0, symName: __ZN10ImDrawList26PathBezierQuadraticCurveToERK6ImVec2S2_i, symObjAddr: 0x3568, symBinAddr: 0x474D0, symSize: 0x194 }
  - { offset: 0x11E8E3, size: 0x8, addend: 0x0, symName: __ZN10ImDrawList26PathBezierQuadraticCurveToERK6ImVec2S2_i, symObjAddr: 0x3568, symBinAddr: 0x474D0, symSize: 0x194 }
  - { offset: 0x11E8EB, size: 0x8, addend: 0x0, symName: __ZL35PathBezierQuadraticCurveToCasteljauP8ImVectorI6ImVec2Efffffffi, symObjAddr: 0x36FC, symBinAddr: 0x47664, symSize: 0x1BC }
  - { offset: 0x11EAAF, size: 0x8, addend: 0x0, symName: __ZL35PathBezierQuadraticCurveToCasteljauP8ImVectorI6ImVec2Efffffffi, symObjAddr: 0x36FC, symBinAddr: 0x47664, symSize: 0x1BC }
  - { offset: 0x11EAB7, size: 0x8, addend: 0x0, symName: __ZN10ImDrawList8PathRectERK6ImVec2S2_fi, symObjAddr: 0x38B8, symBinAddr: 0x47820, symSize: 0x3BC }
  - { offset: 0x11EDC6, size: 0x8, addend: 0x0, symName: __ZN10ImDrawList8PathRectERK6ImVec2S2_fi, symObjAddr: 0x38B8, symBinAddr: 0x47820, symSize: 0x3BC }
  - { offset: 0x11EDCE, size: 0x8, addend: 0x0, symName: __ZN10ImDrawList7AddLineERK6ImVec2S2_jf, symObjAddr: 0x3C74, symBinAddr: 0x47BDC, symSize: 0x170 }
  - { offset: 0x11F4A6, size: 0x8, addend: 0x0, symName: __ZN10ImDrawList7AddLineERK6ImVec2S2_jf, symObjAddr: 0x3C74, symBinAddr: 0x47BDC, symSize: 0x170 }
  - { offset: 0x11F4AE, size: 0x8, addend: 0x0, symName: __ZN10ImDrawList7AddRectERK6ImVec2S2_jfif, symObjAddr: 0x3DE4, symBinAddr: 0x47D4C, symSize: 0xBC }
  - { offset: 0x11F769, size: 0x8, addend: 0x0, symName: __ZN10ImDrawList7AddRectERK6ImVec2S2_jfif, symObjAddr: 0x3DE4, symBinAddr: 0x47D4C, symSize: 0xBC }
  - { offset: 0x11F771, size: 0x8, addend: 0x0, symName: __ZN10ImDrawList13AddRectFilledERK6ImVec2S2_jfi, symObjAddr: 0x3EA0, symBinAddr: 0x47E08, symSize: 0xA8 }
  - { offset: 0x11F948, size: 0x8, addend: 0x0, symName: __ZN10ImDrawList13AddRectFilledERK6ImVec2S2_jfi, symObjAddr: 0x3EA0, symBinAddr: 0x47E08, symSize: 0xA8 }
  - { offset: 0x11F950, size: 0x8, addend: 0x0, symName: __ZN10ImDrawList23AddRectFilledMultiColorERK6ImVec2S2_jjjj, symObjAddr: 0x3F48, symBinAddr: 0x47EB0, symSize: 0x160 }
  - { offset: 0x11FA65, size: 0x8, addend: 0x0, symName: __ZN10ImDrawList23AddRectFilledMultiColorERK6ImVec2S2_jjjj, symObjAddr: 0x3F48, symBinAddr: 0x47EB0, symSize: 0x160 }
  - { offset: 0x11FA6D, size: 0x8, addend: 0x0, symName: __ZN10ImDrawList7AddQuadERK6ImVec2S2_S2_S2_jf, symObjAddr: 0x40A8, symBinAddr: 0x48010, symSize: 0x26C }
  - { offset: 0x11FD10, size: 0x8, addend: 0x0, symName: __ZN10ImDrawList7AddQuadERK6ImVec2S2_S2_S2_jf, symObjAddr: 0x40A8, symBinAddr: 0x48010, symSize: 0x26C }
  - { offset: 0x11FD18, size: 0x8, addend: 0x0, symName: __ZN10ImDrawList13AddQuadFilledERK6ImVec2S2_S2_S2_j, symObjAddr: 0x4314, symBinAddr: 0x4827C, symSize: 0x258 }
  - { offset: 0x12019D, size: 0x8, addend: 0x0, symName: __ZN10ImDrawList13AddQuadFilledERK6ImVec2S2_S2_S2_j, symObjAddr: 0x4314, symBinAddr: 0x4827C, symSize: 0x258 }
  - { offset: 0x1201A5, size: 0x8, addend: 0x0, symName: __ZN10ImDrawList11AddTriangleERK6ImVec2S2_S2_jf, symObjAddr: 0x456C, symBinAddr: 0x484D4, symSize: 0x1EC }
  - { offset: 0x1205FF, size: 0x8, addend: 0x0, symName: __ZN10ImDrawList11AddTriangleERK6ImVec2S2_S2_jf, symObjAddr: 0x456C, symBinAddr: 0x484D4, symSize: 0x1EC }
  - { offset: 0x120607, size: 0x8, addend: 0x0, symName: __ZN10ImDrawList17AddTriangleFilledERK6ImVec2S2_S2_j, symObjAddr: 0x4758, symBinAddr: 0x486C0, symSize: 0x1D8 }
  - { offset: 0x120994, size: 0x8, addend: 0x0, symName: __ZN10ImDrawList17AddTriangleFilledERK6ImVec2S2_S2_j, symObjAddr: 0x4758, symBinAddr: 0x486C0, symSize: 0x1D8 }
  - { offset: 0x12099C, size: 0x8, addend: 0x0, symName: __ZN10ImDrawList9AddCircleERK6ImVec2fjif, symObjAddr: 0x4930, symBinAddr: 0x48898, symSize: 0xFC }
  - { offset: 0x120CFE, size: 0x8, addend: 0x0, symName: __ZN10ImDrawList9AddCircleERK6ImVec2fjif, symObjAddr: 0x4930, symBinAddr: 0x48898, symSize: 0xFC }
  - { offset: 0x120D06, size: 0x8, addend: 0x0, symName: __ZN10ImDrawList15AddCircleFilledERK6ImVec2fji, symObjAddr: 0x4A2C, symBinAddr: 0x48994, symSize: 0xE8 }
  - { offset: 0x120E3B, size: 0x8, addend: 0x0, symName: __ZN10ImDrawList15AddCircleFilledERK6ImVec2fji, symObjAddr: 0x4A2C, symBinAddr: 0x48994, symSize: 0xE8 }
  - { offset: 0x120E43, size: 0x8, addend: 0x0, symName: __ZN10ImDrawList7AddNgonERK6ImVec2fjif, symObjAddr: 0x4B14, symBinAddr: 0x48A7C, symSize: 0x8C }
  - { offset: 0x120F4D, size: 0x8, addend: 0x0, symName: __ZN10ImDrawList7AddNgonERK6ImVec2fjif, symObjAddr: 0x4B14, symBinAddr: 0x48A7C, symSize: 0x8C }
  - { offset: 0x120F55, size: 0x8, addend: 0x0, symName: __ZN10ImDrawList13AddNgonFilledERK6ImVec2fji, symObjAddr: 0x4BA0, symBinAddr: 0x48B08, symSize: 0x70 }
  - { offset: 0x12104A, size: 0x8, addend: 0x0, symName: __ZN10ImDrawList13AddNgonFilledERK6ImVec2fji, symObjAddr: 0x4BA0, symBinAddr: 0x48B08, symSize: 0x70 }
  - { offset: 0x121052, size: 0x8, addend: 0x0, symName: __ZN10ImDrawList14AddBezierCubicERK6ImVec2S2_S2_S2_jfi, symObjAddr: 0x4C10, symBinAddr: 0x48B78, symSize: 0x120 }
  - { offset: 0x121118, size: 0x8, addend: 0x0, symName: __ZN10ImDrawList14AddBezierCubicERK6ImVec2S2_S2_S2_jfi, symObjAddr: 0x4C10, symBinAddr: 0x48B78, symSize: 0x120 }
  - { offset: 0x121120, size: 0x8, addend: 0x0, symName: __ZN10ImDrawList18AddBezierQuadraticERK6ImVec2S2_S2_jfi, symObjAddr: 0x4D30, symBinAddr: 0x48C98, symSize: 0x110 }
  - { offset: 0x12130D, size: 0x8, addend: 0x0, symName: __ZN10ImDrawList18AddBezierQuadraticERK6ImVec2S2_S2_jfi, symObjAddr: 0x4D30, symBinAddr: 0x48C98, symSize: 0x110 }
  - { offset: 0x121315, size: 0x8, addend: 0x0, symName: __ZN10ImDrawList7AddTextEPK6ImFontfRK6ImVec2jPKcS7_fPK6ImVec4, symObjAddr: 0x4E40, symBinAddr: 0x48DA8, symSize: 0xF4 }
  - { offset: 0x1214EE, size: 0x8, addend: 0x0, symName: __ZN10ImDrawList7AddTextEPK6ImFontfRK6ImVec2jPKcS7_fPK6ImVec4, symObjAddr: 0x4E40, symBinAddr: 0x48DA8, symSize: 0xF4 }
  - { offset: 0x1214F6, size: 0x8, addend: 0x0, symName: __ZNK6ImFont10RenderTextEP10ImDrawListf6ImVec2jRK6ImVec4PKcS7_fb, symObjAddr: 0x4F34, symBinAddr: 0x48E9C, symSize: 0x4FC }
  - { offset: 0x1216A6, size: 0x8, addend: 0x0, symName: __ZNK6ImFont10RenderTextEP10ImDrawListf6ImVec2jRK6ImVec4PKcS7_fb, symObjAddr: 0x4F34, symBinAddr: 0x48E9C, symSize: 0x4FC }
  - { offset: 0x1216AE, size: 0x8, addend: 0x0, symName: __ZN10ImDrawList7AddTextERK6ImVec2jPKcS4_, symObjAddr: 0x5430, symBinAddr: 0x49398, symSize: 0x24 }
  - { offset: 0x121AE8, size: 0x8, addend: 0x0, symName: __ZN10ImDrawList7AddTextERK6ImVec2jPKcS4_, symObjAddr: 0x5430, symBinAddr: 0x49398, symSize: 0x24 }
  - { offset: 0x121AF0, size: 0x8, addend: 0x0, symName: __ZN10ImDrawList8AddImageEPvRK6ImVec2S3_S3_S3_j, symObjAddr: 0x5454, symBinAddr: 0x493BC, symSize: 0xFC }
  - { offset: 0x121B8E, size: 0x8, addend: 0x0, symName: __ZN10ImDrawList8AddImageEPvRK6ImVec2S3_S3_S3_j, symObjAddr: 0x5454, symBinAddr: 0x493BC, symSize: 0xFC }
  - { offset: 0x121B96, size: 0x8, addend: 0x0, symName: __ZN10ImDrawList12AddImageQuadEPvRK6ImVec2S3_S3_S3_S3_S3_S3_S3_j, symObjAddr: 0x5550, symBinAddr: 0x494B8, symSize: 0x158 }
  - { offset: 0x121C92, size: 0x8, addend: 0x0, symName: __ZN10ImDrawList12AddImageQuadEPvRK6ImVec2S3_S3_S3_S3_S3_S3_S3_j, symObjAddr: 0x5550, symBinAddr: 0x494B8, symSize: 0x158 }
  - { offset: 0x121C9A, size: 0x8, addend: 0x0, symName: __ZN10ImDrawList15AddImageRoundedEPvRK6ImVec2S3_S3_S3_jfi, symObjAddr: 0x56A8, symBinAddr: 0x49610, symSize: 0x1F0 }
  - { offset: 0x121DE3, size: 0x8, addend: 0x0, symName: __ZN10ImDrawList15AddImageRoundedEPvRK6ImVec2S3_S3_S3_jfi, symObjAddr: 0x56A8, symBinAddr: 0x49610, symSize: 0x1F0 }
  - { offset: 0x121DEB, size: 0x8, addend: 0x0, symName: __ZN5ImGui18ShadeVertsLinearUVEP10ImDrawListiiRK6ImVec2S4_S4_S4_b, symObjAddr: 0x5898, symBinAddr: 0x49800, symSize: 0xBC }
  - { offset: 0x122105, size: 0x8, addend: 0x0, symName: __ZN18ImDrawListSplitter5SplitEP10ImDrawListi, symObjAddr: 0x5954, symBinAddr: 0x498BC, symSize: 0x174 }
  - { offset: 0x12210D, size: 0x8, addend: 0x0, symName: __ZN18ImDrawListSplitter5MergeEP10ImDrawList, symObjAddr: 0x5AC8, symBinAddr: 0x49A30, symSize: 0x418 }
  - { offset: 0x122437, size: 0x8, addend: 0x0, symName: __ZN18ImDrawListSplitter5MergeEP10ImDrawList, symObjAddr: 0x5AC8, symBinAddr: 0x49A30, symSize: 0x418 }
  - { offset: 0x12243F, size: 0x8, addend: 0x0, symName: __ZN18ImDrawListSplitter17SetCurrentChannelEP10ImDrawListi, symObjAddr: 0x5EE0, symBinAddr: 0x49E48, symSize: 0xD8 }
  - { offset: 0x12297A, size: 0x8, addend: 0x0, symName: __ZN18ImDrawListSplitter17SetCurrentChannelEP10ImDrawListi, symObjAddr: 0x5EE0, symBinAddr: 0x49E48, symSize: 0xD8 }
  - { offset: 0x122982, size: 0x8, addend: 0x0, symName: __ZN10ImDrawData17DeIndexAllBuffersEv, symObjAddr: 0x5FB8, symBinAddr: 0x49F20, symSize: 0x1A4 }
  - { offset: 0x122AFE, size: 0x8, addend: 0x0, symName: __ZN10ImDrawData17DeIndexAllBuffersEv, symObjAddr: 0x5FB8, symBinAddr: 0x49F20, symSize: 0x1A4 }
  - { offset: 0x122B06, size: 0x8, addend: 0x0, symName: __ZN10ImDrawData14ScaleClipRectsERK6ImVec2, symObjAddr: 0x615C, symBinAddr: 0x4A0C4, symSize: 0x54 }
  - { offset: 0x122DBB, size: 0x8, addend: 0x0, symName: __ZN10ImDrawData14ScaleClipRectsERK6ImVec2, symObjAddr: 0x615C, symBinAddr: 0x4A0C4, symSize: 0x54 }
  - { offset: 0x122DC3, size: 0x8, addend: 0x0, symName: __ZN5ImGui38ShadeVertsLinearColorGradientKeepAlphaEP10ImDrawListii6ImVec2S2_jj, symObjAddr: 0x61B0, symBinAddr: 0x4A118, symSize: 0xEC }
  - { offset: 0x122F23, size: 0x8, addend: 0x0, symName: __ZN12ImFontConfigC2Ev, symObjAddr: 0x629C, symBinAddr: 0x4A204, symSize: 0x48 }
  - { offset: 0x122F2B, size: 0x8, addend: 0x0, symName: __ZN12ImFontConfigC1Ev, symObjAddr: 0x62E4, symBinAddr: 0x4A24C, symSize: 0x48 }
  - { offset: 0x122F55, size: 0x8, addend: 0x0, symName: __ZN12ImFontConfigC2Ev, symObjAddr: 0x629C, symBinAddr: 0x4A204, symSize: 0x48 }
  - { offset: 0x122F7B, size: 0x8, addend: 0x0, symName: __ZN12ImFontConfigC2Ev, symObjAddr: 0x629C, symBinAddr: 0x4A204, symSize: 0x48 }
  - { offset: 0x122FC1, size: 0x8, addend: 0x0, symName: __ZN12ImFontConfigC1Ev, symObjAddr: 0x62E4, symBinAddr: 0x4A24C, symSize: 0x48 }
  - { offset: 0x122FC9, size: 0x8, addend: 0x0, symName: __ZN11ImFontAtlasC2Ev, symObjAddr: 0x632C, symBinAddr: 0x4A294, symSize: 0x3C }
  - { offset: 0x122FF3, size: 0x8, addend: 0x0, symName: __ZN12ImFontConfigC1Ev, symObjAddr: 0x62E4, symBinAddr: 0x4A24C, symSize: 0x48 }
  - { offset: 0x12301B, size: 0x8, addend: 0x0, symName: __ZN12ImFontConfigC1Ev, symObjAddr: 0x62E4, symBinAddr: 0x4A24C, symSize: 0x48 }
  - { offset: 0x123041, size: 0x8, addend: 0x0, symName: __ZN12ImFontConfigC1Ev, symObjAddr: 0x62E4, symBinAddr: 0x4A24C, symSize: 0x48 }
  - { offset: 0x123063, size: 0x8, addend: 0x0, symName: __ZN11ImFontAtlasC2Ev, symObjAddr: 0x632C, symBinAddr: 0x4A294, symSize: 0x3C }
  - { offset: 0x12306B, size: 0x8, addend: 0x0, symName: __ZN11ImFontAtlasC1Ev, symObjAddr: 0x6368, symBinAddr: 0x4A2D0, symSize: 0x3C }
  - { offset: 0x123103, size: 0x8, addend: 0x0, symName: __ZN11ImFontAtlasC1Ev, symObjAddr: 0x6368, symBinAddr: 0x4A2D0, symSize: 0x3C }
  - { offset: 0x12310B, size: 0x8, addend: 0x0, symName: __ZN11ImFontAtlasD2Ev, symObjAddr: 0x63A4, symBinAddr: 0x4A30C, symSize: 0x58 }
  - { offset: 0x1232B5, size: 0x8, addend: 0x0, symName: __ZN11ImFontAtlasD2Ev, symObjAddr: 0x63A4, symBinAddr: 0x4A30C, symSize: 0x58 }
  - { offset: 0x1232BD, size: 0x8, addend: 0x0, symName: __ZN11ImFontAtlas5ClearEv, symObjAddr: 0x63FC, symBinAddr: 0x4A364, symSize: 0x2C }
  - { offset: 0x123402, size: 0x8, addend: 0x0, symName: __ZN11ImFontAtlas5ClearEv, symObjAddr: 0x63FC, symBinAddr: 0x4A364, symSize: 0x2C }
  - { offset: 0x12340A, size: 0x8, addend: 0x0, symName: __ZN11ImFontAtlasD1Ev, symObjAddr: 0x6428, symBinAddr: 0x4A390, symSize: 0x4 }
  - { offset: 0x123430, size: 0x8, addend: 0x0, symName: __ZN11ImFontAtlasD1Ev, symObjAddr: 0x6428, symBinAddr: 0x4A390, symSize: 0x4 }
  - { offset: 0x123438, size: 0x8, addend: 0x0, symName: __ZN11ImFontAtlas14ClearInputDataEv, symObjAddr: 0x642C, symBinAddr: 0x4A394, symSize: 0xF8 }
  - { offset: 0x1234D0, size: 0x8, addend: 0x0, symName: __ZN11ImFontAtlas14ClearInputDataEv, symObjAddr: 0x642C, symBinAddr: 0x4A394, symSize: 0xF8 }
  - { offset: 0x1234D8, size: 0x8, addend: 0x0, symName: __ZN11ImFontAtlas12ClearTexDataEv, symObjAddr: 0x6524, symBinAddr: 0x4A48C, symSize: 0x40 }
  - { offset: 0x1235E3, size: 0x8, addend: 0x0, symName: __ZN11ImFontAtlas12ClearTexDataEv, symObjAddr: 0x6524, symBinAddr: 0x4A48C, symSize: 0x40 }
  - { offset: 0x1235EB, size: 0x8, addend: 0x0, symName: __ZN11ImFontAtlas10ClearFontsEv, symObjAddr: 0x6564, symBinAddr: 0x4A4CC, symSize: 0x64 }
  - { offset: 0x1236B5, size: 0x8, addend: 0x0, symName: __ZN11ImFontAtlas10ClearFontsEv, symObjAddr: 0x6564, symBinAddr: 0x4A4CC, symSize: 0x64 }
  - { offset: 0x1236BD, size: 0x8, addend: 0x0, symName: __ZN11ImFontAtlas18GetTexDataAsAlpha8EPPhPiS2_S2_, symObjAddr: 0x65C8, symBinAddr: 0x4A530, symSize: 0xAC }
  - { offset: 0x12382A, size: 0x8, addend: 0x0, symName: __ZN11ImFontAtlas18GetTexDataAsAlpha8EPPhPiS2_S2_, symObjAddr: 0x65C8, symBinAddr: 0x4A530, symSize: 0xAC }
  - { offset: 0x123832, size: 0x8, addend: 0x0, symName: __ZN11ImFontAtlas14AddFontDefaultEPK12ImFontConfig, symObjAddr: 0x6674, symBinAddr: 0x4A5DC, symSize: 0x14C }
  - { offset: 0x12394F, size: 0x8, addend: 0x0, symName: __ZN11ImFontAtlas14AddFontDefaultEPK12ImFontConfig, symObjAddr: 0x6674, symBinAddr: 0x4A5DC, symSize: 0x14C }
  - { offset: 0x123957, size: 0x8, addend: 0x0, symName: __ZN11ImFontAtlas5BuildEv, symObjAddr: 0x67C0, symBinAddr: 0x4A728, symSize: 0x24 }
  - { offset: 0x123A84, size: 0x8, addend: 0x0, symName: __ZN11ImFontAtlas5BuildEv, symObjAddr: 0x67C0, symBinAddr: 0x4A728, symSize: 0x24 }
  - { offset: 0x123A8C, size: 0x8, addend: 0x0, symName: __ZN11ImFontAtlas18GetTexDataAsRGBA32EPPhPiS2_S2_, symObjAddr: 0x67E4, symBinAddr: 0x4A74C, symSize: 0xF0 }
  - { offset: 0x123ADA, size: 0x8, addend: 0x0, symName: __ZN11ImFontAtlas18GetTexDataAsRGBA32EPPhPiS2_S2_, symObjAddr: 0x67E4, symBinAddr: 0x4A74C, symSize: 0xF0 }
  - { offset: 0x123AE2, size: 0x8, addend: 0x0, symName: __ZN11ImFontAtlas7AddFontEPK12ImFontConfig, symObjAddr: 0x68D4, symBinAddr: 0x4A83C, symSize: 0x220 }
  - { offset: 0x123DB4, size: 0x8, addend: 0x0, symName: __ZN11ImFontAtlas7AddFontEPK12ImFontConfig, symObjAddr: 0x68D4, symBinAddr: 0x4A83C, symSize: 0x220 }
  - { offset: 0x123DBC, size: 0x8, addend: 0x0, symName: __ZN6ImFontC1Ev, symObjAddr: 0x6AF4, symBinAddr: 0x4AA5C, symSize: 0x3C }
  - { offset: 0x124047, size: 0x8, addend: 0x0, symName: __ZN6ImFontC1Ev, symObjAddr: 0x6AF4, symBinAddr: 0x4AA5C, symSize: 0x3C }
  - { offset: 0x12404F, size: 0x8, addend: 0x0, symName: __ZN11ImFontAtlas21GetGlyphRangesDefaultEv, symObjAddr: 0x6B30, symBinAddr: 0x4AA98, symSize: 0xC }
  - { offset: 0x124079, size: 0x8, addend: 0x0, symName: __ZN6ImFontC1Ev, symObjAddr: 0x6AF4, symBinAddr: 0x4AA5C, symSize: 0x3C }
  - { offset: 0x1240A1, size: 0x8, addend: 0x0, symName: __ZN6ImFontC1Ev, symObjAddr: 0x6AF4, symBinAddr: 0x4AA5C, symSize: 0x3C }
  - { offset: 0x1240C7, size: 0x8, addend: 0x0, symName: __ZN6ImFontC1Ev, symObjAddr: 0x6AF4, symBinAddr: 0x4AA5C, symSize: 0x3C }
  - { offset: 0x124152, size: 0x8, addend: 0x0, symName: __ZN11ImFontAtlas36AddFontFromMemoryCompressedBase85TTFEPKcfPK12ImFontConfigPKt, symObjAddr: 0x6B3C, symBinAddr: 0x4AAA4, symSize: 0x124 }
  - { offset: 0x12415A, size: 0x8, addend: 0x0, symName: __ZN11ImFontAtlas18AddFontFromFileTTFEPKcfPK12ImFontConfigPKt, symObjAddr: 0x6C60, symBinAddr: 0x4ABC8, symSize: 0x1D0 }
  - { offset: 0x1243B9, size: 0x8, addend: 0x0, symName: __ZN11ImFontAtlas18AddFontFromFileTTFEPKcfPK12ImFontConfigPKt, symObjAddr: 0x6C60, symBinAddr: 0x4ABC8, symSize: 0x1D0 }
  - { offset: 0x1243C1, size: 0x8, addend: 0x0, symName: __ZN11ImFontAtlas20AddFontFromMemoryTTFEPvifPK12ImFontConfigPKt, symObjAddr: 0x6E30, symBinAddr: 0x4AD98, symSize: 0xE0 }
  - { offset: 0x124584, size: 0x8, addend: 0x0, symName: __ZN11ImFontAtlas20AddFontFromMemoryTTFEPvifPK12ImFontConfigPKt, symObjAddr: 0x6E30, symBinAddr: 0x4AD98, symSize: 0xE0 }
  - { offset: 0x12458C, size: 0x8, addend: 0x0, symName: __ZN11ImFontAtlas30AddFontFromMemoryCompressedTTFEPKvifPK12ImFontConfigPKt, symObjAddr: 0x6F10, symBinAddr: 0x4AE78, symSize: 0x594 }
  - { offset: 0x1247B1, size: 0x8, addend: 0x0, symName: __ZN11ImFontAtlas30AddFontFromMemoryCompressedTTFEPKvifPK12ImFontConfigPKt, symObjAddr: 0x6F10, symBinAddr: 0x4AE78, symSize: 0x594 }
  - { offset: 0x1247B9, size: 0x8, addend: 0x0, symName: __ZN11ImFontAtlas20AddCustomRectRegularEii, symObjAddr: 0x74A4, symBinAddr: 0x4B40C, symSize: 0xCC }
  - { offset: 0x124C64, size: 0x8, addend: 0x0, symName: __ZN11ImFontAtlas20AddCustomRectRegularEii, symObjAddr: 0x74A4, symBinAddr: 0x4B40C, symSize: 0xCC }
  - { offset: 0x124C6C, size: 0x8, addend: 0x0, symName: __ZN11ImFontAtlas22AddCustomRectFontGlyphEP6ImFonttiifRK6ImVec2, symObjAddr: 0x7570, symBinAddr: 0x4B4D8, symSize: 0xEC }
  - { offset: 0x124D7B, size: 0x8, addend: 0x0, symName: __ZN11ImFontAtlas22AddCustomRectFontGlyphEP6ImFonttiifRK6ImVec2, symObjAddr: 0x7570, symBinAddr: 0x4B4D8, symSize: 0xEC }
  - { offset: 0x124D83, size: 0x8, addend: 0x0, symName: __ZNK11ImFontAtlas16CalcCustomRectUVEPK21ImFontAtlasCustomRectP6ImVec2S4_, symObjAddr: 0x765C, symBinAddr: 0x4B5C4, symSize: 0x54 }
  - { offset: 0x124EE2, size: 0x8, addend: 0x0, symName: __ZNK11ImFontAtlas16CalcCustomRectUVEPK21ImFontAtlasCustomRectP6ImVec2S4_, symObjAddr: 0x765C, symBinAddr: 0x4B5C4, symSize: 0x54 }
  - { offset: 0x124EEA, size: 0x8, addend: 0x0, symName: __ZN11ImFontAtlas21GetMouseCursorTexDataEiP6ImVec2S1_S1_S1_, symObjAddr: 0x76B0, symBinAddr: 0x4B618, symSize: 0xB4 }
  - { offset: 0x124FC0, size: 0x8, addend: 0x0, symName: __ZN11ImFontAtlas21GetMouseCursorTexDataEiP6ImVec2S1_S1_S1_, symObjAddr: 0x76B0, symBinAddr: 0x4B618, symSize: 0xB4 }
  - { offset: 0x124FC8, size: 0x8, addend: 0x0, symName: __Z35ImFontAtlasGetBuilderForStbTruetypev, symObjAddr: 0x7764, symBinAddr: 0x4B6CC, symSize: 0x18 }
  - { offset: 0x1251D3, size: 0x8, addend: 0x0, symName: __Z39ImFontAtlasBuildMultiplyCalcLookupTablePhf, symObjAddr: 0x777C, symBinAddr: 0x4B6E4, symSize: 0x9C }
  - { offset: 0x1251DB, size: 0x8, addend: 0x0, symName: __Z34ImFontAtlasBuildMultiplyRectAlpha8PKhPhiiiii, symObjAddr: 0x7818, symBinAddr: 0x4B780, symSize: 0x4C }
  - { offset: 0x125233, size: 0x8, addend: 0x0, symName: __Z34ImFontAtlasBuildMultiplyRectAlpha8PKhPhiiiii, symObjAddr: 0x7818, symBinAddr: 0x4B780, symSize: 0x4C }
  - { offset: 0x12523B, size: 0x8, addend: 0x0, symName: __ZL31ImFontAtlasBuildWithStbTruetypeP11ImFontAtlas, symObjAddr: 0x7864, symBinAddr: 0x4B7CC, symSize: 0x25F0 }
  - { offset: 0x128E8D, size: 0x8, addend: 0x0, symName: __ZL31ImFontAtlasBuildWithStbTruetypeP11ImFontAtlas, symObjAddr: 0x7864, symBinAddr: 0x4B7CC, symSize: 0x25F0 }
  - { offset: 0x128E95, size: 0x8, addend: 0x0, symName: __Z25ImFontAtlasBuildSetupFontP11ImFontAtlasP6ImFontP12ImFontConfigff, symObjAddr: 0x9E54, symBinAddr: 0x4DDBC, symSize: 0x74 }
  - { offset: 0x12B6CA, size: 0x8, addend: 0x0, symName: __Z25ImFontAtlasBuildSetupFontP11ImFontAtlasP6ImFontP12ImFontConfigff, symObjAddr: 0x9E54, symBinAddr: 0x4DDBC, symSize: 0x74 }
  - { offset: 0x12B6D2, size: 0x8, addend: 0x0, symName: __ZN6ImFont15ClearOutputDataEv, symObjAddr: 0x9EC8, symBinAddr: 0x4DE30, symSize: 0x70 }
  - { offset: 0x12B774, size: 0x8, addend: 0x0, symName: __ZN6ImFont15ClearOutputDataEv, symObjAddr: 0x9EC8, symBinAddr: 0x4DE30, symSize: 0x70 }
  - { offset: 0x12B77C, size: 0x8, addend: 0x0, symName: __Z31ImFontAtlasBuildPackCustomRectsP11ImFontAtlasPv, symObjAddr: 0x9F38, symBinAddr: 0x4DEA0, symSize: 0x118 }
  - { offset: 0x12B862, size: 0x8, addend: 0x0, symName: __Z31ImFontAtlasBuildPackCustomRectsP11ImFontAtlasPv, symObjAddr: 0x9F38, symBinAddr: 0x4DEA0, symSize: 0x118 }
  - { offset: 0x12B86A, size: 0x8, addend: 0x0, symName: __ZL16stbrp_pack_rectsP13stbrp_contextP10stbrp_recti, symObjAddr: 0xA050, symBinAddr: 0x4DFB8, symSize: 0x4B4 }
  - { offset: 0x12BC85, size: 0x8, addend: 0x0, symName: __ZL16stbrp_pack_rectsP13stbrp_contextP10stbrp_recti, symObjAddr: 0xA050, symBinAddr: 0x4DFB8, symSize: 0x4B4 }
  - { offset: 0x12BC8D, size: 0x8, addend: 0x0, symName: __Z40ImFontAtlasBuildRender8bppRectFromStringP11ImFontAtlasiiiiPKcch, symObjAddr: 0xA504, symBinAddr: 0x4E46C, symSize: 0x70 }
  - { offset: 0x12BEA4, size: 0x8, addend: 0x0, symName: __Z40ImFontAtlasBuildRender8bppRectFromStringP11ImFontAtlasiiiiPKcch, symObjAddr: 0xA504, symBinAddr: 0x4E46C, symSize: 0x70 }
  - { offset: 0x12BEAC, size: 0x8, addend: 0x0, symName: __Z41ImFontAtlasBuildRender32bppRectFromStringP11ImFontAtlasiiiiPKccj, symObjAddr: 0xA574, symBinAddr: 0x4E4DC, symSize: 0x70 }
  - { offset: 0x12BF58, size: 0x8, addend: 0x0, symName: __Z41ImFontAtlasBuildRender32bppRectFromStringP11ImFontAtlasiiiiPKccj, symObjAddr: 0xA574, symBinAddr: 0x4E4DC, symSize: 0x70 }
  - { offset: 0x12BF60, size: 0x8, addend: 0x0, symName: __Z20ImFontAtlasBuildInitP11ImFontAtlas, symObjAddr: 0xA5E4, symBinAddr: 0x4E54C, symSize: 0x74 }
  - { offset: 0x12C00B, size: 0x8, addend: 0x0, symName: __Z20ImFontAtlasBuildInitP11ImFontAtlas, symObjAddr: 0xA5E4, symBinAddr: 0x4E54C, symSize: 0x74 }
  - { offset: 0x12C013, size: 0x8, addend: 0x0, symName: __Z22ImFontAtlasBuildFinishP11ImFontAtlas, symObjAddr: 0xA658, symBinAddr: 0x4E5C0, symSize: 0x57C }
  - { offset: 0x12C418, size: 0x8, addend: 0x0, symName: __Z22ImFontAtlasBuildFinishP11ImFontAtlas, symObjAddr: 0xA658, symBinAddr: 0x4E5C0, symSize: 0x57C }
  - { offset: 0x12C420, size: 0x8, addend: 0x0, symName: __ZN6ImFont8AddGlyphEPK12ImFontConfigtfffffffff, symObjAddr: 0xABD4, symBinAddr: 0x4EB3C, symSize: 0x1E0 }
  - { offset: 0x12CD0E, size: 0x8, addend: 0x0, symName: __ZN6ImFont8AddGlyphEPK12ImFontConfigtfffffffff, symObjAddr: 0xABD4, symBinAddr: 0x4EB3C, symSize: 0x1E0 }
  - { offset: 0x12CD16, size: 0x8, addend: 0x0, symName: __ZN6ImFont16BuildLookupTableEv, symObjAddr: 0xADB4, symBinAddr: 0x4ED1C, symSize: 0x358 }
  - { offset: 0x12D011, size: 0x8, addend: 0x0, symName: __ZN6ImFont16BuildLookupTableEv, symObjAddr: 0xADB4, symBinAddr: 0x4ED1C, symSize: 0x358 }
  - { offset: 0x12D019, size: 0x8, addend: 0x0, symName: __ZNK6ImFont19FindGlyphNoFallbackEt, symObjAddr: 0xB10C, symBinAddr: 0x4F074, symSize: 0x3C }
  - { offset: 0x12D474, size: 0x8, addend: 0x0, symName: __ZNK6ImFont19FindGlyphNoFallbackEt, symObjAddr: 0xB10C, symBinAddr: 0x4F074, symSize: 0x3C }
  - { offset: 0x12D47C, size: 0x8, addend: 0x0, symName: __ZN11ImFontAtlas20GetGlyphRangesKoreanEv, symObjAddr: 0xB148, symBinAddr: 0x4F0B0, symSize: 0xC }
  - { offset: 0x12D71D, size: 0x8, addend: 0x0, symName: __ZN24ImFontGlyphRangesBuilder7AddTextEPKcS1_, symObjAddr: 0xB250, symBinAddr: 0x4F1B8, symSize: 0x94 }
  - { offset: 0x12D725, size: 0x8, addend: 0x0, symName: __ZN24ImFontGlyphRangesBuilder9AddRangesEPKt, symObjAddr: 0xB2E4, symBinAddr: 0x4F24C, symSize: 0x48 }
  - { offset: 0x12D857, size: 0x8, addend: 0x0, symName: __ZN24ImFontGlyphRangesBuilder9AddRangesEPKt, symObjAddr: 0xB2E4, symBinAddr: 0x4F24C, symSize: 0x48 }
  - { offset: 0x12D85F, size: 0x8, addend: 0x0, symName: __ZN24ImFontGlyphRangesBuilder11BuildRangesEP8ImVectorItE, symObjAddr: 0xB32C, symBinAddr: 0x4F294, symSize: 0x200 }
  - { offset: 0x12DA0B, size: 0x8, addend: 0x0, symName: __ZN24ImFontGlyphRangesBuilder11BuildRangesEP8ImVectorItE, symObjAddr: 0xB32C, symBinAddr: 0x4F294, symSize: 0x200 }
  - { offset: 0x12DA13, size: 0x8, addend: 0x0, symName: __ZN6ImFontC2Ev, symObjAddr: 0xB52C, symBinAddr: 0x4F494, symSize: 0x3C }
  - { offset: 0x12DD5E, size: 0x8, addend: 0x0, symName: __ZN6ImFontC2Ev, symObjAddr: 0xB52C, symBinAddr: 0x4F494, symSize: 0x3C }
  - { offset: 0x12DD66, size: 0x8, addend: 0x0, symName: __ZN6ImFontD2Ev, symObjAddr: 0xB568, symBinAddr: 0x4F4D0, symSize: 0x48 }
  - { offset: 0x12DD90, size: 0x8, addend: 0x0, symName: __ZN6ImFontC2Ev, symObjAddr: 0xB52C, symBinAddr: 0x4F494, symSize: 0x3C }
  - { offset: 0x12DDB6, size: 0x8, addend: 0x0, symName: __ZN6ImFontC2Ev, symObjAddr: 0xB52C, symBinAddr: 0x4F494, symSize: 0x3C }
  - { offset: 0x12DE9E, size: 0x8, addend: 0x0, symName: __ZN6ImFontD2Ev, symObjAddr: 0xB568, symBinAddr: 0x4F4D0, symSize: 0x48 }
  - { offset: 0x12DEA6, size: 0x8, addend: 0x0, symName: __ZN6ImFontD1Ev, symObjAddr: 0xB5B0, symBinAddr: 0x4F518, symSize: 0x4 }
  - { offset: 0x12DFC6, size: 0x8, addend: 0x0, symName: __ZN6ImFontD1Ev, symObjAddr: 0xB5B0, symBinAddr: 0x4F518, symSize: 0x4 }
  - { offset: 0x12DFCE, size: 0x8, addend: 0x0, symName: __ZN6ImFont9GrowIndexEi, symObjAddr: 0xB5B4, symBinAddr: 0x4F51C, symSize: 0x148 }
  - { offset: 0x12E113, size: 0x8, addend: 0x0, symName: __ZN6ImFont9GrowIndexEi, symObjAddr: 0xB5B4, symBinAddr: 0x4F51C, symSize: 0x148 }
  - { offset: 0x12E11B, size: 0x8, addend: 0x0, symName: __ZNK6ImFont9FindGlyphEt, symObjAddr: 0xB6FC, symBinAddr: 0x4F664, symSize: 0x3C }
  - { offset: 0x12E303, size: 0x8, addend: 0x0, symName: __ZNK6ImFont9FindGlyphEt, symObjAddr: 0xB6FC, symBinAddr: 0x4F664, symSize: 0x3C }
  - { offset: 0x12E30B, size: 0x8, addend: 0x0, symName: __ZN6ImFont15SetGlyphVisibleEtb, symObjAddr: 0xB738, symBinAddr: 0x4F6A0, symSize: 0x60 }
  - { offset: 0x12E345, size: 0x8, addend: 0x0, symName: __ZN6ImFont15SetGlyphVisibleEtb, symObjAddr: 0xB738, symBinAddr: 0x4F6A0, symSize: 0x60 }
  - { offset: 0x12E34D, size: 0x8, addend: 0x0, symName: __ZN6ImFont18IsGlyphRangeUnusedEjj, symObjAddr: 0xB798, symBinAddr: 0x4F700, symSize: 0x64 }
  - { offset: 0x12E3C0, size: 0x8, addend: 0x0, symName: __ZN6ImFont18IsGlyphRangeUnusedEjj, symObjAddr: 0xB798, symBinAddr: 0x4F700, symSize: 0x64 }
  - { offset: 0x12E3C8, size: 0x8, addend: 0x0, symName: __ZN6ImFont15SetFallbackCharEt, symObjAddr: 0xB7FC, symBinAddr: 0x4F764, symSize: 0x8 }
  - { offset: 0x12E468, size: 0x8, addend: 0x0, symName: __ZN6ImFont15SetFallbackCharEt, symObjAddr: 0xB7FC, symBinAddr: 0x4F764, symSize: 0x8 }
  - { offset: 0x12E470, size: 0x8, addend: 0x0, symName: __ZN6ImFont12AddRemapCharEttb, symObjAddr: 0xB804, symBinAddr: 0x4F76C, symSize: 0xB4 }
  - { offset: 0x12E4AF, size: 0x8, addend: 0x0, symName: __ZN6ImFont12AddRemapCharEttb, symObjAddr: 0xB804, symBinAddr: 0x4F76C, symSize: 0xB4 }
  - { offset: 0x12E4B7, size: 0x8, addend: 0x0, symName: __ZNK6ImFont21CalcWordWrapPositionAEfPKcS1_f, symObjAddr: 0xB8B8, symBinAddr: 0x4F820, symSize: 0x1C4 }
  - { offset: 0x12E5B9, size: 0x8, addend: 0x0, symName: __ZNK6ImFont21CalcWordWrapPositionAEfPKcS1_f, symObjAddr: 0xB8B8, symBinAddr: 0x4F820, symSize: 0x1C4 }
  - { offset: 0x12E5C1, size: 0x8, addend: 0x0, symName: __ZNK6ImFont13CalcTextSizeAEfffPKcS1_PS1_, symObjAddr: 0xBA7C, symBinAddr: 0x4F9E4, symSize: 0x210 }
  - { offset: 0x12E735, size: 0x8, addend: 0x0, symName: __ZNK6ImFont13CalcTextSizeAEfffPKcS1_PS1_, symObjAddr: 0xBA7C, symBinAddr: 0x4F9E4, symSize: 0x210 }
  - { offset: 0x12E73D, size: 0x8, addend: 0x0, symName: __ZNK6ImFont10RenderCharEP10ImDrawListf6ImVec2jt, symObjAddr: 0xBC8C, symBinAddr: 0x4FBF4, symSize: 0x108 }
  - { offset: 0x12E914, size: 0x8, addend: 0x0, symName: __ZNK6ImFont10RenderCharEP10ImDrawListf6ImVec2jt, symObjAddr: 0xBC8C, symBinAddr: 0x4FBF4, symSize: 0x108 }
  - { offset: 0x12E91C, size: 0x8, addend: 0x0, symName: __ZN5ImGui11RenderArrowEP10ImDrawList6ImVec2jif, symObjAddr: 0xBD94, symBinAddr: 0x4FCFC, symSize: 0x104 }
  - { offset: 0x12ED46, size: 0x8, addend: 0x0, symName: __ZN11ImBitVector6CreateEi, symObjAddr: 0xCD80, symBinAddr: 0x50CE8, symSize: 0x9C }
  - { offset: 0x12ED4E, size: 0x8, addend: 0x0, symName: __ZL20stbtt_FindGlyphIndexPK14stbtt_fontinfoi, symObjAddr: 0xCE1C, symBinAddr: 0x50D84, symSize: 0x25C }
  - { offset: 0x12EE3B, size: 0x8, addend: 0x0, symName: __ZL20stbtt_FindGlyphIndexPK14stbtt_fontinfoi, symObjAddr: 0xCE1C, symBinAddr: 0x50D84, symSize: 0x25C }
  - { offset: 0x12EE43, size: 0x8, addend: 0x0, symName: __ZL31stbtt_GetGlyphBitmapBoxSubpixelPK14stbtt_fontinfoiffffPiS2_S2_S2_, symObjAddr: 0xD078, symBinAddr: 0x50FE0, symSize: 0x1D4 }
  - { offset: 0x12F57B, size: 0x8, addend: 0x0, symName: __ZL31stbtt_GetGlyphBitmapBoxSubpixelPK14stbtt_fontinfoiffffPiS2_S2_S2_, symObjAddr: 0xD078, symBinAddr: 0x50FE0, symSize: 0x1D4 }
  - { offset: 0x12F583, size: 0x8, addend: 0x0, symName: __ZL17stbtt__find_tablePhjPKc, symObjAddr: 0xD24C, symBinAddr: 0x511B4, symSize: 0x78 }
  - { offset: 0x12F82E, size: 0x8, addend: 0x0, symName: __ZL17stbtt__find_tablePhjPKc, symObjAddr: 0xD24C, symBinAddr: 0x511B4, symSize: 0x78 }
  - { offset: 0x12F836, size: 0x8, addend: 0x0, symName: __ZL20stbtt__cff_get_indexP10stbtt__buf, symObjAddr: 0xD2C4, symBinAddr: 0x5122C, symSize: 0x124 }
  - { offset: 0x12F985, size: 0x8, addend: 0x0, symName: __ZL20stbtt__cff_get_indexP10stbtt__buf, symObjAddr: 0xD2C4, symBinAddr: 0x5122C, symSize: 0x124 }
  - { offset: 0x12F98D, size: 0x8, addend: 0x0, symName: __ZL20stbtt__cff_index_get10stbtt__bufi, symObjAddr: 0xD3E8, symBinAddr: 0x51350, symSize: 0x11C }
  - { offset: 0x12FC1A, size: 0x8, addend: 0x0, symName: __ZL20stbtt__cff_index_get10stbtt__bufi, symObjAddr: 0xD3E8, symBinAddr: 0x51350, symSize: 0x11C }
  - { offset: 0x12FC22, size: 0x8, addend: 0x0, symName: __ZL20stbtt__dict_get_intsP10stbtt__bufiiPj, symObjAddr: 0xD504, symBinAddr: 0x5146C, symSize: 0x1C4 }
  - { offset: 0x12FF2C, size: 0x8, addend: 0x0, symName: __ZL20stbtt__dict_get_intsP10stbtt__bufiiPj, symObjAddr: 0xD504, symBinAddr: 0x5146C, symSize: 0x1C4 }
  - { offset: 0x12FF34, size: 0x8, addend: 0x0, symName: __ZL16stbtt__get_subrs10stbtt__bufS_, symObjAddr: 0xD6C8, symBinAddr: 0x51630, symSize: 0x120 }
  - { offset: 0x1301C5, size: 0x8, addend: 0x0, symName: __ZL16stbtt__get_subrs10stbtt__bufS_, symObjAddr: 0xD6C8, symBinAddr: 0x51630, symSize: 0x120 }
  - { offset: 0x1301CD, size: 0x8, addend: 0x0, symName: __ZL14stbtt__cff_intP10stbtt__buf, symObjAddr: 0xD7E8, symBinAddr: 0x51750, symSize: 0x13C }
  - { offset: 0x1302B7, size: 0x8, addend: 0x0, symName: __ZL14stbtt__cff_intP10stbtt__buf, symObjAddr: 0xD7E8, symBinAddr: 0x51750, symSize: 0x13C }
  - { offset: 0x1302BF, size: 0x8, addend: 0x0, symName: __ZL20stbtt__GetGlyfOffsetPK14stbtt_fontinfoi, symObjAddr: 0xD924, symBinAddr: 0x5188C, symSize: 0x7C }
  - { offset: 0x13030D, size: 0x8, addend: 0x0, symName: __ZL14stbtt__cff_intP10stbtt__buf, symObjAddr: 0xD7E8, symBinAddr: 0x51750, symSize: 0x13C }
  - { offset: 0x1303ED, size: 0x8, addend: 0x0, symName: __ZL20stbtt__GetGlyfOffsetPK14stbtt_fontinfoi, symObjAddr: 0xD924, symBinAddr: 0x5188C, symSize: 0x7C }
  - { offset: 0x13043C, size: 0x8, addend: 0x0, symName: __ZL20stbtt__GetGlyfOffsetPK14stbtt_fontinfoi, symObjAddr: 0xD924, symBinAddr: 0x5188C, symSize: 0x7C }
  - { offset: 0x130444, size: 0x8, addend: 0x0, symName: __ZL21stbtt__run_charstringPK14stbtt_fontinfoiP12stbtt__csctx, symObjAddr: 0xD9A0, symBinAddr: 0x51908, symSize: 0xAFC }
